(dp0
(S'2200011210'
p1
I2
tp2
I1
s(S'2200111211'
p3
I0
tp4
I5
s(S'2201222222'
p5
I2
tp6
F2.2869865460498047
s(S'2001122222'
p7
I0
tp8
F6.5063518557111735
s(S'2200122222'
p9
I0
tp10
F8.801457576776635
s(S'2000122221'
p11
I1
tp12
F1.49875
s(S'2002222211'
p13
I0
tp14
F-30.76786079435881
s(S'2220012220'
p15
I2
tp16
I1
s(S'2221022222'
p17
I1
tp18
I1
s(S'0022222211'
p19
I2
tp20
I-200
s(S'0011222220'
p21
I2
tp22
F2.6744336328125
s(S'1012222222'
p23
I2
tp24
F-119.23917351670882
s(S'2001111222'
p25
I2
tp26
F2.18890625
s(S'1222222222'
p27
I0
tp28
I-200
s(S'2201221122'
p29
I0
tp30
I5
s(S'1011112221'
p31
I0
tp32
I5
s(S'1100122222'
p33
I0
tp34
F-21.98120433314519
s(S'2200122211'
p35
I2
tp36
F3.110101037631034
s(S'0012222220'
p37
I2
tp38
F-99.5
s(S'2201111121'
p39
I0
tp40
F6.344888404846191
s(S'2101111211'
p41
I0
tp42
I5
s(S'0111222220'
p43
I1
tp44
F-6.359018652343749
s(S'0112222220'
p45
I1
tp46
F-110.2871190625
s(S'2100222221'
p47
I0
tp48
F-1.5636523500606336
s(S'1221102222'
p49
I1
tp50
I1
s(S'0122222221'
p51
I2
tp52
F-35.47305309599304
s(S'1222220022'
p53
I1
tp54
I1
s(S'2011112222'
p55
I2
tp56
F2.4242995620242738
s(S'2101221111'
p57
I2
tp58
F2.1247014843749996
s(S'1221002222'
p59
I1
tp60
F3.794581795941546
s(S'1022222222'
p61
I0
tp62
I-200
s(S'1102222221'
p63
I0
tp64
I-200
s(S'0111002222'
p65
I2
tp66
F1.0
s(S'0011122222'
p67
I2
tp68
I1
s(S'1012222211'
p69
I0
tp70
F-102.55570462988281
s(S'2011122222'
p71
I1
tp72
F1.683484375
s(S'2220111111'
p73
I1
tp74
F3.2913006170195054
s(S'2220110111'
p75
I2
tp76
I1
s(S'1122222220'
p77
I0
tp78
I-200
s(S'2012221221'
p79
I2
tp80
I1
s(S'2001122221'
p81
I1
tp82
F3.3625
s(S'2222220111'
p83
I0
tp84
F-97.5
s(S'2222000111'
p85
I1
tp86
F4.306421618746991
s(S'1110122222'
p87
I2
tp88
F1.52259375
s(S'1221022222'
p89
I1
tp90
I1
s(S'0022222101'
p91
I0
tp92
I5
s(S'1222222220'
p93
I2
tp94
F-15.089730509094238
s(S'2102222221'
p95
I2
tp96
F-25.39587296758268
s(S'1112222210'
p97
I2
tp98
F-2.2047583749999995
s(S'2200011221'
p99
I0
tp100
F9.293512147728805
s(S'1101222222'
p101
I2
tp102
F-18.834788809389423
s(S'0112122221'
p103
I2
tp104
I1
s(S'2200001121'
p105
I1
tp106
I1
s(S'1002222211'
p107
I2
tp108
F1.109375
s(S'2101222111'
p109
I2
tp110
F3.41366924197476
s(S'1002222222'
p111
I2
tp112
F-32.14334400668522
s(S'0022201222'
p113
I1
tp114
I1
s(S'2210222221'
p115
I2
tp116
F1.875
s(S'2222200111'
p117
I1
tp118
F4.971988681192675
s(S'2200012222'
p119
I2
tp120
F1.0
s(S'2101222222'
p121
I1
tp122
F-8.595085365238488
s(S'1110022222'
p123
I1
tp124
I-200
s(S'2222101211'
p125
I2
tp126
F3.165666919605995
s(S'2201111222'
p127
I2
tp128
F3.145260091460009
s(S'1112222220'
p129
I0
tp130
I-200
s(S'2011211221'
p131
I0
tp132
I5
s(S'2222201111'
p133
I2
tp134
F-99.07156653063477
s(S'1011122220'
p135
I0
tp136
F5.427653515625
s(S'1101222221'
p137
I0
tp138
I-200
s(S'2221012210'
p139
I0
tp140
F8.970405796344465
s(S'2110222222'
p141
I0
tp142
F-11.277799458862916
s(S'2201222211'
p143
I0
tp144
F6.431603950511166
s(S'2001112221'
p145
I1
tp146
F3.4780141463411924
s(S'2200222211'
p147
I0
tp148
F7.394443871102158
s(S'2002222211'
p149
I2
tp150
F1.6305311868376728
s(S'2011221221'
p151
I0
tp152
F5.0
s(S'2220001121'
p153
I0
tp154
F8.151828484040543
s(S'2201221111'
p155
I1
tp156
F2.922976024810791
s(S'0121022222'
p157
I0
tp158
F5.35
s(S'2222101221'
p159
I0
tp160
F10.061779404055375
s(S'0122222111'
p161
I0
tp162
I-200
s(S'1001222222'
p163
I2
tp164
F-18.660381814472316
s(S'2001111111'
p165
I1
tp166
I1
s(S'0022222221'
p167
I1
tp168
I-200
s(S'2101222221'
p169
I2
tp170
F-7.2882599662729275
s(S'1012212221'
p171
I2
tp172
F-4.091676816406247
s(S'0012222220'
p173
I0
tp174
I-200
s(S'2201222221'
p175
I0
tp176
F5.9625
s(S'1222102222'
p177
I1
tp178
F5.928987452794011
s(S'2001222222'
p179
I1
tp180
F-9.672873368983126
s(S'2210022222'
p181
I0
tp182
I5
s(S'1012222221'
p183
I2
tp184
F-36.436484012699914
s(S'1121012222'
p185
I1
tp186
I1
s(S'2102222211'
p187
I1
tp188
F-2.6908454433924045
s(S'2200111222'
p189
I1
tp190
F3.765530799343333
s(S'2101222221'
p191
I0
tp192
F-97.5
s(S'0011012222'
p193
I0
tp194
F6.75
s(S'1100222222'
p195
I1
tp196
I-200
s(S'0011102222'
p197
I2
tp198
I1
s(S'1001122222'
p199
I1
tp200
F-99.21781250000001
s(S'2201121111'
p201
I1
tp202
I1
s(S'2220112111'
p203
I1
tp204
I1
s(S'0100222222'
p205
I2
tp206
F1.8170762154573716
s(S'2001122210'
p207
I0
tp208
F5.35
s(S'2210121122'
p209
I0
tp210
I5
s(S'0022222222'
p211
I1
tp212
F-73.07186089391703
s(S'2011122210'
p213
I2
tp214
F3.206565145791816
s(S'2200022222'
p215
I1
tp216
F3.776118261422119
s(S'1002222002'
p217
I1
tp218
I1
s(S'2101111221'
p219
I2
tp220
F3.775648517050385
s(S'1011222222'
p221
I1
tp222
F-99.5
s(S'0122222220'
p223
I1
tp224
F-99.325
s(S'2220122221'
p225
I2
tp226
F4.573862063300584
s(S'2001012211'
p227
I0
tp228
I5
s(S'2222210011'
p229
I2
tp230
I1
s(S'0221022222'
p231
I2
tp232
I1
s(S'2222001121'
p233
I2
tp234
F3.9273327349076697
s(S'2201112222'
p235
I2
tp236
F2.0242847841685974
s(S'0001222210'
p237
I2
tp238
F2.5879062499999996
s(S'1222222220'
p239
I0
tp240
I-200
s(S'1101222222'
p241
I0
tp242
I-200
s(S'1111012222'
p243
I2
tp244
F1.0
s(S'0021012222'
p245
I0
tp246
I5
s(S'1022102222'
p247
I0
tp248
I5
s(S'2110222221'
p249
I0
tp250
I5
s(S'2101121222'
p251
I2
tp252
I1
s(S'0222102222'
p253
I2
tp254
F4.7705526118706585
s(S'2222011111'
p255
I0
tp256
I-200
s(S'1022222211'
p257
I0
tp258
I-200
s(S'2012222222'
p259
I0
tp260
F-28.89334375
s(S'2222222210'
p261
I1
tp262
F-99.5
s(S'1210122221'
p263
I0
tp264
F5.796638927067176
s(S'2201112221'
p265
I0
tp266
F7.820887635589607
s(S'2222222210'
p267
I0
tp268
I-200
s(S'1112222220'
p269
I2
tp270
I-200
s(S'2210111111'
p271
I1
tp272
F1.4725
s(S'0121002222'
p273
I2
tp274
I1
s(S'1002222221'
p275
I1
tp276
F-149.75
s(S'2200001221'
p277
I1
tp278
F5.751184852575496
s(S'2012212221'
p279
I1
tp280
I1
s(S'0011022222'
p281
I2
tp282
I1
s(S'2220001221'
p283
I0
tp284
F9.359006846993081
s(S'0111222221'
p285
I1
tp286
F-41.693033031249996
s(S'1002222221'
p287
I0
tp288
I-200
s(S'2002222222'
p289
I1
tp290
F-35.28532328969696
s(S'2101222121'
p291
I0
tp292
F5.0
s(S'0101222222'
p293
I2
tp294
F2.144123518396853
s(S'2200121111'
p295
I1
tp296
I1
s(S'1222222011'
p297
I0
tp298
I-200
s(S'2101112222'
p299
I0
tp300
F6.888110890518457
s(S'2200101221'
p301
I2
tp302
F5.314333864420396
s(S'0012212221'
p303
I1
tp304
F1.6124999999999998
s(S'0001222220'
p305
I1
tp306
I1
s(S'2101222211'
p307
I1
tp308
F2.1525673292626513
s(S'1222221011'
p309
I1
tp310
I1
s(S'2222001111'
p311
I1
tp312
F6.687521620350961
s(S'2000122210'
p313
I2
tp314
F2.05
s(S'0221102222'
p315
I0
tp316
I5
s(S'0022221012'
p317
I2
tp318
I1
s(S'2222222200'
p319
I1
tp320
F1.35
s(S'1222221012'
p321
I1
tp322
F3.7106765334402114
s(S'0112222221'
p323
I0
tp324
F-35.8393443661499
s(S'2222000222'
p325
I1
tp326
I1
s(S'2222210111'
p327
I1
tp328
F4.22757883757366
s(S'1012221221'
p329
I0
tp330
I5
s(S'2222220012'
p331
I1
tp332
F1.0
s(S'2011111221'
p333
I1
tp334
F1.35
s(S'0022101222'
p335
I2
tp336
F1.0
s(S'1122222200'
p337
I1
tp338
I-200
s(S'2200122111'
p339
I1
tp340
F4.235711378547469
s(S'2012222211'
p341
I2
tp342
I1
s(S'1210222222'
p343
I1
tp344
F1.35
s(S'0022222012'
p345
I2
tp346
I1
s(S'2210222211'
p347
I2
tp348
I1
s(S'2220111112'
p349
I2
tp350
I1
s(S'0012222222'
p351
I1
tp352
F-0.03057259033203108
s(S'1002222222'
p353
I1
tp354
F-118.23746572886725
s(S'2001112222'
p355
I2
tp356
F3.386963660034677
s(S'2101222122'
p357
I1
tp358
F0.9376421016808494
s(S'2200012210'
p359
I0
tp360
I5
s(S'1222222210'
p361
I1
tp362
F1.525
s(S'1222220012'
p363
I1
tp364
F5.004669316883065
s(S'1122222210'
p365
I0
tp366
F-200.0
s(S'2222200222'
p367
I2
tp368
F3.7539096675755026
s(S'2222000121'
p369
I1
tp370
F3.8615877786285857
s(S'2222221012'
p371
I1
tp372
F3.8635276172922137
s(S'2220012210'
p373
I0
tp374
F7.189729758869216
s(S'1101122222'
p375
I0
tp376
F-4.310169480162413
s(S'2220001222'
p377
I0
tp378
F6.567169076046771
s(S'0222222222'
p379
I1
tp380
F-155.9
s(S'2201122222'
p381
I1
tp382
F3.30170232115332
s(S'2210122212'
p383
I1
tp384
I1
s(S'1022222211'
p385
I2
tp386
F-106.52776996298377
s(S'2220011211'
p387
I0
tp388
F9.233172872512998
s(S'2222002221'
p389
I2
tp390
I1
s(S'2222220011'
p391
I2
tp392
I-200
s(S'2201121222'
p393
I1
tp394
F1.35
s(S'1012222222'
p395
I1
tp396
F-19.385045814380536
s(S'1021012222'
p397
I0
tp398
I5
s(S'2011211221'
p399
I1
tp400
F-14.512247460937497
s(S'1100222221'
p401
I2
tp402
F1.0
s(S'2220012211'
p403
I2
tp404
F5.894359405079757
s(S'2222210122'
p405
I0
tp406
F8.497963464795804
s(S'1011122221'
p407
I1
tp408
F1.9943376474609376
s(S'1002222221'
p409
I2
tp410
F-94.49752827023585
s(S'0002222220'
p411
I1
tp412
F1.6124999999999998
s(S'2210122211'
p413
I1
tp414
F5.737807251614331
s(S'0112222220'
p415
I0
tp416
I-200
s(S'2000222220'
p417
I0
tp418
F6.346706617675781
s(S'0122222221'
p419
I1
tp420
F-104.71169648620605
s(S'2200111121'
p421
I1
tp422
F6.134669194612233
s(S'0011222221'
p423
I1
tp424
F3.7996135077148434
s(S'0111102222'
p425
I1
tp426
I1
s(S'2222222220'
p427
I0
tp428
I-200
s(S'1110222222'
p429
I0
tp430
I-200
s(S'0002222210'
p431
I2
tp432
F1.4725
s(S'1022222222'
p433
I1
tp434
F-65.98685488831886
s(S'1102222221'
p435
I1
tp436
F-174.875
s(S'0100222222'
p437
I1
tp438
F-6.183277309032753
s(S'0022222222'
p439
I2
tp440
F-99.5
s(S'1012222121'
p441
I1
tp442
I1
s(S'1111022222'
p443
I2
tp444
F1.795380951879883
s(S'0222222221'
p445
I0
tp446
I5
s(S'2200122221'
p447
I2
tp448
F5.101697321913063
s(S'2220012222'
p449
I1
tp450
F2.9752978602298263
s(S'2221012222'
p451
I1
tp452
F3.3669011606227723
s(S'2222220111'
p453
I1
tp454
F4.178300327488407
s(S'2222000111'
p455
I2
tp456
F-99.325
s(S'2222101222'
p457
I0
tp458
F11.238285532262152
s(S'2222012222'
p459
I2
tp460
F9.644742914690335
s(S'1222222221'
p461
I2
tp462
F-7.259999999999998
s(S'2101221222'
p463
I2
tp464
F2.517173544550781
s(S'2200122112'
p465
I1
tp466
I1
s(S'1012222221'
p467
I0
tp468
F-109.6551767578125
s(S'1022222221'
p469
I1
tp470
I-200
s(S'1102222222'
p471
I1
tp472
F-111.09119755952344
s(S'2222101111'
p473
I0
tp474
F9.89182827257271
s(S'0110222222'
p475
I1
tp476
F-98.83274826363233
s(S'2210111122'
p477
I0
tp478
F5.697032745999985
s(S'2222210121'
p479
I1
tp480
F3.280728483811724
s(S'1222001222'
p481
I0
tp482
F5.875
s(S'2220000111'
p483
I2
tp484
I1
s(S'2220011111'
p485
I1
tp486
F4.5085800157812255
s(S'0022210122'
p487
I2
tp488
I1
s(S'0011222222'
p489
I2
tp490
F1.5764062499999998
s(S'0122222210'
p491
I1
tp492
F1.35
s(S'2200112210'
p493
I2
tp494
I1
s(S'2222220112'
p495
I1
tp496
F7.08661901101738
s(S'2102222121'
p497
I0
tp498
I5
s(S'2101222222'
p499
I0
tp500
F-0.589648842618784
s(S'0122222222'
p501
I0
tp502
F-148.75
s(S'1122222210'
p503
I2
tp504
I-200
s(S'0111012222'
p505
I1
tp506
F2.1861310773730467
s(S'2101221221'
p507
I0
tp508
I5
s(S'2222220122'
p509
I2
tp510
F3.6987108303882907
s(S'1112222220'
p511
I1
tp512
F-67.875
s(S'2011222220'
p513
I1
tp514
F1.35
s(S'1101122222'
p515
I2
tp516
F-12.359352166572597
s(S'2222201111'
p517
I1
tp518
F6.367632259631067
s(S'2222001222'
p519
I1
tp520
F3.2009188046130967
s(S'2210122111'
p521
I0
tp522
F8.860220650482177
s(S'0111222221'
p523
I2
tp524
I1
s(S'2002222222'
p525
I2
tp526
F-32.88998071305338
s(S'2200222222'
p527
I1
tp528
F2.197658852586418
s(S'2011112211'
p529
I2
tp530
F1.9499357532991468
s(S'2002222211'
p531
I1
tp532
F-7.011756019531246
s(S'2222001122'
p533
I2
tp534
F5.6376704787084275
s(S'2102222111'
p535
I0
tp536
I5
s(S'2221012221'
p537
I0
tp538
F7.483562697884998
s(S'2222200121'
p539
I2
tp540
F4.014592108036382
s(S'1012222111'
p541
I2
tp542
F1.0
s(S'0022222221'
p543
I2
tp544
F-44.586672003105456
s(S'1012212221'
p545
I1
tp546
F1.53375
s(S'0012222220'
p547
I1
tp548
F-108.54723334375001
s(S'2012222221'
p549
I2
tp550
F-1.8511868442354307
s(S'0111222220'
p551
I0
tp552
F7.58414959140625
s(S'2222200112'
p553
I1
tp554
F2.3116911824944326
s(S'0112222220'
p555
I2
tp556
I-200
s(S'1221012222'
p557
I2
tp558
F2.7208796128983868
s(S'2100222221'
p559
I1
tp560
I1
s(S'2102222211'
p561
I2
tp562
F-11.477940269315342
s(S'2222222220'
p563
I2
tp564
I-200
s(S'2101222221'
p565
I1
tp566
F-59.043558203125
s(S'2210122222'
p567
I1
tp568
F2.089529537684082
s(S'1110222222'
p569
I2
tp570
F-3.8817940400779722
s(S'1100222222'
p571
I0
tp572
F-97.5
s(S'2201122122'
p573
I1
tp574
F3.2816346274265946
s(S'1001122222'
p575
I2
tp576
F-12.800242114517733
s(S'2222001221'
p577
I2
tp578
F6.249724628296896
s(S'2201111221'
p579
I0
tp580
F8.224280553358675
s(S'2222221011'
p581
I2
tp582
F1.0
s(S'0022222222'
p583
I0
tp584
F-112.71856687449245
s(S'2200022222'
p585
I0
tp586
F-8.861821322724571
s(S'0022210222'
p587
I0
tp588
I5
s(S'1012222211'
p589
I1
tp590
F-40.485917597703434
s(S'0111022222'
p591
I0
tp592
F-97.5
s(S'2222011221'
p593
I2
tp594
F4.033029908583959
s(S'2200122220'
p595
I1
tp596
I1
s(S'2222000111'
p597
I0
tp598
F-96.625
s(S'2001221111'
p599
I2
tp600
F3.0370566015624996
s(S'2222101222'
p601
I2
tp602
F-99.2375
s(S'0111222210'
p603
I0
tp604
F6.0321718749999995
s(S'2200111221'
p605
I0
tp606
F9.90094651140291
s(S'2222201121'
p607
I2
tp608
F4.099611642451079
s(S'1222222220'
p609
I1
tp610
F-99.5
s(S'2201222111'
p611
I2
tp612
F4.7311366062756415
s(S'1111102222'
p613
I0
tp614
I5
s(S'1222222222'
p615
I1
tp616
I-200
s(S'2101111121'
p617
I0
tp618
F5.0
s(S'1101222222'
p619
I1
tp620
F-170.41749809869413
s(S'0110022222'
p621
I1
tp622
F-99.26375
s(S'0112222210'
p623
I2
tp624
F1.7307740234375
s(S'2220022222'
p625
I2
tp626
F3.96363440184938
s(S'0011122221'
p627
I1
tp628
F4.0881778878125
s(S'2222001211'
p629
I0
tp630
F7.969390287361298
s(S'2012222121'
p631
I1
tp632
I1
s(S'2222011111'
p633
I1
tp634
F6.043330097187849
s(S'2001222111'
p635
I0
tp636
I5
s(S'1022222211'
p637
I1
tp638
F-49.25
s(S'2200012211'
p639
I1
tp640
F1.0
s(S'2222012221'
p641
I0
tp642
F8.012568218476382
s(S'2101222222'
p643
I2
tp644
F2.370366778701661
s(S'2201122111'
p645
I2
tp646
F3.0209570487356183
s(S'0122222222'
p647
I2
tp648
F-51.57385937556133
s(S'2001111221'
p649
I1
tp650
F3.0865881076508446
s(S'2000222210'
p651
I1
tp652
F1.175
s(S'2222201122'
p653
I0
tp654
F8.348722879238071
s(S'1220012222'
p655
I1
tp656
F4.246925940234375
s(S'2011112221'
p657
I2
tp658
F2.2939484055666317
s(S'2101222212'
p659
I2
tp660
I1
s(S'2201111111'
p661
I2
tp662
F3.658233667876215
s(S'2222101121'
p663
I2
tp664
F3.94665415390244
s(S'1101222221'
p665
I1
tp666
F-55.420959767396305
s(S'2012222222'
p667
I2
tp668
F-0.5366935567135593
s(S'2011112210'
p669
I0
tp670
I5
s(S'0110222222'
p671
I0
tp672
F-98.39482690803024
s(S'2200022221'
p673
I1
tp674
F4.216044261035155
s(S'2200122122'
p675
I1
tp676
I1
s(S'2002222222'
p677
I0
tp678
F-23.521359999318015
s(S'2101111222'
p679
I0
tp680
F6.713918171129341
s(S'2210111112'
p681
I1
tp682
F1.876596875
s(S'0122222200'
p683
I2
tp684
I1
s(S'2001222210'
p685
I1
tp686
I1
s(S'2000122220'
p687
I1
tp688
F2.378125
s(S'2220011210'
p689
I1
tp690
I1
s(S'2222210112'
p691
I2
tp692
F3.996403674793221
s(S'0002222200'
p693
I2
tp694
I1
s(S'2102222222'
p695
I2
tp696
F2.2546013135688554
s(S'0022222221'
p697
I0
tp698
I-200
s(S'2011222222'
p699
I0
tp700
I5
s(S'0111122221'
p701
I2
tp702
F1.0
s(S'2200112221'
p703
I1
tp704
F3.7212413083334965
s(S'1011122222'
p705
I2
tp706
F1.9553498324241638
s(S'2220001111'
p707
I0
tp708
F9.616481987984894
s(S'2012222221'
p709
I0
tp710
F-28.31261992187499
s(S'0021002222'
p711
I0
tp712
I5
s(S'1002222222'
p713
I0
tp714
F-101.36369169921875
s(S'0110122222'
p715
I2
tp716
F2.1962134392578125
s(S'0122222220'
p717
I2
tp718
F-11.758265624999996
s(S'2201222122'
p719
I2
tp720
F1.35
s(S'2222220022'
p721
I0
tp722
I5
s(S'0121012222'
p723
I2
tp724
F2.174567560539674
s(S'2000222221'
p725
I1
tp726
I1
s(S'2222210111'
p727
I0
tp728
F-97.325
s(S'2102222211'
p729
I0
tp730
F-6.290731484374999
s(S'2200111122'
p731
I2
tp732
F4.38506717205291
s(S'1222220112'
p733
I0
tp734
I5
s(S'2200111111'
p735
I1
tp736
F4.77137278352702
s(S'1100222222'
p737
I2
tp738
F-4.062467193162834
s(S'1001122222'
p739
I0
tp740
F-97.5
s(S'2220002222'
p741
I0
tp742
I5
s(S'1022222221'
p743
I2
tp744
I-200
s(S'1102222222'
p745
I2
tp746
F-99.325
s(S'2102222221'
p747
I1
tp748
F-41.49351362786955
s(S'2220022221'
p749
I2
tp750
F5.588170211511109
s(S'0111022222'
p751
I2
tp752
F1.62697826953125
s(S'2001221222'
p753
I0
tp754
F4.651754464317315
s(S'2201121122'
p755
I0
tp756
F8.163018360830774
s(S'1011222222'
p757
I0
tp758
F-97.5
s(S'2222222201'
p759
I2
tp760
F1.35
s(S'2222201221'
p761
I2
tp762
F5.509280041284872
s(S'2210222222'
p763
I1
tp764
F-10.042645373452189
s(S'0112222222'
p765
I1
tp766
I-200
s(S'1210122222'
p767
I1
tp768
I1
s(S'1011012222'
p769
I1
tp770
I1
s(S'2012222222'
p771
I1
tp772
F-22.598145331237575
s(S'1122222210'
p773
I1
tp774
F-200.0
s(S'0012222210'
p775
I1
tp776
F1.0
s(S'2101221121'
p777
I2
tp778
I1
s(S'2200112222'
p779
I2
tp780
I1
s(S'2210122112'
p781
I2
tp782
I1
s(S'0112222210'
p783
I0
tp784
F-97.325
s(S'2222002222'
p785
I0
tp786
F14.369361020494896
s(S'0222222222'
p787
I0
tp788
F-148.75
s(S'2201111122'
p789
I2
tp790
F2.3788384224410324
s(S'2012221222'
p791
I1
tp792
I1
s(S'1222220122'
p793
I0
tp794
F5.0
s(S'0222101222'
p795
I1
tp796
F8.050530782745817
s(S'2222200111'
p797
I2
tp798
I-200
s(S'2222220011'
p799
I1
tp800
F2.3618351787319227
s(S'2002222111'
p801
I1
tp802
I1
s(S'1222002222'
p803
I2
tp804
I1
s(S'0022012222'
p805
I2
tp806
I1
s(S'2222200122'
p807
I0
tp808
F9.013023781897267
s(S'1222222011'
p809
I2
tp810
I-200
s(S'1012222222'
p811
I0
tp812
F-123.125
s(S'0022220022'
p813
I2
tp814
I1
s(S'2210122221'
p815
I2
tp816
F2.0013058754154267
s(S'2200111112'
p817
I0
tp818
I5
s(S'1011212221'
p819
I2
tp820
I1
s(S'2011222221'
p821
I0
tp822
F-13.307564853861287
s(S'2200122210'
p823
I1
tp824
F1.7349999999999999
s(S'1101112222'
p825
I2
tp826
I1
s(S'1100122222'
p827
I2
tp828
I1
s(S'2011122220'
p829
I0
tp830
F5.987420546875
s(S'2012222111'
p831
I1
tp832
I1
s(S'0021102222'
p833
I1
tp834
I1
s(S'1222210122'
p835
I2
tp836
F2.1346677845414264
s(S'0122102222'
p837
I0
tp838
I5
s(S'2222012211'
p839
I2
tp840
I1
s(S'2102222122'
p841
I0
tp842
I5
s(S'2200012221'
p843
I1
tp844
F2.7421426224654755
s(S'0122222221'
p845
I0
tp846
F-97.5
s(S'2001111211'
p847
I1
tp848
F1.175
s(S'2011112222'
p849
I0
tp850
F-19.752310147343866
s(S'1110222222'
p851
I1
tp852
I-200
s(S'2200101111'
p853
I0
tp854
I5
s(S'2220001211'
p855
I2
tp856
F7.734770658698617
s(S'0011222210'
p857
I1
tp858
F2.75
s(S'1022222222'
p859
I2
tp860
F-157.759659666998
s(S'2222000122'
p861
I1
tp862
F3.4707427670044964
s(S'1102222221'
p863
I2
tp864
F-103.13518288631201
s(S'2220011221'
p865
I2
tp866
F6.807822452601424
s(S'1100022222'
p867
I2
tp868
I1
s(S'1012222211'
p869
I2
tp870
F-57.09621067150878
s(S'0222222221'
p871
I1
tp872
F-4.39719140625
s(S'2222201222'
p873
I2
tp874
F5.29909642076274
s(S'1122222220'
p875
I2
tp876
F-99.5
s(S'2101111111'
p877
I1
tp878
I1
s(S'2222220111'
p879
I2
tp880
F-99.5
s(S'2222102222'
p881
I0
tp882
F12.721853080599518
s(S'0022102222'
p883
I0
tp884
F6.599081188183657
s(S'0220022222'
p885
I2
tp886
F2.1721972923777715
s(S'1201122222'
p887
I1
tp888
I1
s(S'2222220012'
p889
I0
tp890
I-200
s(S'2102222221'
p891
I0
tp892
F-97.5
s(S'1122222200'
p893
I2
tp894
I-200
s(S'0022222200'
p895
I2
tp896
I1
s(S'1012222221'
p897
I1
tp898
F-149.75
s(S'1022222221'
p899
I0
tp900
F-30.279354778790847
s(S'1102222222'
p901
I0
tp902
I-200
s(S'1011222221'
p903
I2
tp904
I1
s(S'0110022222'
p905
I2
tp906
F3.07375
s(S'2222210222'
p907
I2
tp908
F3.6689241823373173
s(S'2001112211'
p909
I2
tp910
I1
s(S'0012222222'
p911
I0
tp912
I5
s(S'1011222222'
p913
I2
tp914
F2.333978827893829
s(S'2200222221'
p915
I2
tp916
F1.0
s(S'2001222220'
p917
I1
tp918
F1.70875
s(S'2220012221'
p919
I0
tp920
F7.008464269727847
s(S'0011222222'
p921
I1
tp922
I-200
s(S'2201111211'
p923
I1
tp924
I1
s(S'2011221222'
p925
I2
tp926
F1.9533125
s(S'0122222222'
p927
I1
tp928
I-200
s(S'2001211221'
p929
I0
tp930
I5
s(S'0022222201'
p931
I0
tp932
I-200
s(S'1101122222'
p933
I1
tp934
F-5.94674991742618
s(S'0011122220'
p935
I0
tp936
F5.62741580883789
s(S'2222201111'
p937
I0
tp938
F-93.30065804989952
s(S'2011212221'
p939
I1
tp940
I1
s(S'1101222221'
p941
I2
tp942
F-11.204831290130219
s(S'2011122221'
p943
I0
tp944
F6.909110328808594
s(S'0222222222'
p945
I2
tp946
I-200
s(S'2222011211'
p947
I2
tp948
F3.9805215300602734
s(S'2000022221'
p949
I2
tp950
F4.116583969021041
s.