(dp0
(S'2200011210'
p1
I2
tp2
I1
s(S'2200111211'
p3
I0
tp4
I5
s(S'2201222222'
p5
I2
tp6
F2.2869865460498047
s(S'2001122222'
p7
I0
tp8
F6.5063518557111735
s(S'2200122222'
p9
I0
tp10
F8.801457576776635
s(S'2000122221'
p11
I1
tp12
F1.49875
s(S'2002222211'
p13
I0
tp14
F-30.76786079435881
s(S'2220012220'
p15
I2
tp16
I1
s(S'2221022222'
p17
I1
tp18
I1
s(S'0022222211'
p19
I2
tp20
I-200
s(S'0011222220'
p21
I2
tp22
F2.6744336328125
s(S'1012222222'
p23
I2
tp24
F-119.23917351670882
s(S'2001111222'
p25
I2
tp26
F2.18890625
s(S'1222222222'
p27
I0
tp28
I-200
s(S'2201221122'
p29
I0
tp30
I5
s(S'1011112221'
p31
I0
tp32
I5
s(S'1100122222'
p33
I0
tp34
F-21.98120433314519
s(S'2200122211'
p35
I2
tp36
F3.110101037631034
s(S'2222211011'
p37
I2
tp38
I1
s(S'0012222220'
p39
I2
tp40
F-99.5
s(S'2201111121'
p41
I0
tp42
F6.344888404846191
s(S'2101111211'
p43
I0
tp44
I5
s(S'0111222220'
p45
I1
tp46
F-6.359018652343749
s(S'0112222220'
p47
I1
tp48
F-110.2871190625
s(S'2100222221'
p49
I0
tp50
F-1.5636523500606336
s(S'1221102222'
p51
I1
tp52
I1
s(S'0122222221'
p53
I2
tp54
F-35.47305309599304
s(S'1222220022'
p55
I1
tp56
I1
s(S'2011112222'
p57
I2
tp58
F2.4242995620242738
s(S'2101221111'
p59
I2
tp60
F2.1247014843749996
s(S'1221002222'
p61
I1
tp62
F3.794581795941546
s(S'1022222222'
p63
I0
tp64
I-200
s(S'1102222221'
p65
I0
tp66
I-200
s(S'0111002222'
p67
I2
tp68
F1.0
s(S'0011122222'
p69
I2
tp70
I1
s(S'1012222211'
p71
I0
tp72
F-102.55570462988281
s(S'2011122222'
p73
I1
tp74
F1.683484375
s(S'2220111111'
p75
I1
tp76
F3.2913006170195054
s(S'2220110111'
p77
I2
tp78
I1
s(S'1122222220'
p79
I0
tp80
I-200
s(S'2012221221'
p81
I2
tp82
I1
s(S'2001122221'
p83
I1
tp84
F3.3625
s(S'2222220111'
p85
I0
tp86
F-97.5
s(S'2222000111'
p87
I1
tp88
F4.166912019977204
s(S'1110122222'
p89
I2
tp90
F1.52259375
s(S'1221022222'
p91
I1
tp92
I1
s(S'0022222101'
p93
I0
tp94
I5
s(S'1222222220'
p95
I2
tp96
F-15.089730509094238
s(S'2102222221'
p97
I2
tp98
F-25.39587296758268
s(S'1112222210'
p99
I2
tp100
F-2.2047583749999995
s(S'2200011221'
p101
I0
tp102
F9.293512147728805
s(S'1101222222'
p103
I2
tp104
F-18.834788809389423
s(S'0112122221'
p105
I2
tp106
I1
s(S'2200001121'
p107
I1
tp108
I1
s(S'1002222211'
p109
I2
tp110
F1.109375
s(S'2101222111'
p111
I2
tp112
F3.41366924197476
s(S'1002222222'
p113
I2
tp114
F-32.14334400668522
s(S'0022201222'
p115
I1
tp116
I1
s(S'2210222221'
p117
I2
tp118
F1.875
s(S'2222200111'
p119
I1
tp120
F4.611042126692927
s(S'0221012222'
p121
I2
tp122
I1
s(S'2200012222'
p123
I2
tp124
F1.0
s(S'2101222222'
p125
I1
tp126
F-8.595085365238488
s(S'1110022222'
p127
I1
tp128
I-200
s(S'2222101211'
p129
I2
tp130
F3.165666919605995
s(S'2201111222'
p131
I2
tp132
F3.145260091460009
s(S'1112222220'
p133
I0
tp134
I-200
s(S'2011211221'
p135
I0
tp136
I5
s(S'2222201111'
p137
I2
tp138
F-99.07156653063477
s(S'1011122220'
p139
I0
tp140
F5.427653515625
s(S'1101222221'
p141
I0
tp142
I-200
s(S'2221012210'
p143
I0
tp144
F8.970405796344465
s(S'2110222222'
p145
I0
tp146
F-11.277799458862916
s(S'2201222211'
p147
I0
tp148
F6.469200540497511
s(S'2001112221'
p149
I1
tp150
F3.041889015118917
s(S'2200222211'
p151
I0
tp152
F7.394443871102158
s(S'2002222211'
p153
I2
tp154
F0.37346968823149496
s(S'2222100222'
p155
I2
tp156
I1
s(S'2011221221'
p157
I0
tp158
F5.0
s(S'2220001121'
p159
I0
tp160
F9.85156663846785
s(S'2201221111'
p161
I1
tp162
F2.922976024810791
s(S'0121022222'
p163
I0
tp164
F5.35
s(S'2222101221'
p165
I0
tp166
F10.061779404055375
s(S'0122222111'
p167
I0
tp168
I-200
s(S'1001222222'
p169
I2
tp170
F-18.660381814472316
s(S'2001111111'
p171
I1
tp172
I1
s(S'0022222221'
p173
I1
tp174
I-200
s(S'2101222221'
p175
I2
tp176
F-7.2882599662729275
s(S'1012212221'
p177
I2
tp178
F-4.091676816406247
s(S'0012222220'
p179
I0
tp180
I-200
s(S'2201222221'
p181
I0
tp182
F5.9625
s(S'1222102222'
p183
I1
tp184
F8.524121812799269
s(S'2001222222'
p185
I1
tp186
F-9.672873368983126
s(S'2210022222'
p187
I0
tp188
I5
s(S'1012222221'
p189
I2
tp190
F-36.436484012699914
s(S'1121012222'
p191
I1
tp192
I1
s(S'2102222211'
p193
I1
tp194
F-15.015493880892404
s(S'2200111222'
p195
I1
tp196
F5.46860339572323
s(S'2101222221'
p197
I0
tp198
F-97.5
s(S'0011012222'
p199
I0
tp200
F5.875
s(S'1100222222'
p201
I1
tp202
I-200
s(S'0011102222'
p203
I2
tp204
I1
s(S'1001122222'
p205
I1
tp206
F-99.21781250000001
s(S'2201121111'
p207
I1
tp208
I1
s(S'2220112111'
p209
I1
tp210
I1
s(S'0222222111'
p211
I2
tp212
I-200
s(S'0100222222'
p213
I2
tp214
F1.8170762154573716
s(S'2001122210'
p215
I0
tp216
F5.35
s(S'2210121122'
p217
I0
tp218
I5
s(S'0022222222'
p219
I1
tp220
F-73.07186089391703
s(S'2011122210'
p221
I2
tp222
F3.206565145791816
s(S'2200022222'
p223
I1
tp224
F3.776118261422119
s(S'1002222002'
p225
I1
tp226
I1
s(S'2101111221'
p227
I2
tp228
F3.220417706379554
s(S'1011222222'
p229
I1
tp230
F-99.5
s(S'0122222220'
p231
I1
tp232
F-99.325
s(S'2220122221'
p233
I2
tp234
F3.1369310316502923
s(S'2001012211'
p235
I0
tp236
I5
s(S'2222210011'
p237
I2
tp238
F1.0
s(S'2222200011'
p239
I2
tp240
I-200
s(S'0221022222'
p241
I2
tp242
F1.0
s(S'2222001121'
p243
I2
tp244
F4.000977104324237
s(S'2222210022'
p245
I0
tp246
I5
s(S'2201112222'
p247
I2
tp248
F2.0242847841685974
s(S'0001222210'
p249
I2
tp250
F2.5879062499999996
s(S'1222222220'
p251
I0
tp252
I-200
s(S'1101222222'
p253
I0
tp254
I-200
s(S'1111012222'
p255
I2
tp256
F1.0
s(S'0021012222'
p257
I0
tp258
I5
s(S'1022102222'
p259
I0
tp260
I5
s(S'2110222221'
p261
I0
tp262
I5
s(S'2101121222'
p263
I2
tp264
I1
s(S'2210122122'
p265
I0
tp266
I5
s(S'0222102222'
p267
I2
tp268
F5.633936781716004
s(S'2222011111'
p269
I0
tp270
I-200
s(S'1022222211'
p271
I0
tp272
I-200
s(S'2012222222'
p273
I0
tp274
F-28.89334375
s(S'2222222210'
p275
I1
tp276
F-99.5
s(S'1210122221'
p277
I0
tp278
F5.796638927067176
s(S'2201112221'
p279
I0
tp280
F7.820887635589607
s(S'2222222210'
p281
I0
tp282
I-200
s(S'1112222220'
p283
I2
tp284
I-200
s(S'2210111111'
p285
I1
tp286
F1.4725
s(S'0121002222'
p287
I2
tp288
I1
s(S'1002222221'
p289
I1
tp290
F-149.75
s(S'2200001221'
p291
I1
tp292
F5.751184852575496
s(S'2012212221'
p293
I1
tp294
I1
s(S'0011022222'
p295
I2
tp296
I1
s(S'2220001221'
p297
I0
tp298
F10.827335236330079
s(S'0111222221'
p299
I1
tp300
F-41.693033031249996
s(S'1002222221'
p301
I0
tp302
I-200
s(S'2002222222'
p303
I1
tp304
F-35.28532328969696
s(S'2101222121'
p305
I0
tp306
F5.0
s(S'0101222222'
p307
I2
tp308
F2.144123518396853
s(S'2200121111'
p309
I1
tp310
I1
s(S'1222222011'
p311
I0
tp312
I-200
s(S'2101112222'
p313
I0
tp314
F6.888110890518457
s(S'2200101221'
p315
I2
tp316
F5.314333864420396
s(S'0012212221'
p317
I1
tp318
F1.6124999999999998
s(S'0001222220'
p319
I1
tp320
I1
s(S'2101222211'
p321
I1
tp322
F2.146969580024511
s(S'1222221011'
p323
I1
tp324
I1
s(S'2222001111'
p325
I1
tp326
F6.483347823942998
s(S'2000122210'
p327
I2
tp328
F2.05
s(S'0221102222'
p329
I0
tp330
I5
s(S'0022221012'
p331
I2
tp332
I1
s(S'2222222200'
p333
I1
tp334
F1.35
s(S'1222221012'
p335
I1
tp336
F3.817743381341048
s(S'0112222221'
p337
I0
tp338
F-35.8393443661499
s(S'2222000222'
p339
I1
tp340
I1
s(S'2222210111'
p341
I1
tp342
F5.13557769841773
s(S'1012221221'
p343
I0
tp344
I5
s(S'2222220012'
p345
I1
tp346
F1.0
s(S'2011111221'
p347
I1
tp348
F1.35
s(S'0022101222'
p349
I2
tp350
F1.0
s(S'1122222200'
p351
I1
tp352
I-200
s(S'2200122111'
p353
I1
tp354
F4.235711378547469
s(S'2012222211'
p355
I2
tp356
I1
s(S'1210222222'
p357
I1
tp358
F0.804443241196504
s(S'0022222012'
p359
I2
tp360
I1
s(S'2210222211'
p361
I2
tp362
F1.7004570563953993
s(S'2220111112'
p363
I2
tp364
I1
s(S'0012222222'
p365
I1
tp366
F-0.03057259033203108
s(S'1002222222'
p367
I1
tp368
F-118.23746572886725
s(S'2001112222'
p369
I2
tp370
F4.482698291214973
s(S'2101222122'
p371
I1
tp372
F-7.263654948920882
s(S'2200012210'
p373
I0
tp374
I5
s(S'1222222210'
p375
I1
tp376
F1.525
s(S'1222220012'
p377
I1
tp378
F4.4376810450776585
s(S'1122222210'
p379
I0
tp380
F-200.0
s(S'2222200222'
p381
I2
tp382
F2.3769548337877513
s(S'2222000121'
p383
I1
tp384
F3.8615877786285857
s(S'2222221012'
p385
I1
tp386
F3.8635276172922137
s(S'2220012210'
p387
I0
tp388
F7.189729758869216
s(S'1101122222'
p389
I0
tp390
F-4.310169480162413
s(S'2220001222'
p391
I0
tp392
F7.101520317793552
s(S'0222222222'
p393
I1
tp394
F-155.9
s(S'2201122222'
p395
I1
tp396
F3.30170232115332
s(S'2210122212'
p397
I1
tp398
I1
s(S'1022222211'
p399
I2
tp400
F-106.52776996298377
s(S'2220011211'
p401
I0
tp402
F9.233172872512998
s(S'2222002221'
p403
I2
tp404
I1
s(S'2222220011'
p405
I2
tp406
I-200
s(S'0022222211'
p407
I1
tp408
I1
s(S'2201121222'
p409
I1
tp410
F1.35
s(S'1012222222'
p411
I1
tp412
F-19.790297079767065
s(S'1021012222'
p413
I0
tp414
I5
s(S'2011211221'
p415
I1
tp416
F-14.512247460937497
s(S'1100222221'
p417
I2
tp418
F1.0
s(S'2220012211'
p419
I2
tp420
F5.894359405079757
s(S'2222210122'
p421
I0
tp422
F8.839780866862107
s(S'1011122221'
p423
I1
tp424
F1.9943376474609376
s(S'0222012222'
p425
I0
tp426
I5
s(S'1002222221'
p427
I2
tp428
F-94.49752827023585
s(S'0002222220'
p429
I1
tp430
F1.6124999999999998
s(S'2210122211'
p431
I1
tp432
F5.737807251614331
s(S'0112222220'
p433
I0
tp434
I-200
s(S'2000222220'
p435
I0
tp436
F6.346706617675781
s(S'2222100111'
p437
I2
tp438
I1
s(S'0122222221'
p439
I1
tp440
F-104.71169648620605
s(S'2200111121'
p441
I1
tp442
F6.134669194612233
s(S'0011222221'
p443
I1
tp444
F3.7996135077148434
s(S'0111102222'
p445
I1
tp446
I1
s(S'2222222220'
p447
I0
tp448
I-200
s(S'1110222222'
p449
I0
tp450
I-200
s(S'0002222210'
p451
I2
tp452
F1.4725
s(S'1022222222'
p453
I1
tp454
F-65.98685488831886
s(S'1102222221'
p455
I1
tp456
F-174.875
s(S'0100222222'
p457
I1
tp458
F-6.183277309032753
s(S'0022222222'
p459
I2
tp460
F-99.5
s(S'1012222121'
p461
I1
tp462
I1
s(S'1111022222'
p463
I2
tp464
F1.795380951879883
s(S'0222222221'
p465
I0
tp466
I5
s(S'2200122221'
p467
I2
tp468
F5.101697321913063
s(S'2220012222'
p469
I1
tp470
F2.9752978602298263
s(S'2221012222'
p471
I1
tp472
F3.3669011606227723
s(S'2222220111'
p473
I1
tp474
F4.143475936471886
s(S'2222000111'
p475
I2
tp476
F-99.325
s(S'2222101222'
p477
I0
tp478
F7.710652308643199
s(S'2222012222'
p479
I2
tp480
F8.882340735347292
s(S'1222222221'
p481
I2
tp482
F-7.259999999999998
s(S'2101221222'
p483
I2
tp484
F2.517173544550781
s(S'2200122112'
p485
I1
tp486
I1
s(S'1012222221'
p487
I0
tp488
F-109.6551767578125
s(S'1022222221'
p489
I1
tp490
I-200
s(S'1102222222'
p491
I1
tp492
F-111.09119755952344
s(S'2222101111'
p493
I0
tp494
F8.238683286455728
s(S'0110222222'
p495
I1
tp496
F-98.83274826363233
s(S'2210111122'
p497
I0
tp498
F6.883289883218511
s(S'2222210121'
p499
I1
tp500
F3.280728483811724
s(S'1222001222'
p501
I0
tp502
F5.875
s(S'2220000111'
p503
I2
tp504
I1
s(S'2220011111'
p505
I1
tp506
F4.5085800157812255
s(S'0022210122'
p507
I2
tp508
I1
s(S'0011222222'
p509
I2
tp510
F1.5764062499999998
s(S'0122222210'
p511
I1
tp512
F1.35
s(S'2200112210'
p513
I2
tp514
I1
s(S'2222220112'
p515
I1
tp516
F5.5229620986594705
s(S'2102222121'
p517
I0
tp518
I5
s(S'2101222222'
p519
I0
tp520
F-0.589648842618784
s(S'0122222222'
p521
I0
tp522
F-148.75
s(S'1122222210'
p523
I2
tp524
I-200
s(S'0111012222'
p525
I1
tp526
F2.1861310773730467
s(S'2101221221'
p527
I0
tp528
I5
s(S'2222220122'
p529
I2
tp530
F3.8492316247556833
s(S'1112222220'
p531
I1
tp532
F-67.875
s(S'2011222220'
p533
I1
tp534
F1.35
s(S'1101122222'
p535
I2
tp536
F-12.359352166572597
s(S'2222201111'
p537
I1
tp538
F5.544508690487502
s(S'2222001222'
p539
I1
tp540
F7.180192454579103
s(S'2210122111'
p541
I0
tp542
F8.860220650482177
s(S'0111222221'
p543
I2
tp544
I1
s(S'2002222222'
p545
I2
tp546
F-32.88998071305338
s(S'2220111122'
p547
I1
tp548
I1
s(S'2200222222'
p549
I1
tp550
F2.197658852586418
s(S'2011112211'
p551
I2
tp552
F1.9499357532991468
s(S'2002222211'
p553
I1
tp554
F-7.011756019531246
s(S'2222001122'
p555
I2
tp556
F5.6376704787084275
s(S'2102222111'
p557
I0
tp558
I5
s(S'2221012221'
p559
I0
tp560
F7.483562697884998
s(S'2222200121'
p561
I2
tp562
F4.014592108036382
s(S'1220011122'
p563
I1
tp564
I1
s(S'1012222111'
p565
I2
tp566
F1.0
s(S'0022222221'
p567
I2
tp568
F-44.586672003105456
s(S'1012212221'
p569
I1
tp570
F1.53375
s(S'0012222220'
p571
I1
tp572
F-108.54723334375001
s(S'2012222221'
p573
I2
tp574
F-1.8511868442354307
s(S'0111222220'
p575
I0
tp576
F7.58414959140625
s(S'2222200112'
p577
I1
tp578
F2.3116911824944326
s(S'0112222220'
p579
I2
tp580
I-200
s(S'1221012222'
p581
I2
tp582
F2.7208796128983868
s(S'2100222221'
p583
I1
tp584
I1
s(S'0221002222'
p585
I0
tp586
F6.669693414154731
s(S'2102222211'
p587
I2
tp588
F-11.477940269315342
s(S'2222222220'
p589
I2
tp590
I-200
s(S'2101222221'
p591
I1
tp592
F-59.043558203125
s(S'2210122222'
p593
I1
tp594
F2.089529537684082
s(S'1110222222'
p595
I2
tp596
F-0.6722223162987517
s(S'1100222222'
p597
I0
tp598
F-97.5
s(S'2201122122'
p599
I1
tp600
F3.2816346274265946
s(S'1001122222'
p601
I2
tp602
F-12.800242114517733
s(S'2222001221'
p603
I2
tp604
F4.082946341179046
s(S'2201111221'
p605
I0
tp606
F8.125644945578795
s(S'2222221011'
p607
I2
tp608
F1.0
s(S'0022222222'
p609
I0
tp610
F-112.71856687449245
s(S'2200022222'
p611
I0
tp612
F-8.861821322724571
s(S'0022210222'
p613
I0
tp614
I5
s(S'1012222211'
p615
I1
tp616
F-36.980458798851714
s(S'0111022222'
p617
I0
tp618
F-97.5
s(S'2222011221'
p619
I2
tp620
F4.29814829830562
s(S'2200122220'
p621
I1
tp622
I1
s(S'2222000111'
p623
I0
tp624
F-96.625
s(S'2001221111'
p625
I2
tp626
F3.0370566015624996
s(S'2222101222'
p627
I2
tp628
F-99.2375
s(S'0111222210'
p629
I0
tp630
F6.0321718749999995
s(S'2200111221'
p631
I0
tp632
F10.441251764864937
s(S'2222201121'
p633
I2
tp634
F4.044402906113484
s(S'1222222220'
p635
I1
tp636
F-99.5
s(S'2201222111'
p637
I2
tp638
F4.7311366062756415
s(S'1111102222'
p639
I0
tp640
I5
s(S'1222222222'
p641
I1
tp642
I-200
s(S'2101111121'
p643
I0
tp644
F5.0
s(S'1101222222'
p645
I1
tp646
F-170.41749809869413
s(S'0110022222'
p647
I1
tp648
F-99.26375
s(S'0112222210'
p649
I2
tp650
F1.7307740234375
s(S'2220022222'
p651
I2
tp652
F3.96363440184938
s(S'0011122221'
p653
I1
tp654
F4.0881778878125
s(S'2222001211'
p655
I0
tp656
F10.645913308224355
s(S'2012222121'
p657
I1
tp658
I1
s(S'2222011111'
p659
I1
tp660
F6.043330097187849
s(S'2001222111'
p661
I0
tp662
I5
s(S'1022222211'
p663
I1
tp664
F-24.125
s(S'2200012211'
p665
I1
tp666
F1.0
s(S'2222012221'
p667
I0
tp668
F8.012568218476382
s(S'2101222222'
p669
I2
tp670
F0.08481554486257203
s(S'2201122111'
p671
I2
tp672
F3.0209570487356183
s(S'0122222222'
p673
I2
tp674
F-51.57385937556133
s(S'2001111221'
p675
I1
tp676
F3.0865881076508446
s(S'2000222210'
p677
I1
tp678
F1.175
s(S'2222201122'
p679
I0
tp680
F8.348722879238071
s(S'1220012222'
p681
I1
tp682
F4.246925940234375
s(S'2011112221'
p683
I2
tp684
F2.8324114837954526
s(S'2101222212'
p685
I2
tp686
I1
s(S'2201111111'
p687
I2
tp688
F3.658233667876215
s(S'2222101121'
p689
I2
tp690
F4.47219277553336
s(S'1101222221'
p691
I1
tp692
F-55.420959767396305
s(S'2012222222'
p693
I2
tp694
F1.0207636813923195
s(S'2011112210'
p695
I0
tp696
I5
s(S'0110222222'
p697
I0
tp698
F-98.39482690803024
s(S'2200022221'
p699
I1
tp700
F4.216044261035155
s(S'2200122122'
p701
I1
tp702
I1
s(S'2002222222'
p703
I0
tp704
F-16.045446034692194
s(S'2101111222'
p705
I0
tp706
F5.7703092302823356
s(S'2210111112'
p707
I1
tp708
F1.876596875
s(S'0122222200'
p709
I2
tp710
I1
s(S'2001222210'
p711
I1
tp712
I1
s(S'2000122220'
p713
I1
tp714
F2.378125
s(S'2220011210'
p715
I1
tp716
I1
s(S'2222210112'
p717
I2
tp718
F3.996403674793221
s(S'0002222200'
p719
I2
tp720
I1
s(S'2102222222'
p721
I2
tp722
F2.4128809019954582
s(S'0022222221'
p723
I0
tp724
I-200
s(S'2011222222'
p725
I0
tp726
I5
s(S'0111122221'
p727
I2
tp728
F1.0
s(S'2200112221'
p729
I1
tp730
F3.7212413083334965
s(S'1011122222'
p731
I2
tp732
F1.9553498324241638
s(S'2220001111'
p733
I0
tp734
F9.616481987984894
s(S'2012222221'
p735
I0
tp736
F-28.31261992187499
s(S'0021002222'
p737
I0
tp738
I5
s(S'1002222222'
p739
I0
tp740
F-101.36369169921875
s(S'2001222222'
p741
I0
tp742
I5
s(S'0110122222'
p743
I2
tp744
F2.673919219628906
s(S'0122222220'
p745
I2
tp746
F-11.758265624999996
s(S'2201222122'
p747
I2
tp748
F1.35
s(S'2222220022'
p749
I0
tp750
F5.826642312556173
s(S'0121012222'
p751
I2
tp752
F2.174567560539674
s(S'2000222221'
p753
I1
tp754
I1
s(S'2222210111'
p755
I0
tp756
F-97.325
s(S'2102222211'
p757
I0
tp758
F-6.290731484374999
s(S'2200111122'
p759
I2
tp760
F2.692533586026455
s(S'1222220112'
p761
I0
tp762
I5
s(S'2200111111'
p763
I1
tp764
F4.77137278352702
s(S'1100222222'
p765
I2
tp766
F-1.3879947123179988
s(S'1001122222'
p767
I0
tp768
F-97.5
s(S'2220002222'
p769
I0
tp770
F5.875
s(S'1022222221'
p771
I2
tp772
I-200
s(S'1102222222'
p773
I2
tp774
F-99.325
s(S'2102222221'
p775
I1
tp776
F-41.49351362786955
s(S'2220022221'
p777
I2
tp778
F5.588170211511109
s(S'0111022222'
p779
I2
tp780
F3.675989134765625
s(S'2001221222'
p781
I0
tp782
F4.651754464317315
s(S'2201121122'
p783
I0
tp784
F8.832570563094293
s(S'1011222222'
p785
I0
tp786
F-97.5
s(S'2222222201'
p787
I2
tp788
F1.35
s(S'2222201221'
p789
I2
tp790
F5.509280041284872
s(S'2210222222'
p791
I1
tp792
F-10.042645373452189
s(S'0112222222'
p793
I1
tp794
I-200
s(S'1210122222'
p795
I1
tp796
I1
s(S'1011012222'
p797
I1
tp798
I1
s(S'2012222222'
p799
I1
tp800
F-22.598145331237575
s(S'1122222210'
p801
I1
tp802
F-200.0
s(S'0012222210'
p803
I1
tp804
F1.0
s(S'2101221121'
p805
I2
tp806
I1
s(S'2200112222'
p807
I2
tp808
I1
s(S'2210122112'
p809
I2
tp810
I1
s(S'0112222210'
p811
I0
tp812
F-97.325
s(S'2222002222'
p813
I0
tp814
F12.745220891461933
s(S'0222222222'
p815
I0
tp816
F-148.75
s(S'2201111122'
p817
I2
tp818
F4.546475637511287
s(S'2012221222'
p819
I1
tp820
I1
s(S'1222220122'
p821
I0
tp822
F5.0
s(S'0222101222'
p823
I1
tp824
F7.549826899206572
s(S'2222200111'
p825
I2
tp826
I-200
s(S'2222220011'
p827
I1
tp828
F1.7537799509610672
s(S'2002222111'
p829
I1
tp830
I1
s(S'1222002222'
p831
I2
tp832
I1
s(S'0022012222'
p833
I2
tp834
I1
s(S'2222200122'
p835
I0
tp836
F10.451194785186638
s(S'1222222011'
p837
I2
tp838
I-200
s(S'2220111222'
p839
I2
tp840
F1.0
s(S'1012222222'
p841
I0
tp842
F-123.125
s(S'0022220022'
p843
I2
tp844
I1
s(S'2210122221'
p845
I2
tp846
F3.101504659862918
s(S'2200111112'
p847
I0
tp848
I5
s(S'1011212221'
p849
I2
tp850
I1
s(S'2011222221'
p851
I0
tp852
F-13.307564853861287
s(S'2200122210'
p853
I1
tp854
F1.7349999999999999
s(S'1101112222'
p855
I2
tp856
I1
s(S'1100122222'
p857
I2
tp858
I1
s(S'2011122220'
p859
I0
tp860
F5.987420546875
s(S'2012222111'
p861
I1
tp862
I1
s(S'0021102222'
p863
I1
tp864
I1
s(S'1222210122'
p865
I2
tp866
F2.1346677845414264
s(S'0122102222'
p867
I0
tp868
I5
s(S'2222012211'
p869
I2
tp870
I1
s(S'2102222122'
p871
I0
tp872
I5
s(S'2200012221'
p873
I1
tp874
F2.7421426224654755
s(S'0122222221'
p875
I0
tp876
F-97.5
s(S'2001111211'
p877
I1
tp878
F1.175
s(S'2011112222'
p879
I0
tp880
F-19.752310147343866
s(S'1110222222'
p881
I1
tp882
I-200
s(S'2200101111'
p883
I0
tp884
I5
s(S'2220001211'
p885
I2
tp886
F7.734770658698617
s(S'0011222210'
p887
I1
tp888
F2.75
s(S'1022222222'
p889
I2
tp890
F-157.759659666998
s(S'2222000122'
p891
I1
tp892
F3.4707427670044964
s(S'1102222221'
p893
I2
tp894
F-103.13518288631201
s(S'2220011221'
p895
I2
tp896
F6.202420402917081
s(S'1100022222'
p897
I2
tp898
I1
s(S'1012222211'
p899
I2
tp900
F-57.09621067150878
s(S'0222222221'
p901
I1
tp902
F-4.39719140625
s(S'2222201222'
p903
I2
tp904
F6.077578911338049
s(S'1122222220'
p905
I2
tp906
F-99.5
s(S'0222002222'
p907
I2
tp908
I1
s(S'2101111111'
p909
I1
tp910
I1
s(S'2222220111'
p911
I2
tp912
F-99.5
s(S'2222102222'
p913
I0
tp914
F12.245836320751614
s(S'0022102222'
p915
I0
tp916
F6.599081188183657
s(S'0220022222'
p917
I2
tp918
F2.1721972923777715
s(S'1201122222'
p919
I1
tp920
I1
s(S'2222220012'
p921
I0
tp922
I-200
s(S'2102222221'
p923
I0
tp924
F-97.5
s(S'1122222200'
p925
I2
tp926
I-200
s(S'0022222200'
p927
I2
tp928
I1
s(S'1012222221'
p929
I1
tp930
F-149.75
s(S'1022222221'
p931
I0
tp932
F-111.61872578098611
s(S'1102222222'
p933
I0
tp934
I-200
s(S'1011222221'
p935
I2
tp936
I1
s(S'0110022222'
p937
I2
tp938
F2.6063173943359375
s(S'2222210222'
p939
I2
tp940
F3.62901088180456
s(S'2001112211'
p941
I2
tp942
I1
s(S'0012222222'
p943
I0
tp944
I5
s(S'1011222222'
p945
I2
tp946
F2.333978827893829
s(S'2200222221'
p947
I2
tp948
F1.0
s(S'2220011122'
p949
I2
tp950
I1
s(S'2001222220'
p951
I1
tp952
F1.70875
s(S'2220012221'
p953
I0
tp954
F7.008464269727847
s(S'0011222222'
p955
I1
tp956
I-200
s(S'2222200011'
p957
I1
tp958
F1.0
s(S'2201111211'
p959
I1
tp960
I1
s(S'2011221222'
p961
I2
tp962
F2.306284622545581
s(S'0122222222'
p963
I1
tp964
I-200
s(S'2001211221'
p965
I0
tp966
I5
s(S'0022222201'
p967
I0
tp968
I-200
s(S'1101122222'
p969
I1
tp970
F-5.94674991742618
s(S'0011122220'
p971
I0
tp972
F5.62741580883789
s(S'2222201111'
p973
I0
tp974
F-93.30065804989952
s(S'2011212221'
p975
I1
tp976
I1
s(S'1101222221'
p977
I2
tp978
F-11.204831290130219
s(S'2011122221'
p979
I0
tp980
F6.909110328808594
s(S'0222222222'
p981
I2
tp982
I-200
s(S'2222011211'
p983
I2
tp984
F4.67766438493405
s(S'2000022221'
p985
I2
tp986
F4.116583969021041
s.