(dp0
(S'2222012222'
p1
I2
tp2
I1
s(S'2222221011'
p3
I2
tp4
I1
s(S'2222220012'
p5
I0
tp6
I-200
s(S'2222220112'
p7
I1
tp8
F2.8724999999999996
s(S'2222210222'
p9
I2
tp10
I1
s(S'2222201222'
p11
I2
tp12
F1.0
s(S'2222002222'
p13
I0
tp14
F9.497994921875
s(S'1222222011'
p15
I0
tp16
I-200
s(S'1222220122'
p17
I0
tp18
F5.0
s(S'2222220111'
p19
I2
tp20
I1
s(S'1222220112'
p21
I0
tp22
I5
s(S'1222210122'
p23
I2
tp24
I1
s(S'2222101222'
p25
I2
tp26
F1.525
s(S'2222102222'
p27
I0
tp28
F6.3475
s(S'2222210122'
p29
I0
tp30
F5.175
s(S'2222220122'
p31
I2
tp32
I1
s.