(dp0
(S'2201222211'
p1
I2
tp2
F3.5684587196851627
s(S'2220111122'
p3
I0
tp4
F6.5872433521771825
s(S'1222000122'
p5
I0
tp6
F5.175
s(S'2201222222'
p7
I2
tp8
F3.9296912761519738
s(S'2001122222'
p9
I0
tp10
F5.175
s(S'1222200022'
p11
I0
tp12
I5
s(S'2100222222'
p13
I2
tp14
F3.621279878687707
s(S'2222211101'
p15
I2
tp16
I1
s(S'2220011112'
p17
I0
tp18
F7.737130542267286
s(S'1012222222'
p19
I2
tp20
F-106.84322014292601
s(S'1201222222'
p21
I2
tp22
F1.4675398207825248
s(S'1001222222'
p23
I0
tp24
F-99.65575997418019
s(S'1222222222'
p25
I0
tp26
I-200
s(S'2101222220'
p27
I2
tp28
F2.038390692275248
s(S'1011122221'
p29
I0
tp30
I5
s(S'1222210122'
p31
I0
tp32
F5.525
s(S'0222210222'
p33
I1
tp34
F5.454714753936648
s(S'2011112222'
p35
I2
tp36
F1.5551089953026112
s(S'2210122222'
p37
I0
tp38
F-1.5900655172774174
s(S'1222210002'
p39
I0
tp40
I5
s(S'0121012212'
p41
I1
tp42
I1
s(S'1022222222'
p43
I0
tp44
F-148.509375
s(S'1102222221'
p45
I0
tp46
I-200
s(S'1222201222'
p47
I0
tp48
F8.072499966273215
s(S'0222201111'
p49
I1
tp50
F-49.25
s(S'0111002222'
p51
I2
tp52
F4.79341484375
s(S'1222101222'
p53
I2
tp54
F5.711705100193125
s(S'1122001222'
p55
I1
tp56
F3.7937280814663015
s(S'2011122222'
p57
I1
tp58
I1
s(S'2201222220'
p59
I0
tp60
I5
s(S'2200122220'
p61
I2
tp62
F5.088552824239908
s(S'1120002222'
p63
I0
tp64
F5.35
s(S'0112222222'
p65
I2
tp66
I1
s(S'0122011122'
p67
I2
tp68
I1
s(S'0122101111'
p69
I0
tp70
I5
s(S'0122200222'
p71
I0
tp72
I5
s(S'1110122222'
p73
I2
tp74
F5.784323432221262
s(S'2222220012'
p75
I2
tp76
F1.0
s(S'1222222220'
p77
I2
tp78
I1
s(S'2200122112'
p79
I0
tp80
I5
s(S'1101222222'
p81
I2
tp82
I-200
s(S'1221011111'
p83
I2
tp84
I1
s(S'1222011111'
p85
I1
tp86
F2.802078425176505
s(S'1222222221'
p87
I2
tp88
F-32.7827109375
s(S'2222222001'
p89
I1
tp90
F2.75
s(S'1012222210'
p91
I2
tp92
I1
s(S'0012222222'
p93
I2
tp94
I1
s(S'1002222211'
p95
I2
tp96
I1
s(S'1002222222'
p97
I2
tp98
F-35.01777801819514
s(S'1122002222'
p99
I0
tp100
I5
s(S'2221000222'
p101
I0
tp102
F6.225
s(S'2210222221'
p103
I2
tp104
F4.96774337735264
s(S'2222200111'
p105
I1
tp106
F2.8724999999999996
s(S'2101222222'
p107
I1
tp108
F1.0
s(S'2102222221'
p109
I1
tp110
I1
s(S'2110122222'
p111
I2
tp112
I1
s(S'0111012222'
p113
I2
tp114
F4.267845386820589
s(S'1221111022'
p115
I2
tp116
I1
s(S'2222222210'
p117
I2
tp118
F1.0
s(S'1101112222'
p119
I1
tp120
I1
s(S'0222222012'
p121
I1
tp122
I1
s(S'2110222222'
p123
I0
tp124
F-20.556530839185317
s(S'0222201222'
p125
I2
tp126
I1
s(S'1210022222'
p127
I1
tp128
F-1.8076079392407491
s(S'0121102222'
p129
I0
tp130
F6.431023304153369
s(S'0022011122'
p131
I1
tp132
I1
s(S'2200222211'
p133
I0
tp134
F7.376801762839194
s(S'2221002222'
p135
I0
tp136
F11.396750464184494
s(S'2200122222'
p137
I2
tp138
F2.945682512160341
s(S'1120112222'
p139
I0
tp140
F5.35
s(S'2222100222'
p141
I2
tp142
F1.0
s(S'0222210122'
p143
I2
tp144
F2.75
s(S'0210122222'
p145
I2
tp146
F4.783614005200366
s(S'2222101221'
p147
I0
tp148
F7.532276107442357
s(S'2001222222'
p149
I1
tp150
F-3.9065199483603648
s(S'1001222222'
p151
I2
tp152
F-40.93835110652648
s(S'1222222222'
p153
I2
tp154
I-200
s(S'2222211012'
p155
I0
tp156
I5
s(S'0122101222'
p157
I1
tp158
F1.4878125
s(S'0222222101'
p159
I2
tp160
I-200
s(S'1100112222'
p161
I1
tp162
F-2.711776461480654
s(S'0122001222'
p163
I0
tp164
F6.75
s(S'1002222220'
p165
I0
tp166
I-200
s(S'1222102222'
p167
I1
tp168
F8.900763559649091
s(S'1000222222'
p169
I2
tp170
F-33.61979609375
s(S'2222200112'
p171
I2
tp172
F1.0
s(S'2222111012'
p173
I1
tp174
I1
s(S'1012222222'
p175
I0
tp176
F-82.10548121038772
s(S'1222211100'
p177
I1
tp178
I1
s(S'0122002221'
p179
I0
tp180
I5
s(S'0011222221'
p181
I2
tp182
I1
s(S'0110011222'
p183
I1
tp184
I1
s(S'2210122222'
p185
I2
tp186
F2.9657554102943524
s(S'2210111112'
p187
I0
tp188
I5
s(S'1100222222'
p189
I1
tp190
F-149.75
s(S'1001122222'
p191
I1
tp192
F0.46324589325140075
s(S'2220122211'
p193
I0
tp194
F8.836503152508481
s(S'0022222222'
p195
I1
tp196
F-35.7582251171875
s(S'2222011221'
p197
I1
tp198
F4.119538581624706
s(S'1011222222'
p199
I1
tp200
I-200
s(S'0122100222'
p201
I0
tp202
I5
s(S'1222210222'
p203
I0
tp204
F6.75
s(S'2222221001'
p205
I0
tp206
I5
s(S'0222222001'
p207
I1
tp208
I-200
s(S'0221012212'
p209
I2
tp210
I1
s(S'0222001111'
p211
I2
tp212
F-32.93906249999999
s(S'1110122222'
p213
I1
tp214
F-101.42581514655073
s(S'2222210022'
p215
I0
tp216
I5
s(S'2220011222'
p217
I2
tp218
F3.661025544399556
s(S'1101222222'
p219
I0
tp220
F-158.4188800119931
s(S'1222011222'
p221
I2
tp222
F3.735752932971361
s(S'0222102222'
p223
I2
tp224
F2.447443188653357
s(S'0222011111'
p225
I2
tp226
F4.043897112294463
s(S'2200111111'
p227
I0
tp228
I5
s(S'2222222221'
p229
I2
tp230
I-200
s(S'0221012222'
p231
I0
tp232
I5
s(S'2222012221'
p233
I1
tp234
F4.401520376768291
s(S'2222200122'
p235
I1
tp236
F3.7342578910779003
s(S'0222221012'
p237
I2
tp238
F1.0
s(S'1220012222'
p239
I2
tp240
I1
s(S'1220111122'
p241
I0
tp242
F5.0
s(S'2222001112'
p243
I1
tp244
I1
s(S'0222012222'
p245
I2
tp246
I1
s(S'2012222222'
p247
I1
tp248
F-47.9384055920505
s(S'1002222221'
p249
I0
tp250
I-200
s(S'2200122122'
p251
I2
tp252
I1
s(S'2002222222'
p253
I1
tp254
F-35.07787998709009
s(S'1221002222'
p255
I0
tp256
F11.465426403313293
s(S'2222002222'
p257
I2
tp258
F3.758081543928717
s(S'1201112222'
p259
I1
tp260
F-0.44462030636277117
s(S'2220012210'
p261
I0
tp262
I5
s(S'0222201111'
p263
I2
tp264
I-200
s(S'0222012221'
p265
I0
tp266
F6.828580327449733
s(S'1111022222'
p267
I0
tp268
F-94.0068152178943
s(S'0221102222'
p269
I0
tp270
F7.4901642727911835
s(S'1220112122'
p271
I1
tp272
I1
s(S'2220111111'
p273
I1
tp274
F3.969376021289702
s(S'2200122221'
p275
I0
tp276
F6.81824603012808
s(S'1000222222'
p277
I0
tp278
I-200
s(S'2101121222'
p279
I0
tp280
F6.028862213589356
s(S'0110122222'
p281
I1
tp282
I-200
s(S'2222000222'
p283
I1
tp284
F3.596267725402955
s(S'1221022222'
p285
I2
tp286
F7.514562383229734
s(S'2101222221'
p287
I2
tp288
F3.344513845079681
s(S'1222222221'
p289
I0
tp290
I-200
s(S'1210122222'
p291
I0
tp292
F5.9568297109065576
s(S'0120111222'
p293
I2
tp294
I1
s(S'1111002222'
p295
I2
tp296
F1.175
s(S'2220022221'
p297
I1
tp298
F5.348078196471573
s(S'2222100022'
p299
I2
tp300
I1
s(S'1222001222'
p301
I2
tp302
F4.930861637236456
s(S'0012222222'
p303
I1
tp304
F-6.005967773437501
s(S'2200222220'
p305
I2
tp306
F2.599764335971607
s(S'1220011222'
p307
I0
tp308
F8.184999999999999
s(S'1002222222'
p309
I1
tp310
F-84.43675916519453
s(S'2001112222'
p311
I2
tp312
F3.7282147901851372
s(S'2222200011'
p313
I0
tp314
I-200
s(S'1222220012'
p315
I1
tp316
F1.67184499330263
s(S'0222222011'
p317
I0
tp318
I-200
s(S'0221022222'
p319
I0
tp320
F7.171159637800452
s(S'2221011111'
p321
I1
tp322
F2.2483043261718745
s(S'1222011122'
p323
I0
tp324
F9.938187761630841
s(S'2201112222'
p325
I0
tp326
F7.223738997655783
s(S'1220112222'
p327
I1
tp328
F3.059074361914062
s(S'0222221022'
p329
I2
tp330
I1
s(S'2210122220'
p331
I1
tp332
F1.35
s(S'1222011112'
p333
I2
tp334
F2.2918067172363283
s(S'1101122222'
p335
I0
tp336
F-19.747583402434508
s(S'0222222222'
p337
I1
tp338
F-48.983107226562495
s(S'1121001222'
p339
I1
tp340
I1
s(S'2210122111'
p341
I2
tp342
F4.743598400885935
s(S'1222111102'
p343
I0
tp344
F5.0
s(S'1222000012'
p345
I1
tp346
F1.35
s(S'1222200122'
p347
I1
tp348
I1
s(S'2222011111'
p349
I2
tp350
F2.2925215706987054
s(S'1222100222'
p351
I2
tp352
I1
s(S'2210122212'
p353
I1
tp354
I1
s(S'2101122222'
p355
I2
tp356
F2.6049131124799043
s(S'1110222222'
p357
I1
tp358
F-165.22214433593751
s(S'2211022222'
p359
I2
tp360
F9.9695254211473
s(S'1012222222'
p361
I1
tp362
F-167.42303041612993
s(S'1222222222'
p363
I1
tp364
I1
s(S'0022201222'
p365
I1
tp366
F1.4725
s(S'0222220122'
p367
I1
tp368
F2.8724999999999996
s(S'1002222221'
p369
I2
tp370
F-18.317746166270183
s(S'2200022221'
p371
I2
tp372
F2.139395367746362
s(S'2011212222'
p373
I1
tp374
F-7.66031036861485
s(S'2200222210'
p375
I1
tp376
I1
s(S'2210122211'
p377
I1
tp378
F3.9127788577476696
s(S'0122222221'
p379
I1
tp380
F1.0
s(S'0122222012'
p381
I2
tp382
I1
s(S'2011112222'
p383
I1
tp384
F-8.931990324470696
s(S'2222011122'
p385
I1
tp386
F2.5442199130859375
s(S'1110222222'
p387
I0
tp388
I-200
s(S'1012222220'
p389
I2
tp390
I-200
s(S'1022222222'
p391
I1
tp392
F-5.029270457903063
s(S'1102222221'
p393
I1
tp394
F-124.625
s(S'0222201111'
p395
I0
tp396
I-200
s(S'0022222222'
p397
I2
tp398
F-29.154776851059204
s(S'0222200222'
p399
I1
tp400
F1.9391835270766844
s(S'1111022222'
p401
I2
tp402
F3.237597664812136
s(S'0211022222'
p403
I0
tp404
F7.034800505753553
s(S'0222222221'
p405
I0
tp406
F-97.5
s(S'2222201222'
p407
I1
tp408
F4.637426462344173
s(S'2220122222'
p409
I0
tp410
I5
s(S'2001222221'
p411
I2
tp412
F0.7369775361840822
s(S'1221012221'
p413
I2
tp414
F2.75
s(S'2000222221'
p415
I2
tp416
F1.35
s(S'2222101222'
p417
I0
tp418
F8.92195929333321
s(S'1200122222'
p419
I0
tp420
F5.65625
s(S'2101221222'
p421
I2
tp422
F1.8676706974541797
s(S'1012222221'
p423
I0
tp424
I-200
s(S'2222222011'
p425
I0
tp426
F5.9625
s(S'2102222220'
p427
I1
tp428
I1
s(S'1102222222'
p429
I1
tp430
F-45.991571042856016
s(S'1111012222'
p431
I1
tp432
F3.89864019506358
s(S'2210111122'
p433
I0
tp434
F6.92730002312917
s(S'2220011111'
p435
I1
tp436
F2.5086264149515944
s(S'2200222221'
p437
I1
tp438
F1.8495339427748587
s(S'2001222220'
p439
I0
tp440
F-10.312817183772486
s(S'2220012221'
p441
I1
tp442
F4.911737142066536
s(S'2201122222'
p443
I1
tp444
F4.453313510165648
s(S'0022220112'
p445
I1
tp446
I1
s(S'2101222222'
p447
I0
tp448
F-3.257706390842582
s(S'1110022222'
p449
I2
tp450
F3.366551137273529
s(S'0122222222'
p451
I0
tp452
I-200
s(S'1110002222'
p453
I1
tp454
F2.670709543589152
s(S'2222200222'
p455
I0
tp456
F6.902503065006331
s(S'2201111222'
p457
I1
tp458
F3.185040965975808
s(S'0022101222'
p459
I2
tp460
I1
s(S'2222211002'
p461
I1
tp462
F1.0
s(S'1101122222'
p463
I2
tp464
F-25.397459699483637
s(S'2222001222'
p465
I1
tp466
F3.9194463964640374
s(S'2210222212'
p467
I0
tp468
I5
s(S'2011122221'
p469
I1
tp470
F1.0
s(S'1210022222'
p471
I0
tp472
F5.437320475140471
s(S'0220122222'
p473
I2
tp474
I1
s(S'0022222001'
p475
I0
tp476
I5
s(S'2100222222'
p477
I1
tp478
F-11.97764455963672
s(S'2222111022'
p479
I2
tp480
I1
s(S'2210222220'
p481
I1
tp482
I1
s(S'2221022222'
p483
I0
tp484
F13.259809650495406
s(S'2222002221'
p485
I0
tp486
I5
s(S'2222211022'
p487
I2
tp488
I1
s(S'2222222100'
p489
I0
tp490
I5
s(S'1001222222'
p491
I1
tp492
I-200
s(S'0121011122'
p493
I2
tp494
I1
s(S'2102222222'
p495
I0
tp496
F-0.6024608302109584
s(S'2222210122'
p497
I2
tp498
I1
s(S'2101222211'
p499
I2
tp500
F3.7733399663376876
s(S'2201222212'
p501
I1
tp502
I1
s(S'2220111111'
p503
I2
tp504
F3.5483719823933404
s(S'2001222222'
p505
I2
tp506
F2.8264299074755708
s(S'2210022222'
p507
I1
tp508
F1.7669883081547688
s(S'1121012222'
p509
I0
tp510
I5
s(S'2220121111'
p511
I1
tp512
I1
s(S'2200111222'
p513
I2
tp514
F3.953638603212738
s(S'2222222220'
p515
I2
tp516
F1.644801171875
s(S'2210122222'
p517
I1
tp518
F-49.99550244411783
s(S'1110222222'
p519
I2
tp520
F3.3732188775784944
s(S'1100222222'
p521
I0
tp522
I-200
s(S'1001122222'
p523
I2
tp524
F1.525
s(S'1012222220'
p525
I0
tp526
I-200
s(S'0222100222'
p527
I2
tp528
F3.7474999999999996
s(S'1220002222'
p529
I2
tp530
F3.5501161126245893
s(S'2222000122'
p531
I2
tp532
F3.461702916416572
s(S'2101222210'
p533
I0
tp534
I5
s(S'0022222222'
p535
I0
tp536
I-200
s(S'2222211001'
p537
I0
tp538
I-200
s(S'1100022222'
p539
I1
tp540
F-99.26375
s(S'2200022222'
p541
I0
tp542
F7.5377791322048395
s(S'0110022222'
p543
I0
tp544
F5.6759274374726765
s(S'0111022222'
p545
I0
tp546
F8.028936598241241
s(S'2210222211'
p547
I1
tp548
F3.4622178496657323
s(S'2011122222'
p549
I0
tp550
F-1.9363941608030242
s(S'0222222221'
p551
I2
tp552
F-10.761410852954404
s(S'2221012211'
p553
I2
tp554
F1.35
s(S'2001222221'
p555
I0
tp556
F-17.269870546808107
s(S'0210022222'
p557
I1
tp558
F3.0736857286114816
s(S'0222001111'
p559
I1
tp560
I1
s(S'1110122222'
p561
I0
tp562
I-200
s(S'1222222220'
p563
I1
tp564
F-99.5
s(S'2201222111'
p565
I2
tp566
F3.4019860660738845
s(S'2200112222'
p567
I0
tp568
F9.882794888609533
s(S'1222222101'
p569
I0
tp570
I5
s(S'0222210112'
p571
I1
tp572
I1
s(S'1101222222'
p573
I1
tp574
F-144.71764571372
s(S'0110022222'
p575
I1
tp576
I-200
s(S'2110222221'
p577
I1
tp578
F2.412088316234396
s(S'2220022222'
p579
I2
tp580
F7.061510786528075
s(S'2222222101'
p581
I1
tp582
I1
s(S'1200222222'
p583
I2
tp584
F3.5495674414428264
s(S'2210122122'
p585
I1
tp586
I1
s(S'0122210122'
p587
I0
tp588
F5.525
s(S'1222220122'
p589
I2
tp590
F1.35
s(S'2001222220'
p591
I2
tp592
F1.6771093019929189
s(S'2222200022'
p593
I1
tp594
F1.0
s(S'2101222222'
p595
I2
tp596
F3.260778699280105
s(S'2201122111'
p597
I2
tp598
F2.5617635903592646
s(S'1222002222'
p599
I0
tp600
F8.112247580458654
s(S'0122222222'
p601
I2
tp602
F-115.73754224614063
s(S'1210222222'
p603
I2
tp604
F4.5561620482642455
s(S'2220112112'
p605
I1
tp606
I1
s(S'1222111002'
p607
I2
tp608
F2.75
s(S'2210122221'
p609
I0
tp610
F6.670250618569754
s(S'0121002222'
p611
I1
tp612
F1.8735144463176283
s(S'1101222221'
p613
I1
tp614
I1
s(S'0222101222'
p615
I2
tp616
F5.095029613242923
s(S'2110222222'
p617
I1
tp618
F-45.78643201679034
s(S'2012222222'
p619
I2
tp620
F2.021155784937518
s(S'2002222222'
p621
I0
tp622
F-7.930270714200736
s(S'2001212222'
p623
I1
tp624
I1
s(S'2222222221'
p625
I1
tp626
I1
s(S'2000122222'
p627
I1
tp628
F1.35
s(S'2221012221'
p629
I2
tp630
F5.3497007563390255
s(S'2200002222'
p631
I2
tp632
F3.5980977631295223
s(S'0222011122'
p633
I0
tp634
F6.7629513671875
s(S'2222200121'
p635
I0
tp636
I5
s(S'0121022222'
p637
I1
tp638
F3.3699867257987917
s(S'0210222222'
p639
I2
tp640
I1
s(S'1102222220'
p641
I1
tp642
F1.0
s(S'2102222222'
p643
I2
tp644
I1
s(S'1110112222'
p645
I2
tp646
F2.79375
s(S'2011222222'
p647
I0
tp648
F-6.919087779738332
s(S'0111122221'
p649
I2
tp650
I1
s(S'1011122222'
p651
I2
tp652
F-4.032667762366256
s(S'0120011222'
p653
I2
tp654
I1
s(S'2222001111'
p655
I0
tp656
F7.467168738369743
s(S'2201222221'
p657
I1
tp658
F2.75
s(S'0122210222'
p659
I0
tp660
F6.460362327789163
s(S'2220111111'
p661
I0
tp662
F-95.89817230800085
s(S'1000222222'
p663
I1
tp664
I-200
s(S'0110122222'
p665
I2
tp666
F1.35
s(S'1221012222'
p667
I0
tp668
F13.663170401825134
s(S'1221102222'
p669
I2
tp670
F1.996953125
s(S'1222220011'
p671
I2
tp672
I1
s(S'2102222211'
p673
I0
tp674
F-2.1613434809841428
s(S'2222012222'
p675
I1
tp676
F10.998385085557222
s(S'1100222222'
p677
I2
tp678
F-108.27752155910663
s(S'1210111222'
p679
I2
tp680
F3.2478327992597062
s(S'2221111022'
p681
I2
tp682
I1
s(S'1001122222'
p683
I0
tp684
F-97.325
s(S'2220122221'
p685
I1
tp686
F5.697844259048068
s(S'1102222222'
p687
I2
tp688
I-200
s(S'0222222201'
p689
I1
tp690
I-200
s(S'0122011112'
p691
I1
tp692
I1
s(S'2200001222'
p693
I1
tp694
I1
s(S'1100022222'
p695
I2
tp696
F1.67375
s(S'1200112222'
p697
I0
tp698
F6.164879416206684
s(S'1011222222'
p699
I0
tp700
I-200
s(S'0222101221'
p701
I1
tp702
I1
s(S'2210222222'
p703
I1
tp704
F2.768291980549063
s(S'1121102222'
p705
I0
tp706
I5
s(S'1220011112'
p707
I1
tp708
F4.491070346524028
s(S'1110012222'
p709
I2
tp710
F1.4375
s(S'2222222222'
p711
I1
tp712
F-99.5
s(S'2222220122'
p713
I1
tp714
F1.4597785618609003
s(S'2011212222'
p715
I2
tp716
F2.302875
s(S'1001222221'
p717
I2
tp718
F1.4936427343749998
s(S'0222101111'
p719
I0
tp720
F6.4565494461349475
s(S'2220001222'
p721
I1
tp722
F7.095890188539126
s(S'0222222222'
p723
I0
tp724
F-148.75
s(S'2220111112'
p725
I1
tp726
F2.8858719748722974
s(S'1222200011'
p727
I0
tp728
I-200
s(S'0220112222'
p729
I2
tp730
I1
s(S'2000222222'
p731
I2
tp732
F4.234411443560415
s(S'2200222222'
p733
I2
tp734
F5.131467053481478
s(S'0221002222'
p735
I0
tp736
I5
s(S'1210122221'
p737
I1
tp738
I1
s(S'2220111222'
p739
I2
tp740
F4.17709189774458
s(S'1220011122'
p741
I2
tp742
F6.147773992613835
s(S'1222000222'
p743
I0
tp744
F6.640799104349453
s(S'2222221101'
p745
I1
tp746
F1.0
s(S'2210111111'
p747
I0
tp748
F8.574601940924865
s(S'1100122222'
p749
I2
tp750
F1.8185179363665513
s(S'1220001222'
p751
I1
tp752
I1
s(S'2012222222'
p753
I0
tp754
F-33.9393771340211
s(S'1210222221'
p755
I1
tp756
F1.847449948229729
s(S'1002222221'
p757
I1
tp758
I-200
s(S'2101111222'
p759
I2
tp760
F2.1375
s(S'0222011112'
p761
I1
tp762
F2.2836825620117187
s(S'2100222221'
p763
I2
tp764
F-1.9714385235117677
s(S'1222222210'
p765
I0
tp766
I5
s(S'0111102222'
p767
I0
tp768
F7.490455078125
s(S'2011112222'
p769
I0
tp770
F1.942568580341013
s(S'2101112222'
p771
I1
tp772
F2.1418913306656946
s(S'2221011112'
p773
I1
tp774
F1.35
s(S'1022222222'
p775
I2
tp776
F-120.1995487166588
s(S'1102222221'
p777
I2
tp778
F-15.497861031604737
s(S'2222001221'
p779
I0
tp780
F6.824906701894291
s(S'1011122222'
p781
I0
tp782
F-2.5097520497638923
s(S'1211022222'
p783
I1
tp784
F0.9926943352671302
s(S'1111022222'
p785
I1
tp786
F-98.66565254592679
s(S'0110122222'
p787
I0
tp788
F-97.5
s(S'2220012222'
p789
I2
tp790
F4.354582405904656
s(S'2221012222'
p791
I0
tp792
F12.613999438265239
s(S'1222220011'
p793
I0
tp794
I-200
s(S'0222220022'
p795
I0
tp796
F5.35
s(S'0122012221'
p797
I2
tp798
I1
s(S'2222102222'
p799
I0
tp800
F8.142652204698345
s(S'0220022222'
p801
I2
tp802
I1
s(S'2221110022'
p803
I2
tp804
F1.0
s(S'2222201111'
p805
I0
tp806
F7.87964796875
s(S'0222001122'
p807
I0
tp808
F9.632255851164429
s(S'1222222221'
p809
I1
tp810
I1
s(S'2220122111'
p811
I2
tp812
I1
s(S'2220002222'
p813
I2
tp814
F4.641560517749182
s(S'1102222222'
p815
I0
tp816
F-135.86273948525726
s(S'2222101111'
p817
I1
tp818
F1.39787015625
s(S'0110022222'
p819
I2
tp820
I1
s(S'2100222222'
p821
I0
tp822
I-200
s(S'1221011122'
p823
I0
tp824
F7.551828125
s(S'1011122222'
p825
I1
tp826
F1.0
s(S'0012222222'
p827
I0
tp828
F-29.698671875000002
s(S'1011222222'
p829
I2
tp830
F-22.52092474905921
s(S'1200022222'
p831
I1
tp832
I1
s(S'1002222222'
p833
I0
tp834
F-148.75
s(S'2220011122'
p835
I2
tp836
F5.296565217936786
s(S'2220112211'
p837
I2
tp838
F1.525
s(S'0222222001'
p839
I2
tp840
I1
s(S'2200012222'
p841
I0
tp842
F10.13296849377067
s(S'0122222222'
p843
I1
tp844
F-37.97310812329437
s(S'1222012221'
p845
I1
tp846
I1
s(S'1121002222'
p847
I2
tp848
F1.35
s(S'2222011211'
p849
I2
tp850
I1
s(S'1222200222'
p851
I1
tp852
F4.128056794335438
s(S'1222111012'
p853
I1
tp854
I1
s(S'1101122222'
p855
I1
tp856
F-18.857840624999998
s(S'2200122111'
p857
I2
tp858
F3.7183217278582346
s(S'1221011112'
p859
I2
tp860
F1.8662821630859376
s(S'0222222222'
p861
I2
tp862
F-61.88036907297274
s(S'2110222222'
p863
I2
tp864
F-32.95768540416326
s(S'1220111222'
p865
I0
tp866
F7.906614849414201
s.