(dp0
(S'2201222211'
p1
I2
tp2
F2.1098616552734373
s(S'2222201222'
p3
I1
tp4
F5.571759172833802
s(S'2201222222'
p5
I2
tp6
F3.1193156249999996
s(S'2220011222'
p7
I2
tp8
F3.6773424437744144
s(S'2100222222'
p9
I2
tp10
F2.666333627075195
s(S'1110112222'
p11
I2
tp12
I1
s(S'1101222222'
p13
I0
tp14
F5.35
s(S'2222211101'
p15
I2
tp16
I1
s(S'2011222222'
p17
I0
tp18
F6.031195703125
s(S'1222000122'
p19
I0
tp20
I5
s(S'2220011112'
p21
I0
tp22
F9.806921874999999
s(S'1222011222'
p23
I2
tp24
I1
s(S'2201222221'
p25
I1
tp26
I1
s(S'1200122222'
p27
I0
tp28
F5.0
s(S'2220111111'
p29
I0
tp30
F8.866335156249999
s(S'1201222222'
p31
I2
tp32
I1
s(S'2101221222'
p33
I2
tp34
I1
s(S'1222222222'
p35
I0
tp36
I-200
s(S'1221012222'
p37
I0
tp38
F13.856725996712216
s(S'2210111112'
p39
I0
tp40
I5
s(S'1012222221'
p41
I0
tp42
I-200
s(S'1102222222'
p43
I1
tp44
F1.6247828125
s(S'0210122222'
p45
I2
tp46
F1.0
s(S'0221012222'
p47
I0
tp48
I5
s(S'1011122221'
p49
I0
tp50
I5
s(S'1111012222'
p51
I1
tp52
F3.725990099776939
s(S'2222012221'
p53
I1
tp54
F2.070224191939697
s(S'1022222222'
p55
I1
tp56
F-111.45653756223297
s(S'2222012222'
p57
I1
tp58
F8.35589280580856
s(S'2220011111'
p59
I1
tp60
F3.3625
s(S'1222210122'
p61
I0
tp62
I5
s(S'1102222222'
p63
I2
tp64
I-200
s(S'2200222221'
p65
I1
tp66
F2.648721208203124
s(S'1001122222'
p67
I0
tp68
F-97.325
s(S'2001222220'
p69
I0
tp70
I5
s(S'2220011122'
p71
I2
tp72
F4.795903125
s(S'2220012221'
p73
I1
tp74
F2.459877353662109
s(S'0222222222'
p75
I0
tp76
F-97.5
s(S'2222011111'
p77
I2
tp78
F1.0
s(S'2220122211'
p79
I0
tp80
F6.601009375
s(S'2101222222'
p81
I0
tp82
F5.0
s(S'1110022222'
p83
I2
tp84
F1.6791326516774705
s(S'2012222222'
p85
I1
tp86
F1.35
s(S'2200001222'
p87
I1
tp88
I1
s(S'0122222222'
p89
I0
tp90
I-200
s(S'2200122122'
p91
I2
tp92
I1
s(S'1200112222'
p93
I0
tp94
F5.35
s(S'2210122222'
p95
I0
tp96
F6.2581296875
s(S'2222200222'
p97
I0
tp98
F5.0
s(S'2201111222'
p99
I1
tp100
I1
s(S'2210222222'
p101
I1
tp102
F2.120888671875
s(S'1022222222'
p103
I0
tp104
F-148.509375
s(S'1222201222'
p105
I0
tp106
I5
s(S'0222201111'
p107
I1
tp108
F-99.5
s(S'2222001222'
p109
I1
tp110
F3.4417954393188603
s(S'1222011112'
p111
I2
tp112
F1.0
s(S'2210222212'
p113
I0
tp114
I5
s(S'1222101222'
p115
I2
tp116
F3.7377331278360817
s(S'1110012222'
p117
I2
tp118
I1
s(S'0220122222'
p119
I2
tp120
I1
s(S'2200122220'
p121
I2
tp122
F4.250944347835693
s(S'2200122111'
p123
I2
tp124
I1
s(S'1201112222'
p125
I1
tp126
F2.75
s(S'1001222221'
p127
I2
tp128
I1
s(S'0112222222'
p129
I2
tp130
I1
s(S'2221022222'
p131
I0
tp132
F12.957009885773836
s(S'0222201111'
p133
I2
tp134
I-200
s(S'0222101111'
p135
I0
tp136
F5.0
s(S'0222011112'
p137
I1
tp138
I1
s(S'2222211022'
p139
I2
tp140
I1
s(S'2220001222'
p141
I1
tp142
F4.394999025211245
s(S'2222101222'
p143
I0
tp144
F8.868368192372964
s(S'2222220012'
p145
I2
tp146
I1
s(S'1111022222'
p147
I0
tp148
F6.703270674713925
s(S'2200122221'
p149
I0
tp150
F6.733155177612304
s(S'1000222222'
p151
I0
tp152
I-200
s(S'1110002222'
p153
I1
tp154
I1
s(S'2000222222'
p155
I2
tp156
I1
s(S'2200222222'
p157
I2
tp158
F2.902041080505371
s(S'2222000222'
p159
I1
tp160
F2.2101960857504652
s(S'2101222211'
p161
I2
tp162
F2.18864908203125
s(S'1101222222'
p163
I2
tp164
I-200
s(S'2222210022'
p165
I0
tp166
I5
s(S'1221022222'
p167
I2
tp168
I1
s(S'2101222221'
p169
I2
tp170
F3.2230665488281245
s(S'2220111222'
p171
I2
tp172
F2.8491757812499996
s(S'1220011122'
p173
I2
tp174
F5.02696875
s(S'1222000222'
p175
I0
tp176
F5.0
s(S'1012222222'
p177
I2
tp178
F2.5708401953125
s(S'2210222221'
p179
I2
tp180
F3.6527120703125
s(S'1222220012'
p181
I1
tp182
I1
s(S'1111002222'
p183
I2
tp184
I1
s(S'1100122222'
p185
I2
tp186
F1.1725937499999999
s(S'2220022221'
p187
I1
tp188
F3.582593039807129
s(S'2222100022'
p189
I2
tp190
I1
s(S'2220111112'
p191
I1
tp192
I1
s(S'1222001222'
p193
I2
tp194
F2.988179381172576
s(S'2200111222'
p195
I2
tp196
I1
s(S'2222011122'
p197
I1
tp198
I1
s(S'2200222220'
p199
I2
tp200
I1
s(S'1110222222'
p201
I2
tp202
F-99.325
s(S'1100222222'
p203
I0
tp204
I-200
s(S'2101111222'
p205
I2
tp206
I1
s(S'1002222222'
p207
I1
tp208
F-15.97361874923553
s(S'2001112222'
p209
I2
tp210
F2.441015625
s(S'0222011111'
p211
I2
tp212
F1.6475
s(S'2222000122'
p213
I2
tp214
I1
s(S'2100222221'
p215
I2
tp216
F1.409212890625
s(S'0022222222'
p217
I0
tp218
I-200
s(S'1210122222'
p219
I0
tp220
F6.714022506353759
s(S'1220011112'
p221
I1
tp222
I1
s(S'1100022222'
p223
I1
tp224
F-99.26375
s(S'2200022222'
p225
I0
tp226
F6.044103465576171
s(S'2221011111'
p227
I1
tp228
I1
s(S'2210222211'
p229
I1
tp230
F1.9857874824218749
s(S'2011122222'
p231
I0
tp232
I5
s(S'2201112222'
p233
I0
tp234
F5.760224609375
s(S'2011112222'
p235
I0
tp236
F5.52915625
s(S'2101112222'
p237
I1
tp238
F4.30859375
s(S'2200222211'
p239
I0
tp240
F6.200086562499999
s(S'2221002222'
p241
I0
tp242
F9.347110486062405
s(S'2001222221'
p243
I0
tp244
I5
s(S'2200122222'
p245
I2
tp246
F4.918558196533203
s(S'1120112222'
p247
I0
tp248
I5
s(S'1022222222'
p249
I2
tp250
F-98.93856823923997
s(S'1222102222'
p251
I1
tp252
F2.4535492968744235
s(S'2222100222'
p253
I2
tp254
I1
s(S'1222011122'
p255
I0
tp256
F5.86296875
s(S'1102222221'
p257
I2
tp258
I1
s(S'2222001221'
p259
I0
tp260
F7.235074592692447
s(S'1011122222'
p261
I0
tp262
F5.776008873113235
s(S'1100022222'
p263
I2
tp264
I1
s(S'0222222222'
p265
I1
tp266
I1
s(S'1110122222'
p267
I0
tp268
I-200
s(S'2222002222'
p269
I2
tp270
F6.658090450506441
s(S'1111022222'
p271
I1
tp272
F-98.66565254592679
s(S'0222222221'
p273
I2
tp274
I1
s(S'2101222220'
p275
I2
tp276
F1.7374730986328122
s(S'2011122221'
p277
I1
tp278
F1.0
s(S'1222000012'
p279
I1
tp280
I1
s(S'1220112222'
p281
I1
tp282
I1
s(S'2222101221'
p283
I0
tp284
F5.0
s(S'2201122222'
p285
I1
tp286
I1
s(S'1001222222'
p287
I2
tp288
F-98.625
s(S'2200112222'
p289
I0
tp290
F10.164765087890625
s(S'2220012222'
p291
I2
tp292
F3.364248929048175
s(S'2221012222'
p293
I0
tp294
F12.466955260800066
s(S'1101222222'
p295
I1
tp296
I-200
s(S'1222220011'
p297
I0
tp298
I-200
s(S'2101122222'
p299
I2
tp300
I1
s(S'2222102222'
p301
I0
tp302
F8.365864536471538
s(S'1110222222'
p303
I1
tp304
F-99.1784375
s(S'0220022222'
p305
I2
tp306
I1
s(S'2211022222'
p307
I2
tp308
F11.130979384987349
s(S'1110122222'
p309
I2
tp310
F1.0
s(S'0122001222'
p311
I0
tp312
I5
s(S'1012222222'
p313
I1
tp314
F-32.347978395552516
s(S'2220122221'
p315
I1
tp316
F3.4234396179321287
s(S'1222220122'
p317
I2
tp318
I1
s(S'2220002222'
p319
I2
tp320
F3.656129419785729
s(S'1012222222'
p321
I0
tp322
F-28.956562499999997
s(S'1102222222'
p323
I0
tp324
F5.35
s(S'2222200022'
p325
I1
tp326
F1.0
s(S'2222101111'
p327
I1
tp328
F1.35
s(S'0011222221'
p329
I2
tp330
I1
s(S'1222002222'
p331
I0
tp332
F7.191099131739652
s(S'0122222222'
p333
I2
tp334
F-99.18229658538819
s(S'1002222221'
p335
I2
tp336
F1.9625
s(S'1210222222'
p337
I2
tp338
F1.35
s(S'0012222222'
p339
I0
tp340
I5
s(S'1011222222'
p341
I2
tp342
F2.8724999999999996
s(S'1221011112'
p343
I2
tp344
F1.515375
s(S'1100222222'
p345
I1
tp346
F-99.5
s(S'0210022222'
p347
I1
tp348
I1
s(S'1002222222'
p349
I0
tp350
F-97.5
s(S'2210122211'
p351
I1
tp352
F2.9230857119140623
s(S'2210122221'
p353
I0
tp354
F5.928197265625
s(S'0222001111'
p355
I2
tp356
F1.0875
s(S'1101122222'
p357
I0
tp358
F5.0
s(S'2200012222'
p359
I0
tp360
F10.813072070312499
s(S'0122222222'
p361
I1
tp362
F-99.13906250000001
s(S'1220111222'
p363
I0
tp364
I5
s(S'2002222222'
p365
I0
tp366
I5
s(S'1002222222'
p367
I2
tp368
F-99.5
s(S'1222200222'
p369
I1
tp370
F3.362803578869058
s(S'1221002222'
p371
I0
tp372
F9.517083002502716
s(S'1222210222'
p373
I0
tp374
I5
s(S'1100222222'
p375
I2
tp376
I1
s(S'1102222221'
p377
I1
tp378
F-99.5
s(S'1210111222'
p379
I2
tp380
I1
s(S'0221022222'
p381
I0
tp382
F10.522894640124743
s(S'0022222222'
p383
I2
tp384
F-6.326788207625578
s(S'1221011122'
p385
I0
tp386
F8.17865625
s(S'2221012221'
p387
I2
tp388
F5.61009641351783
s(S'2200002222'
p389
I2
tp390
F2.0058037499999997
s(S'0222222222'
p391
I2
tp392
I1
s(S'1110122222'
p393
I1
tp394
F1.58625
s(S'2110222222'
p395
I2
tp396
F3.072109375
s(S'1111022222'
p397
I2
tp398
F2.0696874999999997
s(S'0222011122'
p399
I0
tp400
I5
s(S'2222221101'
p401
I1
tp402
F1.0
s(S'0121022222'
p403
I1
tp404
I1
s.