(dp0
(S'2200011210'
p1
I2
tp2
I1
s(S'2000122221'
p3
I1
tp4
I1
s(S'2222220111'
p5
I1
tp6
F4.716533051016597
s(S'0011222220'
p7
I2
tp8
I1
s(S'2220001111'
p9
I0
tp10
F5.0
s(S'2222012222'
p11
I2
tp12
F8.301445589022782
s(S'1222222221'
p13
I2
tp14
I1
s(S'2001111221'
p15
I1
tp16
I1
s(S'2000222221'
p17
I1
tp18
I1
s(S'2222210111'
p19
I0
tp20
F-97.325
s(S'2222210121'
p21
I1
tp22
F1.35
s(S'0012222220'
p23
I2
tp24
F-99.5
s(S'0111222220'
p25
I1
tp26
F1.0
s(S'2220011111'
p27
I1
tp28
F3.3099999999999996
s(S'0112222220'
p29
I1
tp30
F1.0
s(S'2200001221'
p31
I1
tp32
I1
s(S'0122222210'
p33
I1
tp34
I1
s(S'2222220112'
p35
I1
tp36
F3.2406920669044434
s(S'2220001221'
p37
I0
tp38
I5
s(S'1122222210'
p39
I2
tp40
I-200
s(S'2222220122'
p41
I2
tp42
F1.0
s(S'1112222220'
p43
I1
tp44
I1
s(S'2220012221'
p45
I0
tp46
I5
s(S'2222201111'
p47
I1
tp48
F2.8455300304044298
s(S'1222222011'
p49
I0
tp50
I-200
s(S'2001122210'
p51
I0
tp52
F5.35
s(S'2222220111'
p53
I0
tp54
F-97.5
s(S'0112222210'
p55
I0
tp56
I5
s(S'2222001111'
p57
I1
tp58
F1.607260219728171
s(S'2222101222'
p59
I0
tp60
F10.567916168733618
s(S'2000122210'
p61
I2
tp62
F1.0
s(S'2222200121'
p63
I2
tp64
I1
s(S'2012221222'
p65
I1
tp66
I1
s(S'1222220122'
p67
I0
tp68
F5.0
s(S'1112222210'
p69
I2
tp70
I1
s(S'2222200111'
p71
I2
tp72
I-200
s(S'2201111221'
p73
I0
tp74
I5
s(S'2222210111'
p75
I1
tp76
F2.8064968655428872
s(S'2222200122'
p77
I0
tp78
F6.296894264524052
s(S'1122222200'
p79
I1
tp80
I-200
s(S'2222201221'
p81
I2
tp82
I1
s(S'2222200111'
p83
I1
tp84
F2.54490231086141
s(S'2200122210'
p85
I1
tp86
F1.525
s(S'2001211221'
p87
I0
tp88
I5
s(S'0011122221'
p89
I1
tp90
F1.35
s(S'1222210122'
p91
I2
tp92
I1
s(S'1112222220'
p93
I0
tp94
I-200
s(S'2222001221'
p95
I2
tp96
F2.3722637396519484
s(S'2200012221'
p97
I1
tp98
F1.63
s(S'2222201111'
p99
I2
tp100
F-99.07156653063477
s(S'2222221011'
p101
I2
tp102
I1
s(S'1222220012'
p103
I1
tp104
I1
s(S'0122222221'
p105
I0
tp106
F5.0
s(S'2222011221'
p107
I2
tp108
I1
s(S'2001112221'
p109
I1
tp110
F2.75
s(S'2222200222'
p111
I2
tp112
F5.2328618491276915
s(S'2200122220'
p113
I1
tp114
I1
s(S'2222221012'
p115
I1
tp116
I1
s(S'0011222210'
p117
I1
tp118
I1
s(S'2220012210'
p119
I0
tp120
F5.58625
s(S'0222222222'
p121
I1
tp122
I1
s(S'2222101222'
p123
I2
tp124
F-99.2375
s(S'0111222210'
p125
I0
tp126
I5
s(S'2200111221'
p127
I0
tp128
I5
s(S'2222101221'
p129
I0
tp130
I5
s(S'2200112210'
p131
I2
tp132
I1
s(S'2222201222'
p133
I2
tp134
F6.513020014493548
s(S'2220011211'
p135
I0
tp136
I5
s(S'2222220111'
p137
I2
tp138
F-99.5
s(S'2222220011'
p139
I2
tp140
I-200
s(S'2222102222'
p141
I0
tp142
F12.151260471520482
s(S'0012222220'
p143
I0
tp144
I-200
s(S'2000122220'
p145
I1
tp146
F1.35
s(S'2222220012'
p147
I0
tp148
I-200
s(S'2222001211'
p149
I0
tp150
I5
s(S'1012222221'
p151
I1
tp152
I1
s(S'2220012211'
p153
I2
tp154
I1
s(S'2222210122'
p155
I0
tp156
F8.065688241840562
s(S'2200012211'
p157
I1
tp158
I1
s(S'2222210222'
p159
I2
tp160
I1
s(S'1222220112'
p161
I0
tp162
I5
s(S'0002222220'
p163
I1
tp164
F1.525
s(S'2011112221'
p165
I2
tp166
I1
s(S'2001222220'
p167
I1
tp168
F1.35
s(S'2000222220'
p169
I0
tp170
F5.35
s(S'0011222222'
p171
I1
tp172
I-200
s(S'2222002222'
p173
I0
tp174
F13.392695600946986
s(S'2200022221'
p175
I1
tp176
I1
s(S'0002222210'
p177
I2
tp178
F1.4725
s(S'2222201121'
p179
I2
tp180
F3.071981339525238
s(S'2222201111'
p181
I0
tp182
F-93.30065804989952
s(S'2220011210'
p183
I1
tp184
I1
s(S'2222210112'
p185
I2
tp186
I1
s(S'2222001121'
p187
I2
tp188
F1.0
s(S'2222011211'
p189
I2
tp190
I1
s.