(dp0
(S'2201222222'
p1
I2
tp2
F1.0
s(S'2221002222'
p3
I2
tp4
F4.681889386744476
s(S'1101222222'
p5
I0
tp6
I-200
s(S'2222220111'
p7
I1
tp8
F1.8049996901713632
s(S'0222220011'
p9
I0
tp10
I-200
s(S'2222101222'
p11
I0
tp12
F11.43806838664557
s(S'2101222111'
p13
I0
tp14
F6.75
s(S'1012222221'
p15
I0
tp16
I-200
s(S'1022222211'
p17
I0
tp18
I-200
s(S'2222220011'
p19
I0
tp20
I-200
s(S'2102222211'
p21
I0
tp22
I5
s(S'2222012222'
p23
I1
tp24
F4.023301540822786
s(S'0111222220'
p25
I1
tp26
F1.0
s(S'2200111111'
p27
I1
tp28
F2.5318892329296236
s(S'2220011111'
p29
I1
tp30
F1.7633334372070313
s(S'2220001222'
p31
I1
tp32
F1.35
s(S'2220002222'
p33
I0
tp34
F9.49730859375
s(S'1210122122'
p35
I0
tp36
I5
s(S'2222001222'
p37
I2
tp38
F3.5986032752242325
s(S'2222002222'
p39
I1
tp40
F3.666103061957913
s(S'2222220112'
p41
I1
tp42
F1.9305625
s(S'0222220012'
p43
I1
tp44
I1
s(S'0222220001'
p45
I0
tp46
I-200
s(S'0011222221'
p47
I0
tp48
I5
s(S'0122222222'
p49
I0
tp50
I-200
s(S'2220000111'
p51
I1
tp52
F1.221703125
s(S'2222200222'
p53
I0
tp54
F6.237254991895925
s(S'2200122111'
p55
I1
tp56
F2.75
s(S'2222201111'
p57
I1
tp58
I1
s(S'2201122111'
p59
I0
tp60
I5
s(S'1011112210'
p61
I2
tp62
I1
s(S'0222222001'
p63
I0
tp64
I-200
s(S'2011122221'
p65
I1
tp66
F1.0
s(S'1110222221'
p67
I0
tp68
I5
s(S'2200122222'
p69
I1
tp70
I1
s(S'2201112222'
p71
I1
tp72
F1.35
s(S'2201222111'
p73
I0
tp74
I5
s(S'2222201222'
p75
I0
tp76
F7.757565618228077
s(S'2222000121'
p77
I0
tp78
I5
s(S'0022222222'
p79
I1
tp80
F-99.5
s(S'2222220122'
p81
I1
tp82
F1.53375
s(S'2002222211'
p83
I1
tp84
F1.690375
s(S'2221012222'
p85
I2
tp86
F5.993052382481023
s(S'2222001111'
p87
I0
tp88
F5.532938182884651
s(S'1222200012'
p89
I2
tp90
F1.35
s(S'2222000111'
p91
I1
tp92
F3.0483432303768385
s(S'1222222220'
p93
I2
tp94
I1
s(S'2102222111'
p95
I0
tp96
F5.4725
s(S'2200222222'
p97
I2
tp98
F1.35
s(S'2210222221'
p99
I1
tp100
I1
s(S'1112222210'
p101
I2
tp102
I1
s(S'2222210122'
p103
I2
tp104
F2.0884997831199543
s(S'1101222222'
p105
I2
tp106
I1
s(S'2222210111'
p107
I1
tp108
F1.8639115955095056
s(S'0222220011'
p109
I2
tp110
F1.0
s(S'1012222222'
p111
I0
tp112
I5
s(S'2222200112'
p113
I1
tp114
F2.117680405290509
s(S'2222001211'
p115
I1
tp116
I1
s(S'2222200111'
p117
I1
tp118
F1.9675606393304692
s(S'1210222222'
p119
I1
tp120
F1.0
s(S'0022222111'
p121
I2
tp122
I1
s(S'0011122210'
p123
I1
tp124
I1
s(S'1100222222'
p125
I0
tp126
I-200
s(S'2201111222'
p127
I2
tp128
I1
s(S'2001112222'
p129
I2
tp130
F1.0
s(S'2011112221'
p131
I1
tp132
I1
s(S'2222000122'
p133
I2
tp134
F1.69413951582185
s(S'2222201111'
p135
I2
tp136
F-98.82242608731667
s(S'1210122222'
p137
I0
tp138
I5
s(S'1012222211'
p139
I1
tp140
F1.23625
s(S'2220001221'
p141
I2
tp142
I1
s(S'2001112211'
p143
I1
tp144
I1
s(S'0011122220'
p145
I2
tp146
I1
s(S'2001112221'
p147
I1
tp148
I1
s(S'1102222221'
p149
I2
tp150
I1
s(S'1222220012'
p151
I2
tp152
F1.6124999999999998
s(S'0111122210'
p153
I0
tp154
I5
s(S'2220001111'
p155
I2
tp156
F1.7665324487637868
s(S'2001111111'
p157
I1
tp158
I1
s(S'1012222221'
p159
I2
tp160
I-200
s(S'2200112222'
p161
I0
tp162
F6.596875000000001
s(S'2220012222'
p163
I2
tp164
F4.066918257509846
s(S'1022222211'
p165
I2
tp166
F1.0875
s(S'2222200012'
p167
I1
tp168
F1.6069557977547526
s(S'1222220011'
p169
I0
tp170
I-200
s(S'2101122222'
p171
I2
tp172
I1
s(S'2222102222'
p173
I0
tp174
F12.37059824210819
s(S'2222001111'
p175
I2
tp176
F-99.0678674939917
s(S'0122222220'
p177
I0
tp178
I5
s(S'2201122222'
p179
I2
tp180
I1
s(S'2001222222'
p181
I1
tp182
I1
s(S'1022222221'
p183
I0
tp184
I-200
s(S'2101111111'
p185
I2
tp186
I1
s(S'2222200111'
p187
I0
tp188
I-200
s(S'2101222222'
p189
I2
tp190
F1.35
s(S'0122222222'
p191
I2
tp192
F1.79625
s(S'2222200122'
p193
I2
tp194
F2.315341084229713
s(S'2200111222'
p195
I1
tp196
F1.35
s(S'2201222211'
p197
I1
tp198
I1
s(S'2101222221'
p199
I0
tp200
I5
s(S'2200012221'
p201
I2
tp202
F1.35
s(S'2201111111'
p203
I2
tp204
F2.0669765165670273
s(S'0222222001'
p205
I2
tp206
I-200
s(S'2101112222'
p207
I0
tp208
I5
s(S'0222220001'
p209
I1
tp210
I-200
s(S'0111222221'
p211
I0
tp212
I5
s(S'2220110111'
p213
I0
tp214
I5
s(S'2222001221'
p215
I0
tp216
F5.875
s(S'1022222222'
p217
I1
tp218
F-99.325
s(S'0222222001'
p219
I1
tp220
I-200
s(S'2222210112'
p221
I2
tp222
I1
s(S'0222222222'
p223
I2
tp224
I1
s(S'2222011211'
p225
I2
tp226
I1
s.