(dp0
(S'2200122210'
p1
I1
tp2
I1
s(S'2222200222'
p3
I2
tp4
I1
s(S'0012222220'
p5
I0
tp6
I-200
s(S'2222201111'
p7
I0
tp8
F9.410801064960937
s(S'2222220012'
p9
I0
tp10
I-200
s(S'2000222220'
p11
I0
tp12
I5
s(S'1222210122'
p13
I2
tp14
I1
s(S'2222220111'
p15
I1
tp16
F1.68894328125
s(S'1222222011'
p17
I0
tp18
I-200
s(S'2220012211'
p19
I2
tp20
I1
s(S'2222210122'
p21
I0
tp22
F8.588528016031738
s(S'2200012211'
p23
I1
tp24
I1
s(S'2222101222'
p25
I0
tp26
F9.708899266085732
s(S'0122222210'
p27
I1
tp28
I1
s(S'2222012222'
p29
I2
tp30
F7.7264963293555216
s(S'2200012221'
p31
I1
tp32
I1
s(S'2222201111'
p33
I2
tp34
F-99.07156653063477
s(S'2222221011'
p35
I2
tp36
I1
s(S'1222220012'
p37
I1
tp38
I1
s(S'0002222220'
p39
I1
tp40
F1.0
s(S'2222220111'
p41
I0
tp42
F-97.5
s(S'2222210111'
p43
I1
tp44
F1.4664791956254883
s(S'0112222210'
p45
I0
tp46
I5
s(S'2220012210'
p47
I0
tp48
I5
s(S'2222001111'
p49
I1
tp50
F1.525
s(S'2000122210'
p51
I2
tp52
I1
s(S'2222210111'
p53
I0
tp54
F-97.325
s(S'2222210121'
p55
I1
tp56
F1.35
s(S'2222221012'
p57
I1
tp58
I1
s(S'0011222210'
p59
I1
tp60
I1
s(S'1222220112'
p61
I0
tp62
I5
s(S'2222002222'
p63
I0
tp64
F9.45698064526367
s(S'1222220122'
p65
I0
tp66
F5.0
s(S'2220011111'
p67
I1
tp68
F1.0
s(S'2200112210'
p69
I2
tp70
I1
s(S'2222200111'
p71
I2
tp72
I-200
s(S'2200022221'
p73
I1
tp74
I1
s(S'0112222220'
p75
I1
tp76
I1
s(S'2222101222'
p77
I2
tp78
F-99.2375
s(S'0002222210'
p79
I2
tp80
I1
s(S'2220012221'
p81
I0
tp82
I5
s(S'2222201121'
p83
I2
tp84
F1.6765354369378418
s(S'2222210222'
p85
I2
tp86
I1
s(S'2222220112'
p87
I1
tp88
F2.8724656613598634
s(S'2222201222'
p89
I2
tp90
F4.962768804377441
s(S'2000122220'
p91
I1
tp92
F1.35
s(S'2220011210'
p93
I1
tp94
I1
s(S'2222220111'
p95
I2
tp96
F-99.5
s(S'2222220011'
p97
I2
tp98
I-200
s(S'2222102222'
p99
I0
tp100
F10.772864942895996
s(S'2001222220'
p101
I1
tp102
F1.0
s(S'2222220122'
p103
I2
tp104
F1.0
s(S'2222200111'
p105
I1
tp106
F2.515355316015625
s.