(dp0
(S'2201222211'
p1
I2
tp2
I1
s(S'2210222222'
p3
I1
tp4
F2.75
s(S'1022222222'
p5
I0
tp6
I5
s(S'2211022222'
p7
I2
tp8
F7.873968784251494
s(S'2222201222'
p9
I1
tp10
F1.7502643218164062
s(S'2201222222'
p11
I2
tp12
F1.0
s(S'2220011222'
p13
I2
tp14
F1.0
s(S'2222001222'
p15
I1
tp16
F2.768330681521273
s(S'1012222222'
p17
I1
tp18
F1.0
s(S'1222001222'
p19
I2
tp20
I1
s(S'1222101222'
p21
I2
tp22
F2.68931267421875
s(S'2220002222'
p23
I2
tp24
F3.0362001223126067
s(S'1110222222'
p25
I2
tp26
F1.35
s(S'1110122222'
p27
I0
tp28
I-200
s(S'2210122222'
p29
I0
tp30
I5
s(S'0012222222'
p31
I0
tp32
I5
s(S'2101111222'
p33
I2
tp34
I1
s(S'2001112222'
p35
I2
tp36
F1.0
s(S'2220011112'
p37
I0
tp38
I5
s(S'2210222211'
p39
I1
tp40
I1
s(S'1222002222'
p41
I0
tp42
I5
s(S'0022222222'
p43
I0
tp44
I-200
s(S'1210122222'
p45
I0
tp46
F5.0
s(S'2210222212'
p47
I0
tp48
I5
s(S'1002222221'
p49
I2
tp50
I1
s(S'2210122211'
p51
I1
tp52
I1
s(S'2221022222'
p53
I0
tp54
F10.876875786696152
s(S'2110222222'
p55
I2
tp56
I1
s(S'1221012222'
p57
I0
tp58
F12.895203399542268
s(S'1012222221'
p59
I0
tp60
I-200
s(S'1222011122'
p61
I0
tp62
I5
s(S'2220001222'
p63
I1
tp64
F4.3986102123503485
s(S'2201112222'
p65
I0
tp66
F5.0
s(S'2222101222'
p67
I0
tp68
F6.070568181311711
s(S'2101112222'
p69
I1
tp70
I1
s(S'2221002222'
p71
I0
tp72
F6.829372876690879
s(S'2011112222'
p73
I0
tp74
I5
s(S'2200122222'
p75
I2
tp76
I1
s(S'2100222222'
p77
I2
tp78
I1
s(S'2222012222'
p79
I1
tp80
F7.017170845854919
s(S'2200012222'
p81
I0
tp82
F6.75
s(S'2220011111'
p83
I1
tp84
I1
s(S'0122222222'
p85
I1
tp86
I1
s(S'2222000222'
p87
I1
tp88
I1
s(S'2200222221'
p89
I1
tp90
I1
s(S'2101222211'
p91
I2
tp92
F1.0
s(S'2002222222'
p93
I0
tp94
I5
s(S'1222200222'
p95
I1
tp96
F3.9669015195312496
s(S'2222002222'
p97
I2
tp98
F2.614651951226926
s(S'2220011122'
p99
I2
tp100
I1
s(S'1221002222'
p101
I0
tp102
F6.504759375
s(S'0222222222'
p103
I0
tp104
F-97.5
s(S'1102222221'
p105
I1
tp106
F1.0
s(S'2101222221'
p107
I2
tp108
F1.35
s(S'2101222222'
p109
I0
tp110
F5.0
s(S'2200112222'
p111
I0
tp112
F6.61875
s(S'2220012222'
p113
I2
tp114
F1.6368331303222656
s(S'2221012222'
p115
I0
tp116
F10.692061569988187
s(S'2200122122'
p117
I2
tp118
I1
s(S'1110122222'
p119
I1
tp120
F1.4725
s(S'2220111111'
p121
I0
tp122
I5
s(S'2101122222'
p123
I2
tp124
I1
s(S'2210222221'
p125
I2
tp126
F2.75
s(S'2201111222'
p127
I1
tp128
I1
s.