(dp0
(S'2201222211'
p1
I2
tp2
F3.755271275589913
s(S'2220111122'
p3
I0
tp4
F6.5872433521771825
s(S'1222000122'
p5
I0
tp6
F5.35
s(S'2201222222'
p7
I2
tp8
F3.143021586771529
s(S'2001122222'
p9
I0
tp10
F5.175
s(S'2100222222'
p11
I2
tp12
F3.621279878687707
s(S'2222211101'
p13
I2
tp14
I1
s(S'2220011112'
p15
I0
tp16
F7.662184103602338
s(S'1012222222'
p17
I2
tp18
F-126.28614134461885
s(S'1201222222'
p19
I2
tp20
F1.4675398207825248
s(S'1001222222'
p21
I0
tp22
F-99.65575997418019
s(S'1222222222'
p23
I0
tp24
I-200
s(S'2101222220'
p25
I2
tp26
F1.27718814672466
s(S'1011122221'
p27
I0
tp28
I5
s(S'1222210122'
p29
I0
tp30
F5.525
s(S'0222210222'
p31
I1
tp32
F5.454714753936648
s(S'2011112222'
p33
I2
tp34
F2.1102179906052223
s(S'2210122222'
p35
I0
tp36
F-1.5900655172774174
s(S'0121012212'
p37
I1
tp38
I1
s(S'1022222222'
p39
I0
tp40
F-148.509375
s(S'1102222221'
p41
I0
tp42
I-200
s(S'1222201222'
p43
I0
tp44
F8.047552962999344
s(S'0222201111'
p45
I1
tp46
F-49.25
s(S'0111002222'
p47
I2
tp48
F4.79341484375
s(S'1222101222'
p49
I2
tp50
F5.3687639777363305
s(S'1122001222'
p51
I1
tp52
F3.7937280814663015
s(S'2011122222'
p53
I1
tp54
I1
s(S'2201222220'
p55
I0
tp56
I5
s(S'2200122220'
p57
I2
tp58
F5.088552824239908
s(S'1120002222'
p59
I0
tp60
F5.35
s(S'0112222222'
p61
I2
tp62
I1
s(S'0122011122'
p63
I2
tp64
I1
s(S'0122101111'
p65
I0
tp66
I5
s(S'0122200222'
p67
I0
tp68
I5
s(S'1110122222'
p69
I2
tp70
F3.991462656923894
s(S'2222220012'
p71
I2
tp72
F1.0
s(S'1222222220'
p73
I2
tp74
I1
s(S'2200122112'
p75
I0
tp76
I5
s(S'1101222222'
p77
I2
tp78
I-200
s(S'1221011111'
p79
I2
tp80
I1
s(S'1222011111'
p81
I1
tp82
F2.242517367174873
s(S'1222222221'
p83
I2
tp84
F-32.7827109375
s(S'1012222210'
p85
I2
tp86
I1
s(S'0012222222'
p87
I2
tp88
I1
s(S'1002222211'
p89
I2
tp90
I1
s(S'1002222222'
p91
I2
tp92
F-35.01777801819514
s(S'1122002222'
p93
I0
tp94
I5
s(S'2221000222'
p95
I0
tp96
F6.225
s(S'2210222221'
p97
I2
tp98
F3.8575472876330927
s(S'2222200111'
p99
I1
tp100
F2.8724999999999996
s(S'2101222222'
p101
I1
tp102
F1.0
s(S'2102222221'
p103
I1
tp104
I1
s(S'2110122222'
p105
I2
tp106
I1
s(S'0111012222'
p107
I2
tp108
F3.9827820312499997
s(S'1221111022'
p109
I2
tp110
I1
s(S'2222222210'
p111
I2
tp112
F1.0
s(S'1101112222'
p113
I1
tp114
I1
s(S'2110222222'
p115
I0
tp116
F-20.556530839185317
s(S'0222201222'
p117
I2
tp118
I1
s(S'1210022222'
p119
I1
tp120
F-1.8076079392407491
s(S'0121102222'
p121
I0
tp122
F7.162046608306738
s(S'0022011122'
p123
I1
tp124
I1
s(S'2200222211'
p125
I0
tp126
F7.376801762839194
s(S'2221002222'
p127
I0
tp128
F7.825841892495867
s(S'2200122222'
p129
I2
tp130
F2.945682512160341
s(S'1120112222'
p131
I0
tp132
F5.35
s(S'2222100222'
p133
I2
tp134
I1
s(S'0222210122'
p135
I2
tp136
F1.0
s(S'0210122222'
p137
I2
tp138
F5.983100489304988
s(S'2222101221'
p139
I0
tp140
F7.532276107442357
s(S'2001222222'
p141
I1
tp142
F-3.9065199483603648
s(S'1001222222'
p143
I2
tp144
F-40.93835110652648
s(S'1222222222'
p145
I2
tp146
I-200
s(S'0122101222'
p147
I1
tp148
F1.4878125
s(S'0222222101'
p149
I2
tp150
I-200
s(S'1100112222'
p151
I1
tp152
F-2.711776461480654
s(S'0122001222'
p153
I0
tp154
F6.75
s(S'1002222220'
p155
I0
tp156
I-200
s(S'1222102222'
p157
I1
tp158
F6.763344744713398
s(S'1000222222'
p159
I2
tp160
F-33.61979609375
s(S'2222200112'
p161
I2
tp162
F1.0
s(S'1012222222'
p163
I0
tp164
F-160.97193095988695
s(S'1222211100'
p165
I1
tp166
I1
s(S'0122002221'
p167
I0
tp168
I5
s(S'0011222221'
p169
I2
tp170
I1
s(S'0110011222'
p171
I1
tp172
I1
s(S'2210122222'
p173
I2
tp174
F2.700304593415281
s(S'2210111112'
p175
I0
tp176
I5
s(S'1100222222'
p177
I1
tp178
F-149.75
s(S'1001122222'
p179
I1
tp180
F0.46324589325140075
s(S'2220122211'
p181
I0
tp182
F7.215288744347671
s(S'0022222222'
p183
I1
tp184
F-35.7582251171875
s(S'2222011221'
p185
I1
tp186
F4.119538581624706
s(S'1011222222'
p187
I1
tp188
I-200
s(S'0122100222'
p189
I0
tp190
I5
s(S'1222210222'
p191
I0
tp192
F6.75
s(S'0222222001'
p193
I1
tp194
I-200
s(S'0221012212'
p195
I2
tp196
I1
s(S'0222001111'
p197
I2
tp198
F-32.93906249999999
s(S'1110122222'
p199
I1
tp200
F-101.42581514655073
s(S'2222210022'
p201
I0
tp202
I5
s(S'2220011222'
p203
I2
tp204
F4.4331231088826275
s(S'1101222222'
p205
I0
tp206
F-33.67552004797242
s(S'1222011222'
p207
I2
tp208
F3.735752932971361
s(S'0222102222'
p209
I2
tp210
I1
s(S'0222011111'
p211
I2
tp212
F4.043897112294463
s(S'2200111111'
p213
I0
tp214
I5
s(S'2222222221'
p215
I2
tp216
I-200
s(S'0221012222'
p217
I0
tp218
I5
s(S'2222012221'
p219
I1
tp220
F4.401520376768291
s(S'2222200122'
p221
I1
tp222
F3.7342578910779003
s(S'0222221012'
p223
I2
tp224
I1
s(S'1220012222'
p225
I2
tp226
I1
s(S'1220111122'
p227
I0
tp228
F5.0
s(S'0222012222'
p229
I2
tp230
I1
s(S'2012222222'
p231
I1
tp232
F-8.476512242867813
s(S'1002222221'
p233
I0
tp234
I-200
s(S'2200122122'
p235
I2
tp236
I1
s(S'2002222222'
p237
I1
tp238
F-35.07787998709009
s(S'1221002222'
p239
I0
tp240
F10.798437365160861
s(S'2222002222'
p241
I2
tp242
F3.905467040141067
s(S'1201112222'
p243
I1
tp244
F-0.44462030636277117
s(S'2220012210'
p245
I0
tp246
I5
s(S'0222201111'
p247
I2
tp248
I-200
s(S'0222012221'
p249
I0
tp250
F6.828580327449733
s(S'1111022222'
p251
I0
tp252
F-94.0068152178943
s(S'1220112122'
p253
I1
tp254
I1
s(S'2220111111'
p255
I1
tp256
F4.616781252075368
s(S'2200122221'
p257
I0
tp258
F6.81824603012808
s(S'1000222222'
p259
I0
tp260
I-200
s(S'2101121222'
p261
I0
tp262
I5
s(S'0110122222'
p263
I1
tp264
I-200
s(S'2222000222'
p265
I1
tp266
F3.3550980428752326
s(S'1221022222'
p267
I2
tp268
F7.514562383229734
s(S'2101222221'
p269
I2
tp270
F3.142571132741309
s(S'1222222221'
p271
I0
tp272
I-200
s(S'1210122222'
p273
I0
tp274
F6.451686209207828
s(S'0120111222'
p275
I2
tp276
I1
s(S'1111002222'
p277
I2
tp278
F1.175
s(S'2220022221'
p279
I1
tp280
F5.348078196471573
s(S'2222100022'
p281
I2
tp282
I1
s(S'1222001222'
p283
I2
tp284
F4.446051067580024
s(S'0012222222'
p285
I1
tp286
F-6.005967773437501
s(S'2200222220'
p287
I2
tp288
F2.599764335971607
s(S'1220011222'
p289
I0
tp290
F8.184999999999999
s(S'1002222222'
p291
I1
tp292
F-84.43675916519453
s(S'2001112222'
p293
I2
tp294
F3.3494946848766034
s(S'2222200011'
p295
I0
tp296
I-200
s(S'1222220012'
p297
I1
tp298
F1.67184499330263
s(S'0222222011'
p299
I0
tp300
I-200
s(S'0221022222'
p301
I0
tp302
F6.903056072027543
s(S'2221011111'
p303
I1
tp304
F2.2483043261718745
s(S'1222011122'
p305
I0
tp306
F9.512846650740045
s(S'2201112222'
p307
I0
tp308
F5.976504197825826
s(S'1220112222'
p309
I1
tp310
F3.059074361914062
s(S'0222221022'
p311
I2
tp312
I1
s(S'2210122220'
p313
I1
tp314
F1.35
s(S'1222011112'
p315
I2
tp316
F2.2918067172363283
s(S'1101122222'
p317
I0
tp318
F-19.747583402434508
s(S'0222222222'
p319
I1
tp320
F-98.96621445312499
s(S'1121001222'
p321
I1
tp322
I1
s(S'2210122111'
p323
I2
tp324
F3.436494680728501
s(S'1222111102'
p325
I0
tp326
F5.0
s(S'1222000012'
p327
I1
tp328
F1.35
s(S'1222200122'
p329
I1
tp330
I1
s(S'2222011111'
p331
I2
tp332
F2.015280984375
s(S'2210122212'
p333
I1
tp334
I1
s(S'2101122222'
p335
I2
tp336
F2.6049131124799043
s(S'1110222222'
p337
I1
tp338
F-165.22214433593751
s(S'2211022222'
p339
I2
tp340
F10.809609107441574
s(S'1012222222'
p341
I1
tp342
F-167.42303041612993
s(S'0022201222'
p343
I1
tp344
F1.4725
s(S'0222220122'
p345
I1
tp346
F2.8724999999999996
s(S'1002222221'
p347
I2
tp348
F-18.317746166270183
s(S'2200022221'
p349
I2
tp350
F2.139395367746362
s(S'2011212222'
p351
I1
tp352
F-7.66031036861485
s(S'2200222210'
p353
I1
tp354
I1
s(S'2210122211'
p355
I1
tp356
F4.1968678225824
s(S'0122222221'
p357
I1
tp358
F1.0
s(S'0122222012'
p359
I2
tp360
I1
s(S'2011112222'
p361
I1
tp362
F-8.931990324470696
s(S'2222011122'
p363
I1
tp364
F2.5442199130859375
s(S'1110222222'
p365
I0
tp366
I-200
s(S'1012222220'
p367
I2
tp368
I-200
s(S'1022222222'
p369
I1
tp370
F-11.77004494412644
s(S'1102222221'
p371
I1
tp372
F-124.625
s(S'0222201111'
p373
I0
tp374
I-200
s(S'0022222222'
p375
I2
tp376
F-29.154776851059204
s(S'0222200222'
p377
I1
tp378
F1.9391835270766844
s(S'1111022222'
p379
I2
tp380
F2.9637681074008944
s(S'0211022222'
p381
I0
tp382
I5
s(S'0222222221'
p383
I0
tp384
F-97.5
s(S'2222201222'
p385
I1
tp386
F5.665357009577203
s(S'2220122222'
p387
I0
tp388
I5
s(S'2001222221'
p389
I2
tp390
F0.7369775361840822
s(S'1221012221'
p391
I2
tp392
F2.75
s(S'2000222221'
p393
I2
tp394
F1.35
s(S'2222101222'
p395
I0
tp396
F8.236831109924754
s(S'1200122222'
p397
I0
tp398
F5.65625
s(S'2101221222'
p399
I2
tp400
I1
s(S'1012222221'
p401
I0
tp402
I-200
s(S'2102222220'
p403
I1
tp404
I1
s(S'1102222222'
p405
I1
tp406
F-45.991571042856016
s(S'1111012222'
p407
I1
tp408
F3.89864019506358
s(S'2210111122'
p409
I0
tp410
F6.92730002312917
s(S'2220011111'
p411
I1
tp412
F3.3737706902544815
s(S'2200222221'
p413
I1
tp414
F1.8495339427748587
s(S'2001222220'
p415
I0
tp416
F-10.312817183772486
s(S'2220012221'
p417
I1
tp418
F4.911737142066536
s(S'2201122222'
p419
I1
tp420
F4.453313510165648
s(S'0022220112'
p421
I1
tp422
I1
s(S'2101222222'
p423
I0
tp424
F-3.257706390842582
s(S'1110022222'
p425
I2
tp426
F3.6584645993664315
s(S'0122222222'
p427
I0
tp428
I-200
s(S'1110002222'
p429
I1
tp430
F2.670709543589152
s(S'2222200222'
p431
I0
tp432
F6.4564375
s(S'2201111222'
p433
I1
tp434
F3.300581225692424
s(S'0022101222'
p435
I2
tp436
I1
s(S'1101122222'
p437
I2
tp438
F-25.397459699483637
s(S'2222001222'
p439
I1
tp440
F4.05348201132954
s(S'2210222212'
p441
I0
tp442
I5
s(S'2011122221'
p443
I1
tp444
F1.0
s(S'1210022222'
p445
I0
tp446
F3.3137157307244385
s(S'0220122222'
p447
I2
tp448
I1
s(S'0022222001'
p449
I0
tp450
I5
s(S'2100222222'
p451
I1
tp452
F-11.97764455963672
s(S'2221022222'
p453
I0
tp454
F13.060906116822384
s(S'2222002221'
p455
I0
tp456
I5
s(S'2222211022'
p457
I2
tp458
I1
s(S'2222222100'
p459
I0
tp460
I5
s(S'1001222222'
p461
I1
tp462
I-200
s(S'0121011122'
p463
I2
tp464
I1
s(S'2102222222'
p465
I0
tp466
F-0.6024608302109584
s(S'2222210122'
p467
I2
tp468
I1
s(S'2101222211'
p469
I2
tp470
F4.141035896056363
s(S'2201222212'
p471
I1
tp472
I1
s(S'2220111111'
p473
I2
tp474
F2.0680630283203123
s(S'2001222222'
p475
I2
tp476
F2.1156249999999996
s(S'2210022222'
p477
I1
tp478
F1.7669883081547688
s(S'1121012222'
p479
I0
tp480
I5
s(S'2200111222'
p481
I2
tp482
F3.953638603212738
s(S'2222222220'
p483
I2
tp484
F1.58960234375
s(S'2210122222'
p485
I1
tp486
F-49.99550244411783
s(S'1110222222'
p487
I2
tp488
F1.1679140296893211
s(S'1100222222'
p489
I0
tp490
I-200
s(S'1001122222'
p491
I2
tp492
F1.525
s(S'1012222220'
p493
I0
tp494
I-200
s(S'0222100222'
p495
I2
tp496
F3.7474999999999996
s(S'1220002222'
p497
I2
tp498
F3.5501161126245893
s(S'2222000122'
p499
I2
tp500
F2.178405832833145
s(S'2101222210'
p501
I0
tp502
I5
s(S'0022222222'
p503
I0
tp504
I-200
s(S'2222211001'
p505
I0
tp506
I-200
s(S'1100022222'
p507
I1
tp508
F-99.26375
s(S'2200022222'
p509
I0
tp510
F7.5377791322048395
s(S'0110022222'
p511
I0
tp512
F5.6759274374726765
s(S'0111022222'
p513
I0
tp514
F7.518671049999041
s(S'2210222211'
p515
I1
tp516
F3.025710572092011
s(S'2011122222'
p517
I0
tp518
F-1.9363941608030242
s(S'0222222221'
p519
I2
tp520
F-10.761410852954404
s(S'2221012211'
p521
I2
tp522
F1.35
s(S'2001222221'
p523
I0
tp524
F-17.269870546808107
s(S'0210022222'
p525
I1
tp526
F2.59482851938286
s(S'0222001111'
p527
I1
tp528
I1
s(S'1110122222'
p529
I0
tp530
I-200
s(S'1222222220'
p531
I1
tp532
F-99.5
s(S'2201222111'
p533
I2
tp534
F3.4019860660738845
s(S'2200112222'
p535
I0
tp536
F9.372394787371633
s(S'1222222101'
p537
I0
tp538
I5
s(S'0222210112'
p539
I1
tp540
I1
s(S'1101222222'
p541
I1
tp542
F-144.71764571372
s(S'0110022222'
p543
I1
tp544
I-200
s(S'2110222221'
p545
I1
tp546
F2.412088316234396
s(S'2220022222'
p547
I2
tp548
F7.061510786528075
s(S'1200222222'
p549
I2
tp550
I1
s(S'2210122122'
p551
I1
tp552
I1
s(S'0122210122'
p553
I0
tp554
F5.525
s(S'1222220122'
p555
I2
tp556
F1.35
s(S'2001222220'
p557
I2
tp558
F1.6771093019929189
s(S'2222200022'
p559
I1
tp560
F1.0
s(S'2101222222'
p561
I2
tp562
F2.5636441627552506
s(S'2201122111'
p563
I2
tp564
F2.5617635903592646
s(S'1222002222'
p565
I0
tp566
F7.905663717506145
s(S'0122222222'
p567
I2
tp568
F-115.73754224614063
s(S'1210222222'
p569
I2
tp570
F3.390307079374221
s(S'2220112112'
p571
I1
tp572
I1
s(S'1222111002'
p573
I2
tp574
F2.75
s(S'2210122221'
p575
I0
tp576
F7.7967393723847
s(S'0121002222'
p577
I1
tp578
F1.8735144463176283
s(S'0222101222'
p579
I2
tp580
F4.135551967581021
s(S'2110222222'
p581
I1
tp582
I1
s(S'2012222222'
p583
I2
tp584
F1.32375
s(S'2002222222'
p585
I0
tp586
F-7.930270714200736
s(S'2000122222'
p587
I1
tp588
F1.35
s(S'2221012221'
p589
I2
tp590
F5.3497007563390255
s(S'2200002222'
p591
I2
tp592
F3.2785785329726074
s(S'0222011122'
p593
I0
tp594
F6.7629513671875
s(S'2222200121'
p595
I0
tp596
I5
s(S'0121022222'
p597
I1
tp598
F3.125411319610566
s(S'0210222222'
p599
I2
tp600
I1
s(S'1102222220'
p601
I1
tp602
F1.0
s(S'2102222222'
p603
I2
tp604
I1
s(S'1110112222'
p605
I2
tp606
F2.79375
s(S'2011222222'
p607
I0
tp608
F-6.919087779738332
s(S'0111122221'
p609
I2
tp610
I1
s(S'1011122222'
p611
I2
tp612
F-4.032667762366256
s(S'0120011222'
p613
I2
tp614
I1
s(S'2222001111'
p615
I0
tp616
F7.467168738369743
s(S'2201222221'
p617
I1
tp618
F2.75
s(S'0122210222'
p619
I0
tp620
F7.220724655578325
s(S'2220111111'
p621
I0
tp622
F-95.89817230800085
s(S'1000222222'
p623
I1
tp624
I-200
s(S'0110122222'
p625
I2
tp626
F1.35
s(S'1221012222'
p627
I0
tp628
F12.524383387105427
s(S'1221102222'
p629
I2
tp630
F1.996953125
s(S'1222220011'
p631
I2
tp632
I1
s(S'2102222211'
p633
I0
tp634
F-2.1613434809841428
s(S'2222012222'
p635
I1
tp636
F10.889160267672645
s(S'1100222222'
p637
I2
tp638
F-16.555043118213245
s(S'1210111222'
p639
I2
tp640
F3.2478327992597062
s(S'2221111022'
p641
I2
tp642
I1
s(S'1001122222'
p643
I0
tp644
F-97.325
s(S'2220122221'
p645
I1
tp646
F5.697844259048068
s(S'1102222222'
p647
I2
tp648
I-200
s(S'0122011112'
p649
I1
tp650
I1
s(S'2200001222'
p651
I1
tp652
I1
s(S'1100022222'
p653
I2
tp654
F1.67375
s(S'1200112222'
p655
I0
tp656
F6.164879416206684
s(S'1011222222'
p657
I0
tp658
I-200
s(S'0222101221'
p659
I1
tp660
I1
s(S'2210222222'
p661
I1
tp662
F2.349147495501536
s(S'1121102222'
p663
I0
tp664
I5
s(S'1220011112'
p665
I1
tp666
F4.491070346524028
s(S'1110012222'
p667
I2
tp668
F1.4375
s(S'2222222222'
p669
I1
tp670
I1
s(S'2222220122'
p671
I1
tp672
F1.4597785618609003
s(S'2011212222'
p673
I2
tp674
F2.302875
s(S'1001222221'
p675
I2
tp676
F1.4936427343749998
s(S'0222101111'
p677
I0
tp678
F6.4565494461349475
s(S'2220001222'
p679
I1
tp680
F5.959481507396534
s(S'0222222222'
p681
I0
tp682
F-97.5
s(S'2220111112'
p683
I1
tp684
F2.8858719748722974
s(S'1222200011'
p685
I0
tp686
I-200
s(S'0220112222'
p687
I2
tp688
I1
s(S'2000222222'
p689
I2
tp690
F4.234411443560415
s(S'2200222222'
p691
I2
tp692
F5.131467053481478
s(S'1210122221'
p693
I1
tp694
I1
s(S'2220111222'
p695
I2
tp696
F4.17709189774458
s(S'1220011122'
p697
I2
tp698
F6.147773992613835
s(S'1222000222'
p699
I0
tp700
F6.756714125715706
s(S'2222221101'
p701
I1
tp702
F1.0
s(S'2210111111'
p703
I0
tp704
F8.574601940924865
s(S'1100122222'
p705
I2
tp706
F1.8185179363665513
s(S'1220001222'
p707
I1
tp708
I1
s(S'2012222222'
p709
I0
tp710
F-33.9393771340211
s(S'1210222221'
p711
I1
tp712
I1
s(S'1002222221'
p713
I1
tp714
I-200
s(S'2101111222'
p715
I2
tp716
F2.1375
s(S'0222011112'
p717
I1
tp718
F2.2836825620117187
s(S'2100222221'
p719
I2
tp720
F2.570847482608337
s(S'1222222210'
p721
I0
tp722
I5
s(S'0111102222'
p723
I0
tp724
F6.480910156249999
s(S'2011112222'
p725
I0
tp726
F1.942568580341013
s(S'2101112222'
p727
I1
tp728
F1.9896030519019021
s(S'2221011112'
p729
I1
tp730
F1.35
s(S'1022222222'
p731
I2
tp732
F-120.1995487166588
s(S'1102222221'
p733
I2
tp734
F-24.596696329953183
s(S'2222001221'
p735
I0
tp736
F6.824906701894291
s(S'1011122222'
p737
I0
tp738
F-2.5097520497638923
s(S'1211022222'
p739
I1
tp740
F0.9926943352671302
s(S'1111022222'
p741
I1
tp742
F-98.66565254592679
s(S'0110122222'
p743
I0
tp744
F-97.5
s(S'2220012222'
p745
I2
tp746
F4.354582405904656
s(S'2221012222'
p747
I0
tp748
F13.587181962700067
s(S'1222220011'
p749
I0
tp750
I-200
s(S'0222220022'
p751
I0
tp752
I5
s(S'0122012221'
p753
I2
tp754
I1
s(S'2222102222'
p755
I0
tp756
F12.189559656196035
s(S'0220022222'
p757
I2
tp758
I1
s(S'2221110022'
p759
I2
tp760
F1.0
s(S'2222201111'
p761
I0
tp762
F7.87964796875
s(S'0222001122'
p763
I0
tp764
F9.632255851164429
s(S'1222222221'
p765
I1
tp766
I1
s(S'2220122111'
p767
I2
tp768
I1
s(S'2220002222'
p769
I2
tp770
F4.460865215622492
s(S'1102222222'
p771
I0
tp772
F-135.86273948525726
s(S'2222101111'
p773
I1
tp774
F1.39787015625
s(S'2100222222'
p775
I0
tp776
I-200
s(S'1221011122'
p777
I0
tp778
F7.551828125
s(S'1011122222'
p779
I1
tp780
F1.0
s(S'0012222222'
p781
I0
tp782
F-29.698671875000002
s(S'1011222222'
p783
I2
tp784
F-22.52092474905921
s(S'1200022222'
p785
I1
tp786
I1
s(S'1002222222'
p787
I0
tp788
F-148.75
s(S'2220011122'
p789
I2
tp790
F3.457578871648583
s(S'2220112211'
p791
I2
tp792
F1.525
s(S'2200012222'
p793
I0
tp794
F10.312051464763016
s(S'0122222222'
p795
I1
tp796
F1.0164343261718747
s(S'1222012221'
p797
I1
tp798
I1
s(S'1121002222'
p799
I2
tp800
F1.35
s(S'2222011211'
p801
I2
tp802
I1
s(S'1222200222'
p803
I1
tp804
F7.570714636658531
s(S'1222111012'
p805
I1
tp806
I1
s(S'1101122222'
p807
I1
tp808
F-18.857840624999998
s(S'2200122111'
p809
I2
tp810
F3.5921256833076294
s(S'1221011112'
p811
I2
tp812
F1.8662821630859376
s(S'0222222222'
p813
I2
tp814
F-101.21976761909002
s(S'2110222222'
p815
I2
tp816
F-32.95768540416326
s(S'1220111222'
p817
I0
tp818
F7.906614849414201
s.