(dp0
(S'2201222211'
p1
I2
tp2
F4.441581393909884
s(S'2220111122'
p3
I0
tp4
F7.474486704354364
s(S'1222000122'
p5
I0
tp6
F5.35
s(S'2201222222'
p7
I2
tp8
F4.425617017848815
s(S'2001122222'
p9
I0
tp10
F5.0
s(S'2100222222'
p11
I2
tp12
F-1.725733581342186
s(S'2222211101'
p13
I2
tp14
I1
s(S'2220011112'
p15
I0
tp16
F7.464328609479255
s(S'1012222222'
p17
I2
tp18
F-121.38951281392487
s(S'1201222222'
p19
I2
tp20
I1
s(S'1001222222'
p21
I0
tp22
F-99.65575997418019
s(S'1222222222'
p23
I0
tp24
I-200
s(S'2101222220'
p25
I2
tp26
F2.76238980038885
s(S'1011122221'
p27
I0
tp28
I5
s(S'1222210122'
p29
I0
tp30
F5.0
s(S'0222210222'
p31
I1
tp32
F3.609735449640986
s(S'2210122222'
p33
I0
tp34
F-8.180131034554835
s(S'0121012212'
p35
I1
tp36
I1
s(S'1022222222'
p37
I0
tp38
F-148.509375
s(S'1102222221'
p39
I0
tp40
I-200
s(S'1222201222'
p41
I0
tp42
F8.028936481078171
s(S'0222201111'
p43
I1
tp44
F-99.5
s(S'0111002222'
p45
I2
tp46
F3.625
s(S'1222101222'
p47
I2
tp48
F4.646796510712353
s(S'1122001222'
p49
I1
tp50
I1
s(S'2011122222'
p51
I1
tp52
I1
s(S'2201222220'
p53
I0
tp54
I5
s(S'2200122220'
p55
I2
tp56
F6.054149321215739
s(S'0112222222'
p57
I2
tp58
I1
s(S'0122011122'
p59
I2
tp60
I1
s(S'0122101111'
p61
I0
tp62
I5
s(S'0122200222'
p63
I0
tp64
I5
s(S'1110122222'
p65
I2
tp66
F-22.138598521382434
s(S'2222220012'
p67
I2
tp68
I1
s(S'1222222220'
p69
I2
tp70
I1
s(S'2200122112'
p71
I0
tp72
I5
s(S'1101222222'
p73
I2
tp74
I-200
s(S'1221011111'
p75
I2
tp76
I1
s(S'1222011111'
p77
I1
tp78
I1
s(S'1222222221'
p79
I2
tp80
F1.684578125
s(S'1012222210'
p81
I2
tp82
I1
s(S'0012222222'
p83
I2
tp84
I1
s(S'1002222211'
p85
I2
tp86
I1
s(S'1002222222'
p87
I2
tp88
F-14.353851332845718
s(S'1122002222'
p89
I0
tp90
I5
s(S'2221000222'
p91
I0
tp92
I5
s(S'2210222221'
p93
I2
tp94
F3.704604762955478
s(S'2222200111'
p95
I1
tp96
F2.8724999999999996
s(S'2102222221'
p97
I1
tp98
I1
s(S'2110122222'
p99
I2
tp100
I1
s(S'0111012222'
p101
I2
tp102
I1
s(S'1221111022'
p103
I2
tp104
I1
s(S'2222222210'
p105
I2
tp106
I1
s(S'0222201222'
p107
I2
tp108
I1
s(S'1210022222'
p109
I1
tp110
F-1.8076079392407491
s(S'0121102222'
p111
I0
tp112
F5.380625
s(S'0022011122'
p113
I1
tp114
I1
s(S'2200222211'
p115
I0
tp116
F6.281408665819836
s(S'2221002222'
p117
I0
tp118
F8.245923045780795
s(S'2200122222'
p119
I2
tp120
F6.3594694414043005
s(S'1120112222'
p121
I0
tp122
I5
s(S'2222100222'
p123
I2
tp124
I1
s(S'0222210122'
p125
I2
tp126
F1.0
s(S'0210122222'
p127
I2
tp128
F1.0
s(S'2222101221'
p129
I0
tp130
F5.0
s(S'2001222222'
p131
I1
tp132
F-3.9065199483603648
s(S'1001222222'
p133
I2
tp134
F-56.7366875
s(S'1222222222'
p135
I2
tp136
I-200
s(S'0122101222'
p137
I1
tp138
I1
s(S'0222222101'
p139
I2
tp140
I-200
s(S'1100112222'
p141
I1
tp142
I1
s(S'0122001222'
p143
I0
tp144
F6.75
s(S'1222102222'
p145
I1
tp146
F6.665884501067281
s(S'1000222222'
p147
I2
tp148
F-33.61979609375
s(S'2222200112'
p149
I2
tp150
I1
s(S'1012222222'
p151
I0
tp152
F-111.25536324006029
s(S'1222211100'
p153
I1
tp154
I1
s(S'0122002221'
p155
I0
tp156
I5
s(S'0011222221'
p157
I2
tp158
I1
s(S'0110011222'
p159
I1
tp160
I1
s(S'2210122222'
p161
I2
tp162
I1
s(S'2210111112'
p163
I0
tp164
I5
s(S'1100222222'
p165
I1
tp166
F-149.75
s(S'1001122222'
p167
I1
tp168
F2.172405073272408
s(S'2220122211'
p169
I0
tp170
F6.961413373510003
s(S'0022222222'
p171
I1
tp172
F-73.96375
s(S'2222011221'
p173
I1
tp174
F4.119538581624706
s(S'0122100222'
p175
I0
tp176
I5
s(S'1222210222'
p177
I0
tp178
I5
s(S'0221012212'
p179
I2
tp180
I1
s(S'0222001111'
p181
I2
tp182
F2.7718749999999996
s(S'1110122222'
p183
I1
tp184
F-101.42581514655073
s(S'2222210022'
p185
I0
tp186
I5
s(S'2220011222'
p187
I2
tp188
F2.934935442681388
s(S'1101222222'
p189
I0
tp190
F-131.80981644830527
s(S'1222011222'
p191
I2
tp192
F3.735752932971361
s(S'0222011111'
p193
I2
tp194
F1.4799375
s(S'0221012222'
p195
I0
tp196
I5
s(S'2222012221'
p197
I1
tp198
F5.617050417310139
s(S'2222200122'
p199
I1
tp200
F2.6273060677765736
s(S'1220111122'
p201
I0
tp202
I5
s(S'0222012222'
p203
I2
tp204
I1
s(S'2012222222'
p205
I1
tp206
F-8.616034161264931
s(S'1002222221'
p207
I0
tp208
I-200
s(S'2200122122'
p209
I2
tp210
I1
s(S'2002222222'
p211
I1
tp212
F-35.07787998709009
s(S'1221002222'
p213
I0
tp214
F10.93887584993237
s(S'2222002222'
p215
I2
tp216
F4.976339623762902
s(S'1201112222'
p217
I1
tp218
F2.023056015625
s(S'2220012210'
p219
I0
tp220
I5
s(S'0222201111'
p221
I2
tp222
I-200
s(S'0222012221'
p223
I0
tp224
F6.828580327449733
s(S'1111022222'
p225
I0
tp226
F-94.0068152178943
s(S'2220111111'
p227
I1
tp228
F3.882414471713865
s(S'2200122221'
p229
I0
tp230
F7.779238900010503
s(S'1000222222'
p231
I0
tp232
I-200
s(S'2222000222'
p233
I1
tp234
F2.2101960857504652
s(S'1221022222'
p235
I2
tp236
F7.142782898388232
s(S'2101222221'
p237
I2
tp238
F1.3041233841754654
s(S'1222222221'
p239
I0
tp240
I-200
s(S'1210122222'
p241
I0
tp242
F6.9997921313620965
s(S'0120111222'
p243
I2
tp244
I1
s(S'1111002222'
p245
I2
tp246
F1.35
s(S'2220022221'
p247
I1
tp248
F5.725059262885381
s(S'2222100022'
p249
I2
tp250
I1
s(S'1222001222'
p251
I2
tp252
F5.5542932214274785
s(S'0012222222'
p253
I1
tp254
F-6.005967773437501
s(S'2200222220'
p255
I2
tp256
F2.599764335971607
s(S'1220011222'
p257
I0
tp258
I5
s(S'1002222222'
p259
I1
tp260
F-131.81410078115445
s(S'2001112222'
p261
I2
tp262
F3.8798704753334134
s(S'1222220012'
p263
I1
tp264
I1
s(S'0221022222'
p265
I0
tp266
F10.522894640124743
s(S'2221011111'
p267
I1
tp268
F2.2483043261718745
s(S'1222011122'
p269
I0
tp270
F10.071930662249407
s(S'2201112222'
p271
I0
tp272
F7.247438043196828
s(S'1220112222'
p273
I1
tp274
I1
s(S'0222221022'
p275
I2
tp276
I1
s(S'2210122220'
p277
I1
tp278
F1.35
s(S'1222011112'
p279
I2
tp280
F1.856725078125
s(S'1101122222'
p281
I0
tp282
F-11.428999999999998
s(S'0222222222'
p283
I1
tp284
F2.06757109375
s(S'1121001222'
p285
I1
tp286
I1
s(S'2210122111'
p287
I2
tp288
I1
s(S'1222111102'
p289
I0
tp290
F5.0
s(S'1222000012'
p291
I1
tp292
F1.35
s(S'1222200122'
p293
I1
tp294
I1
s(S'2222011111'
p295
I2
tp296
F1.0
s(S'2101122222'
p297
I2
tp298
F2.0917604687499995
s(S'1110222222'
p299
I1
tp300
F-165.22214433593751
s(S'2211022222'
p301
I2
tp302
F9.00265757675831
s(S'1012222222'
p303
I1
tp304
F-134.84606083225987
s(S'0022201222'
p305
I1
tp306
F1.4725
s(S'0222220122'
p307
I1
tp308
I1
s(S'1002222221'
p309
I2
tp310
F-44.33996873934996
s(S'2011212222'
p311
I1
tp312
F-7.66031036861485
s(S'2200222210'
p313
I1
tp314
I1
s(S'2210122211'
p315
I1
tp316
F2.9456476390783353
s(S'0122222221'
p317
I1
tp318
F1.0
s(S'0122222012'
p319
I2
tp320
I1
s(S'2222011122'
p321
I1
tp322
F2.5442199130859375
s(S'1110222222'
p323
I0
tp324
I-200
s(S'1012222220'
p325
I2
tp326
I-200
s(S'1022222222'
p327
I1
tp328
F-4.131746092511438
s(S'1102222221'
p329
I1
tp330
F-99.5
s(S'0222201111'
p331
I0
tp332
I-200
s(S'0022222222'
p333
I2
tp334
F-29.154776851059204
s(S'1111022222'
p335
I2
tp336
F2.500539114920819
s(S'0222222221'
p337
I0
tp338
F-97.5
s(S'2222201222'
p339
I1
tp340
F6.707985707397056
s(S'2001222221'
p341
I2
tp342
F0.7369775361840822
s(S'1221012221'
p343
I2
tp344
F2.75
s(S'2222101222'
p345
I0
tp346
F12.602092970624764
s(S'1200122222'
p347
I0
tp348
F5.65625
s(S'2101221222'
p349
I2
tp350
I1
s(S'1012222221'
p351
I0
tp352
I-200
s(S'2102222220'
p353
I1
tp354
I1
s(S'1102222222'
p355
I1
tp356
F-31.801532272357022
s(S'1111012222'
p357
I1
tp358
F3.1697172108205676
s(S'2210111122'
p359
I0
tp360
F6.92730002312917
s(S'2220011111'
p361
I1
tp362
F3.5381924150014483
s(S'2200222221'
p363
I1
tp364
F2.3112823378495078
s(S'2001222220'
p365
I0
tp366
F5.41234375
s(S'2220012221'
p367
I1
tp368
F4.26990624319599
s(S'2201122222'
p369
I1
tp370
F4.453313510165648
s(S'0022220112'
p371
I1
tp372
I1
s(S'2101222222'
p373
I0
tp374
F-3.257706390842582
s(S'1110022222'
p375
I2
tp376
F3.822048588934938
s(S'0122222222'
p377
I0
tp378
I-200
s(S'1110002222'
p379
I1
tp380
I1
s(S'2222200222'
p381
I0
tp382
F5.4725
s(S'2201111222'
p383
I1
tp384
F3.300581225692424
s(S'0022101222'
p385
I2
tp386
I1
s(S'1101122222'
p387
I2
tp388
I1
s(S'2222001222'
p389
I1
tp390
F3.970086594624191
s(S'2210222212'
p391
I0
tp392
I5
s(S'2011122221'
p393
I1
tp394
F1.0
s(S'1210022222'
p395
I0
tp396
F2.2466444440378814
s(S'0220122222'
p397
I2
tp398
I1
s(S'0022222001'
p399
I0
tp400
I5
s(S'2100222222'
p401
I1
tp402
F-3.01405434995074
s(S'2221022222'
p403
I0
tp404
F11.595024531218714
s(S'2222211022'
p405
I2
tp406
I1
s(S'2222222100'
p407
I0
tp408
I5
s(S'1001222222'
p409
I1
tp410
I-200
s(S'0121011122'
p411
I2
tp412
I1
s(S'2101222211'
p413
I2
tp414
F3.0598829879070064
s(S'2220111111'
p415
I2
tp416
F2.0680630283203123
s(S'2210022222'
p417
I1
tp418
I1
s(S'1121012222'
p419
I0
tp420
I5
s(S'2200111222'
p421
I2
tp422
F4.0848977799691735
s(S'2222222220'
p423
I2
tp424
I1
s(S'2210122222'
p425
I1
tp426
F2.6054628440915315
s(S'1110222222'
p427
I2
tp428
F-15.624892045930459
s(S'1100222222'
p429
I0
tp430
I-200
s(S'1001122222'
p431
I2
tp432
I1
s(S'1012222220'
p433
I0
tp434
I-200
s(S'0222100222'
p435
I2
tp436
F1.0
s(S'1220002222'
p437
I2
tp438
F2.6002322252491785
s(S'2222000122'
p439
I2
tp440
F1.0875
s(S'2101222210'
p441
I0
tp442
I5
s(S'0022222222'
p443
I0
tp444
I-200
s(S'2222211001'
p445
I0
tp446
I-200
s(S'1100022222'
p447
I1
tp448
F-99.26375
s(S'2200022222'
p449
I0
tp450
F6.753947613969777
s(S'0111022222'
p451
I0
tp452
F6.190726372831531
s(S'2210222211'
p453
I1
tp454
F3.3312041298706463
s(S'2011122222'
p455
I0
tp456
F-1.9363941608030242
s(S'0222222221'
p457
I2
tp458
F-10.761410852954404
s(S'2221012211'
p459
I2
tp460
F1.35
s(S'2001222221'
p461
I0
tp462
F-17.269870546808107
s(S'0210022222'
p463
I1
tp464
I1
s(S'1110122222'
p465
I0
tp466
I-200
s(S'1222222220'
p467
I1
tp468
F-99.5
s(S'2201222111'
p469
I2
tp470
F3.4019860660738845
s(S'2200112222'
p471
I0
tp472
F10.434839953449924
s(S'0222210112'
p473
I1
tp474
I1
s(S'1101222222'
p475
I1
tp476
I-200
s(S'0110022222'
p477
I1
tp478
I-200
s(S'2110222221'
p479
I1
tp480
F1.8990041871879364
s(S'2220022222'
p481
I2
tp482
F7.061510786528075
s(S'0122210122'
p483
I0
tp484
I5
s(S'1222220122'
p485
I2
tp486
I1
s(S'2222200022'
p487
I1
tp488
F1.0
s(S'2201122111'
p489
I2
tp490
I1
s(S'1222002222'
p491
I0
tp492
F8.015122804262305
s(S'0122222222'
p493
I2
tp494
F-115.73754224614063
s(S'1210222222'
p495
I2
tp496
F1.35
s(S'2220112112'
p497
I1
tp498
I1
s(S'1222111002'
p499
I2
tp500
I1
s(S'2210122221'
p501
I0
tp502
F7.216061792856558
s(S'0121002222'
p503
I1
tp504
I1
s(S'0222101222'
p505
I2
tp506
F1.3937499999999998
s(S'2002222222'
p507
I0
tp508
F-7.930270714200736
s(S'2221012221'
p509
I2
tp510
F5.173909965740247
s(S'2200002222'
p511
I2
tp512
F2.98733119530346
s(S'0222011122'
p513
I0
tp514
F6.7629513671875
s(S'2222200121'
p515
I0
tp516
I5
s(S'0121022222'
p517
I1
tp518
I1
s(S'1102222220'
p519
I1
tp520
F1.0
s(S'1110112222'
p521
I2
tp522
F1.0875
s(S'2011222222'
p523
I0
tp524
F-6.919087779738332
s(S'1011122222'
p525
I2
tp526
I1
s(S'0120011222'
p527
I2
tp528
I1
s(S'2222001111'
p529
I0
tp530
F7.467168738369743
s(S'2201222221'
p531
I1
tp532
F2.75
s(S'0122210222'
p533
I0
tp534
I5
s(S'2220111111'
p535
I0
tp536
F-95.89817230800085
s(S'1221012222'
p537
I0
tp538
F13.298206803161563
s(S'1221102222'
p539
I2
tp540
I1
s(S'2102222211'
p541
I0
tp542
F3.9368259962402345
s(S'2222012222'
p543
I1
tp544
F6.52616361968909
s(S'1100222222'
p545
I2
tp546
F-147.99495390332459
s(S'1210111222'
p547
I2
tp548
I1
s(S'1001122222'
p549
I0
tp550
F-97.325
s(S'2220122221'
p551
I1
tp552
F4.303452903273669
s(S'1102222222'
p553
I2
tp554
I-200
s(S'0122011112'
p555
I1
tp556
I1
s(S'2200001222'
p557
I1
tp558
I1
s(S'1100022222'
p559
I2
tp560
I1
s(S'1200112222'
p561
I0
tp562
F5.35
s(S'1011222222'
p563
I0
tp564
I-200
s(S'0222101221'
p565
I1
tp566
I1
s(S'2210222222'
p567
I1
tp568
F1.3672030890500642
s(S'1220011112'
p569
I1
tp570
F2.75
s(S'1110012222'
p571
I2
tp572
F1.35
s(S'2222222222'
p573
I1
tp574
I1
s(S'2222220122'
p575
I1
tp576
I1
s(S'2011212222'
p577
I2
tp578
I1
s(S'1001222221'
p579
I2
tp580
F1.4936427343749998
s(S'0222101111'
p581
I0
tp582
F6.968098892269895
s(S'2220001222'
p583
I1
tp584
F3.825745363520818
s(S'0222222222'
p585
I0
tp586
F-97.5
s(S'2220111112'
p587
I1
tp588
F2.8858719748722974
s(S'1222200011'
p589
I0
tp590
I-200
s(S'0220112222'
p591
I2
tp592
I1
s(S'2000222222'
p593
I2
tp594
F3.017194278137819
s(S'2200222222'
p595
I2
tp596
F5.140792794217839
s(S'2220111222'
p597
I2
tp598
F4.287904820528043
s(S'1220011122'
p599
I2
tp600
F3.5819708485300454
s(S'1222000222'
p601
I0
tp602
F6.756714125715706
s(S'2222221101'
p603
I1
tp604
F1.0
s(S'2210111111'
p605
I0
tp606
F7.050136896323
s(S'1100122222'
p607
I2
tp608
F1.36804974609375
s(S'2012222222'
p609
I0
tp610
I5
s(S'1002222221'
p611
I1
tp612
I-200
s(S'2101111222'
p613
I2
tp614
F2.1375
s(S'0222011112'
p615
I1
tp616
F1.8687195097656248
s(S'2100222221'
p617
I2
tp618
F2.1748549301388396
s(S'0111102222'
p619
I0
tp620
F5.41125
s(S'2011112222'
p621
I0
tp622
F-2.059862839317974
s(S'2101112222'
p623
I1
tp624
F1.6238996643295287
s(S'2221011112'
p625
I1
tp626
F1.35
s(S'1022222222'
p627
I2
tp628
F-120.1995487166588
s(S'1102222221'
p629
I2
tp630
F-22.807868518379117
s(S'2222001221'
p631
I0
tp632
F7.235074592692447
s(S'1011122222'
p633
I0
tp634
F-2.5097520497638923
s(S'1211022222'
p635
I1
tp636
F2.947556603249482
s(S'1111022222'
p637
I1
tp638
F-98.66565254592679
s(S'0110122222'
p639
I0
tp640
I5
s(S'2220012222'
p641
I2
tp642
F5.391984683725059
s(S'2221012222'
p643
I0
tp644
F11.39879926217814
s(S'1222220011'
p645
I0
tp646
I-200
s(S'0122012221'
p647
I2
tp648
I1
s(S'2222102222'
p649
I0
tp650
F12.189559656196035
s(S'0220022222'
p651
I2
tp652
I1
s(S'2221110022'
p653
I2
tp654
I1
s(S'2222201111'
p655
I0
tp656
F7.87964796875
s(S'0222001122'
p657
I0
tp658
F9.632255851164429
s(S'1222222221'
p659
I1
tp660
I1
s(S'2220122111'
p661
I2
tp662
I1
s(S'2220002222'
p663
I2
tp664
F4.189088967217886
s(S'1102222222'
p665
I0
tp666
F-54.70333737817141
s(S'2222101111'
p667
I1
tp668
F1.35
s(S'2100222222'
p669
I0
tp670
I-200
s(S'1221011122'
p671
I0
tp672
F8.17865625
s(S'0012222222'
p673
I0
tp674
F-29.698671875000002
s(S'1011222222'
p675
I2
tp676
F-14.861764843749999
s(S'1002222222'
p677
I0
tp678
F-148.75
s(S'2220011122'
p679
I2
tp680
F5.960499752891161
s(S'2220112211'
p681
I2
tp682
F1.525
s(S'2200012222'
p683
I0
tp684
F11.414662267251394
s(S'0122222222'
p685
I1
tp686
F1.0164343261718747
s(S'1222012221'
p687
I1
tp688
I1
s(S'1121002222'
p689
I2
tp690
F1.0
s(S'1222200222'
p691
I1
tp692
F4.422043733402042
s(S'1101122222'
p693
I1
tp694
I1
s(S'2200122111'
p695
I2
tp696
F3.578533255376416
s(S'1221011112'
p697
I2
tp698
F2.02917240234375
s(S'0222222222'
p699
I2
tp700
F-101.21976761909002
s(S'2110222222'
p701
I2
tp702
F-32.95768540416326
s(S'1220111222'
p703
I0
tp704
I5
s.