(dp0
(S'2200122210'
p1
I1
tp2
F1.35
s(S'2222200222'
p3
I2
tp4
F5.2328618491276915
s(S'0012222220'
p5
I0
tp6
I-200
s(S'2222201111'
p7
I0
tp8
F9.984428031067985
s(S'2222220012'
p9
I0
tp10
I-200
s(S'2200011210'
p11
I2
tp12
I1
s(S'2000222220'
p13
I0
tp14
F5.0
s(S'0011122221'
p15
I1
tp16
F1.0
s(S'2000122221'
p17
I1
tp18
I1
s(S'1222210122'
p19
I2
tp20
I1
s(S'2222220111'
p21
I1
tp22
F2.3481752551367183
s(S'1222222011'
p23
I0
tp24
I-200
s(S'0011222222'
p25
I1
tp26
I-200
s(S'2220012211'
p27
I2
tp28
I1
s(S'2222210122'
p29
I0
tp30
F7.077494985483886
s(S'2200012211'
p31
I1
tp32
I1
s(S'2222101222'
p33
I0
tp34
F9.45127156191575
s(S'0122222210'
p35
I1
tp36
I1
s(S'2222012222'
p37
I2
tp38
F7.7264963293555216
s(S'0011222220'
p39
I2
tp40
I1
s(S'2200012221'
p41
I1
tp42
F1.175
s(S'2222201111'
p43
I2
tp44
F-99.07156653063477
s(S'2222221011'
p45
I2
tp46
I1
s(S'1222220012'
p47
I1
tp48
I1
s(S'0002222220'
p49
I1
tp50
F1.0
s(S'0012222220'
p51
I2
tp52
F1.0
s(S'2222220111'
p53
I0
tp54
F-97.5
s(S'2222210111'
p55
I1
tp56
F3.458150846705652
s(S'0112222210'
p57
I0
tp58
I5
s(S'2220012210'
p59
I0
tp60
F5.35
s(S'2222001111'
p61
I1
tp62
F2.455453125
s(S'2000222221'
p63
I1
tp64
I1
s(S'2001112221'
p65
I1
tp66
I1
s(S'2000122210'
p67
I2
tp68
F1.0
s(S'2222210111'
p69
I0
tp70
F-97.325
s(S'2222210121'
p71
I1
tp72
F1.35
s(S'2222221012'
p73
I1
tp74
I1
s(S'0011222210'
p75
I1
tp76
I1
s(S'1222220112'
p77
I0
tp78
I5
s(S'2222002222'
p79
I0
tp80
F13.392695600946986
s(S'2001122210'
p81
I0
tp82
I5
s(S'1222220122'
p83
I0
tp84
F5.0
s(S'0111222220'
p85
I1
tp86
I1
s(S'2220011111'
p87
I1
tp88
F1.875
s(S'1112222210'
p89
I2
tp90
I1
s(S'2200112210'
p91
I2
tp92
I1
s(S'2222200111'
p93
I2
tp94
I-200
s(S'2200022221'
p95
I1
tp96
I1
s(S'0112222220'
p97
I1
tp98
F1.0
s(S'2222101222'
p99
I2
tp100
F-99.2375
s(S'0002222210'
p101
I2
tp102
I1
s(S'2220012221'
p103
I0
tp104
I5
s(S'2222201121'
p105
I2
tp106
F2.83109893394026
s(S'2222210222'
p107
I2
tp108
I1
s(S'2222220112'
p109
I1
tp110
F1.981384133808887
s(S'2222201222'
p111
I2
tp112
F3.5677868830582478
s(S'2000122220'
p113
I1
tp114
F1.35
s(S'2220011210'
p115
I1
tp116
I1
s(S'2222210112'
p117
I2
tp118
I1
s(S'1122222200'
p119
I1
tp120
I-200
s(S'2220011211'
p121
I0
tp122
I5
s(S'2222220111'
p123
I2
tp124
F-99.5
s(S'2222220011'
p125
I2
tp126
I-200
s(S'2222102222'
p127
I0
tp128
F12.09843544050733
s(S'2001222220'
p129
I1
tp130
F1.0
s(S'2222220122'
p131
I2
tp132
F1.0
s(S'2222200111'
p133
I1
tp134
F3.7918480778457306
s.