(dp0
(S'2200011210'
p1
I2
tp2
I1
s(S'2200111211'
p3
I0
tp4
I5
s(S'2201222222'
p5
I2
tp6
F2.2869865460498047
s(S'2001122222'
p7
I0
tp8
F6.5063518557111735
s(S'2200122222'
p9
I0
tp10
F8.801457576776635
s(S'2000122221'
p11
I1
tp12
F2.08171875
s(S'2002222211'
p13
I0
tp14
F-30.76786079435881
s(S'2220012220'
p15
I2
tp16
I1
s(S'2221022222'
p17
I1
tp18
F4.813269061204837
s(S'0022222211'
p19
I2
tp20
I-200
s(S'0011222220'
p21
I2
tp22
F2.18721681640625
s(S'1012222222'
p23
I2
tp24
F-119.23917351670882
s(S'2001111222'
p25
I2
tp26
F2.18890625
s(S'1222222222'
p27
I0
tp28
I-200
s(S'2201221122'
p29
I0
tp30
I5
s(S'1011112221'
p31
I0
tp32
I5
s(S'1100122222'
p33
I0
tp34
F-21.98120433314519
s(S'2200122211'
p35
I2
tp36
F3.110101037631034
s(S'2222211011'
p37
I2
tp38
I1
s(S'0012222220'
p39
I2
tp40
F-149.75
s(S'2201111121'
p41
I0
tp42
F8.029320745434465
s(S'2101111211'
p43
I0
tp44
I5
s(S'0111222220'
p45
I1
tp46
F-6.359018652343749
s(S'0112222220'
p47
I1
tp48
F-110.2871190625
s(S'2100222221'
p49
I0
tp50
F-1.5636523500606336
s(S'1221102222'
p51
I1
tp52
F2.846482168907331
s(S'2001222121'
p53
I2
tp54
I1
s(S'0122222221'
p55
I2
tp56
F-35.47305309599304
s(S'1222220022'
p57
I1
tp58
F4.115441695921952
s(S'2011112222'
p59
I2
tp60
F2.4242995620242738
s(S'2101221111'
p61
I2
tp62
F2.1247014843749996
s(S'1221002222'
p63
I1
tp64
F3.292210208621471
s(S'1022222222'
p65
I0
tp66
I-200
s(S'1102222221'
p67
I0
tp68
I-200
s(S'0111002222'
p69
I2
tp70
F1.175
s(S'0011122222'
p71
I2
tp72
I1
s(S'1012222211'
p73
I0
tp74
F-102.55570462988281
s(S'2011122222'
p75
I1
tp76
F1.8934843749999999
s(S'2220111111'
p77
I1
tp78
F3.728425807250103
s(S'2220110111'
p79
I2
tp80
I1
s(S'1122222220'
p81
I0
tp82
I-200
s(S'2012221221'
p83
I2
tp84
I1
s(S'2001122221'
p85
I1
tp86
F4.1508455330932605
s(S'2222220111'
p87
I0
tp88
F-97.5
s(S'2222000111'
p89
I1
tp90
F5.344847987461277
s(S'1110122222'
p91
I2
tp92
F2.817351817809734
s(S'1221022222'
p93
I1
tp94
F2.022365618584736
s(S'1121100222'
p95
I0
tp96
I5
s(S'1111000222'
p97
I2
tp98
I1
s(S'0022222101'
p99
I0
tp100
I5
s(S'1222222220'
p101
I2
tp102
F-7.044865254547119
s(S'2102222221'
p103
I2
tp104
F-11.673807223093526
s(S'1112222210'
p105
I2
tp106
F-2.2047583749999995
s(S'2200011221'
p107
I0
tp108
F10.072949754395758
s(S'1101222222'
p109
I2
tp110
F-3.0477155663922195
s(S'1122210222'
p111
I1
tp112
I1
s(S'1122100222'
p113
I2
tp114
I1
s(S'0112122221'
p115
I2
tp116
I1
s(S'2200001121'
p117
I1
tp118
I1
s(S'1211002222'
p119
I1
tp120
F1.0
s(S'1002222211'
p121
I2
tp122
F1.109375
s(S'2101222111'
p123
I2
tp124
F4.57325018884931
s(S'1002222222'
p125
I2
tp126
F-32.14334400668522
s(S'0022201222'
p127
I1
tp128
I1
s(S'2221000222'
p129
I0
tp130
I5
s(S'2210222221'
p131
I2
tp132
F2.2584080406020686
s(S'2222200111'
p133
I1
tp134
F6.087928228648214
s(S'0221012222'
p135
I2
tp136
F1.35
s(S'2200012222'
p137
I2
tp138
F1.0
s(S'2101222222'
p139
I1
tp140
F-8.595085365238488
s(S'1110022222'
p141
I1
tp142
I-200
s(S'2222101211'
p143
I2
tp144
F3.4573915016073142
s(S'0122110222'
p145
I2
tp146
I1
s(S'2222222210'
p147
I2
tp148
I1
s(S'2201111222'
p149
I2
tp150
F3.943230993729157
s(S'1112222220'
p151
I0
tp152
I-200
s(S'2011211221'
p153
I0
tp154
F-15.61624709397033
s(S'1111100222'
p155
I0
tp156
F5.993125
s(S'2222201111'
p157
I2
tp158
F-99.07156653063477
s(S'1011122220'
p159
I0
tp160
F5.427653515625
s(S'1101222221'
p161
I0
tp162
I-200
s(S'2221012210'
p163
I0
tp164
F9.604449842431983
s(S'2110222222'
p165
I0
tp166
F-11.277799458862916
s(S'0111101222'
p167
I0
tp168
I5
s(S'2201222211'
p169
I0
tp170
F5.972511470640372
s(S'2001112221'
p171
I1
tp172
F3.4971559441402027
s(S'1222100222'
p173
I1
tp174
F1.0
s(S'2200222211'
p175
I0
tp176
F7.394443871102158
s(S'2100222222'
p177
I0
tp178
F-97.5
s(S'2002222211'
p179
I2
tp180
F0.37346968823149496
s(S'2222100222'
p181
I2
tp182
I1
s(S'2011221221'
p183
I0
tp184
F5.0
s(S'2220001121'
p185
I0
tp186
F9.85156663846785
s(S'2201221111'
p187
I1
tp188
F2.922976024810791
s(S'2211022222'
p189
I1
tp190
F2.75
s(S'0222220122'
p191
I0
tp192
I5
s(S'0121022222'
p193
I0
tp194
F5.35
s(S'2222101221'
p195
I0
tp196
F9.98177340053962
s(S'0122222111'
p197
I0
tp198
I-200
s(S'1001222222'
p199
I2
tp200
F-18.660381814472316
s(S'2001111111'
p201
I1
tp202
I1
s(S'0022222221'
p203
I1
tp204
I-200
s(S'2101222221'
p205
I2
tp206
F1.248756086711162
s(S'1012212221'
p207
I2
tp208
F-4.091676816406247
s(S'0012222220'
p209
I0
tp210
I-200
s(S'2201222221'
p211
I0
tp212
F5.9625
s(S'1222102222'
p213
I1
tp214
F3.8546373895282953
s(S'2001222222'
p215
I1
tp216
F-9.672873368983126
s(S'2210022222'
p217
I0
tp218
F6.723260954564825
s(S'1012222221'
p219
I2
tp220
F-56.44874751338418
s(S'1121012222'
p221
I1
tp222
I1
s(S'2102222211'
p223
I1
tp224
F-15.015493880892404
s(S'2200111222'
p225
I1
tp226
F4.691313151612267
s(S'2101222221'
p227
I0
tp228
F-97.5
s(S'0011012222'
p229
I0
tp230
F5.875
s(S'1100222222'
p231
I1
tp232
I-200
s(S'0011102222'
p233
I2
tp234
I1
s(S'1001122222'
p235
I1
tp236
F-99.21781250000001
s(S'2201121111'
p237
I1
tp238
I1
s(S'2220112111'
p239
I1
tp240
I1
s(S'0222222111'
p241
I2
tp242
I-200
s(S'0100222222'
p243
I2
tp244
F1.8170762154573716
s(S'2001122210'
p245
I0
tp246
F5.35
s(S'2210121122'
p247
I0
tp248
I5
s(S'0022222222'
p249
I1
tp250
F-126.91882939859329
s(S'2011122210'
p251
I2
tp252
F3.206565145791816
s(S'1222101222'
p253
I0
tp254
I5
s(S'2200022222'
p255
I1
tp256
F3.776118261422119
s(S'1002222002'
p257
I1
tp258
I1
s(S'2101111221'
p259
I2
tp260
F5.080271638675022
s(S'1011222222'
p261
I1
tp262
F-99.5
s(S'0122222220'
p263
I1
tp264
F-99.325
s(S'2220122221'
p265
I2
tp266
F3.168681519666091
s(S'2210222222'
p267
I2
tp268
F3.6188587445808165
s(S'1110022222'
p269
I0
tp270
I-200
s(S'2222221001'
p271
I0
tp272
I-200
s(S'2001012211'
p273
I0
tp274
I5
s(S'2222210011'
p275
I2
tp276
F-99.5
s(S'2222200011'
p277
I2
tp278
I-200
s(S'0122200222'
p279
I2
tp280
I1
s(S'0221022222'
p281
I2
tp282
F1.0
s(S'2222001121'
p283
I2
tp284
F5.38318655774696
s(S'2222210022'
p285
I0
tp286
F5.788822982836374
s(S'2201112222'
p287
I2
tp288
F2.0242847841685974
s(S'0001222210'
p289
I2
tp290
F2.5879062499999996
s(S'1222222220'
p291
I0
tp292
I-200
s(S'1101222222'
p293
I0
tp294
I-200
s(S'1111012222'
p295
I2
tp296
F2.508184735665026
s(S'0021012222'
p297
I0
tp298
F5.35
s(S'1022102222'
p299
I0
tp300
I5
s(S'2110222221'
p301
I0
tp302
I5
s(S'2101121222'
p303
I2
tp304
I1
s(S'2210122122'
p305
I0
tp306
I5
s(S'0222102222'
p307
I2
tp308
F5.633936781716004
s(S'2222011111'
p309
I0
tp310
I-200
s(S'1022222211'
p311
I0
tp312
I-200
s(S'2222222221'
p313
I2
tp314
I-200
s(S'2012222222'
p315
I0
tp316
F-28.89334375
s(S'2222222210'
p317
I1
tp318
F-99.5
s(S'1210122221'
p319
I0
tp320
F5.796638927067176
s(S'1222111002'
p321
I2
tp322
I1
s(S'1110002222'
p323
I2
tp324
I1
s(S'2201112221'
p325
I0
tp326
F8.061717758244527
s(S'2222222210'
p327
I0
tp328
I-200
s(S'1112222220'
p329
I2
tp330
I-200
s(S'2210111111'
p331
I1
tp332
F1.4725
s(S'0121002222'
p333
I2
tp334
F1.566170673165026
s(S'1002222221'
p335
I1
tp336
F-149.75
s(S'2200001221'
p337
I1
tp338
F5.751184852575496
s(S'2012212221'
p339
I1
tp340
I1
s(S'0011022222'
p341
I2
tp342
I1
s(S'2220001221'
p343
I0
tp344
F12.012692647927999
s(S'0111222221'
p345
I1
tp346
F-41.693033031249996
s(S'1002222221'
p347
I0
tp348
I-200
s(S'2002222222'
p349
I1
tp350
F-35.28532328969696
s(S'2101222121'
p351
I0
tp352
F6.75
s(S'0101222222'
p353
I2
tp354
F2.144123518396853
s(S'2200121111'
p355
I1
tp356
I1
s(S'0222210122'
p357
I0
tp358
F6.4970904210689975
s(S'1222222011'
p359
I0
tp360
I-200
s(S'1121100022'
p361
I1
tp362
I1
s(S'2101112222'
p363
I0
tp364
F7.694055445259229
s(S'2200101221'
p365
I2
tp366
F5.314333864420396
s(S'0012212221'
p367
I1
tp368
F1.6124999999999998
s(S'0001222220'
p369
I1
tp370
F1.35
s(S'2101222211'
p371
I1
tp372
F-0.6282712295189943
s(S'1222221011'
p373
I1
tp374
I1
s(S'2222001111'
p375
I1
tp376
F5.7275667613092125
s(S'2000122210'
p377
I2
tp378
F2.05
s(S'0221102222'
p379
I0
tp380
F7.0920672715323105
s(S'0022221012'
p381
I2
tp382
I1
s(S'2222222200'
p383
I1
tp384
F1.35
s(S'0022222111'
p385
I0
tp386
I-200
s(S'1222221012'
p387
I1
tp388
F3.958337507303744
s(S'0112222221'
p389
I0
tp390
F-35.8393443661499
s(S'2222000222'
p391
I1
tp392
F3.485532111227743
s(S'1222220011'
p393
I1
tp394
I1
s(S'2222210111'
p395
I1
tp396
F5.9196503368685205
s(S'1012221221'
p397
I0
tp398
I5
s(S'2222220012'
p399
I1
tp400
F2.8724999999999996
s(S'2222222102'
p401
I0
tp402
I5
s(S'2011111221'
p403
I1
tp404
F1.35
s(S'1222222221'
p405
I0
tp406
I5
s(S'0022101222'
p407
I2
tp408
F1.0
s(S'1122222200'
p409
I1
tp410
I-200
s(S'2200122111'
p411
I1
tp412
F4.415344449220995
s(S'2012222211'
p413
I2
tp414
I1
s(S'1210222222'
p415
I1
tp416
F0.804443241196504
s(S'1111002222'
p417
I2
tp418
F1.1509375
s(S'0222220012'
p419
I0
tp420
I5
s(S'0022222012'
p421
I2
tp422
I1
s(S'2210222211'
p423
I2
tp424
F2.553537057900259
s(S'2220111112'
p425
I2
tp426
I1
s(S'0012222222'
p427
I1
tp428
F-0.03057259033203108
s(S'1002222222'
p429
I1
tp430
F-118.23746572886725
s(S'2001112222'
p431
I2
tp432
F4.310464655761077
s(S'2101222122'
p433
I1
tp434
F-7.263654948920882
s(S'2200012210'
p435
I0
tp436
I5
s(S'1222222210'
p437
I1
tp438
F1.525
s(S'1222220012'
p439
I1
tp440
F4.066071591203318
s(S'2222111102'
p441
I0
tp442
I5
s(S'1122222210'
p443
I0
tp444
F-200.0
s(S'2222200222'
p445
I2
tp446
F2.435611141483375
s(S'2222000121'
p447
I1
tp448
F3.8615877786285857
s(S'2222221012'
p449
I1
tp450
F3.8635276172922137
s(S'2220012210'
p451
I0
tp452
F7.189729758869216
s(S'1101122222'
p453
I0
tp454
F-4.310169480162413
s(S'2221000022'
p455
I2
tp456
I1
s(S'2220001222'
p457
I0
tp458
F6.400760158896777
s(S'0222222222'
p459
I1
tp460
F-155.9
s(S'2201122222'
p461
I1
tp462
F3.30170232115332
s(S'2210122212'
p463
I1
tp464
I1
s(S'1022222211'
p465
I2
tp466
F-106.52776996298377
s(S'1222211102'
p467
I1
tp468
F1.0
s(S'2220011211'
p469
I0
tp470
F9.722168183785016
s(S'2222002221'
p471
I2
tp472
I1
s(S'2222220011'
p473
I2
tp474
I-200
s(S'0022222211'
p475
I1
tp476
I1
s(S'2201121222'
p477
I1
tp478
F1.35
s(S'1012222222'
p479
I1
tp480
F-68.01833558615989
s(S'1021012222'
p481
I0
tp482
I5
s(S'2011211221'
p483
I1
tp484
F-14.512247460937497
s(S'1100222221'
p485
I2
tp486
F1.0
s(S'2220012211'
p487
I2
tp488
F5.268133046812084
s(S'2222210122'
p489
I0
tp490
F8.630649424035072
s(S'1011122221'
p491
I1
tp492
F1.9943376474609376
s(S'0222012222'
p493
I0
tp494
I5
s(S'1002222221'
p495
I2
tp496
F-94.49752827023585
s(S'0002222220'
p497
I1
tp498
F1.6124999999999998
s(S'2210122211'
p499
I1
tp500
F4.176696901105183
s(S'0112222220'
p501
I0
tp502
I-200
s(S'2000222220'
p503
I0
tp504
F6.346706617675781
s(S'2222100111'
p505
I2
tp506
I1
s(S'0122222221'
p507
I1
tp508
F-104.71169648620605
s(S'2200111121'
p509
I1
tp510
F6.411310328258694
s(S'1111110222'
p511
I1
tp512
F1.9187500000000002
s(S'0011222221'
p513
I1
tp514
F3.7996135077148434
s(S'0111102222'
p515
I1
tp516
F2.33029859375
s(S'2222222220'
p517
I0
tp518
I-200
s(S'1110222222'
p519
I0
tp520
I-200
s(S'0002222210'
p521
I2
tp522
F1.4725
s(S'1022222222'
p523
I1
tp524
F-57.042840571223365
s(S'1102222221'
p525
I1
tp526
F-174.875
s(S'0100222222'
p527
I1
tp528
F-6.183277309032753
s(S'0022222222'
p529
I2
tp530
F-99.5
s(S'1211022222'
p531
I0
tp532
F5.5613125
s(S'1012222121'
p533
I1
tp534
I1
s(S'1111022222'
p535
I2
tp536
F2.2768883481661844
s(S'0222222221'
p537
I0
tp538
I5
s(S'2200122221'
p539
I2
tp540
F4.364559764532644
s(S'2220012222'
p541
I1
tp542
F2.9752978602298263
s(S'2221012222'
p543
I1
tp544
F3.3885730963041087
s(S'0222220022'
p545
I1
tp546
I1
s(S'2222220111'
p547
I1
tp548
F4.618668867425264
s(S'2222000111'
p549
I2
tp550
F-99.325
s(S'2222101222'
p551
I0
tp552
F11.579014644515652
s(S'2222012222'
p553
I2
tp554
F8.931073924955648
s(S'1222222221'
p555
I2
tp556
F-7.259999999999998
s(S'2101221222'
p557
I2
tp558
F2.517173544550781
s(S'2200122112'
p559
I1
tp560
I1
s(S'1012222221'
p561
I0
tp562
F-109.6551767578125
s(S'1022222221'
p563
I1
tp564
I-200
s(S'1102222222'
p565
I1
tp566
F-73.88104338555742
s(S'2222101111'
p567
I0
tp568
F9.536276661784633
s(S'0110222222'
p569
I1
tp570
F-98.83274826363233
s(S'2210111122'
p571
I0
tp572
F7.528458666761647
s(S'2222210121'
p573
I1
tp574
F3.280728483811724
s(S'2222111002'
p575
I2
tp576
I1
s(S'1222001222'
p577
I0
tp578
F5.875
s(S'2220000111'
p579
I2
tp580
I1
s(S'2220011111'
p581
I1
tp582
F4.817315799668528
s(S'0022210122'
p583
I2
tp584
I1
s(S'0011222222'
p585
I2
tp586
F1.9725755663484572
s(S'0122222210'
p587
I1
tp588
F1.35
s(S'2200112210'
p589
I2
tp590
I1
s(S'2222220112'
p591
I1
tp592
F5.890929649002291
s(S'2102222121'
p593
I0
tp594
I5
s(S'2101222222'
p595
I0
tp596
F-36.676743567142594
s(S'1110022222'
p597
I2
tp598
F3.6801207980095465
s(S'0122222222'
p599
I0
tp600
F-148.75
s(S'1122222210'
p601
I2
tp602
I-200
s(S'0111012222'
p603
I1
tp604
F2.989216874199144
s(S'1222200222'
p605
I0
tp606
F5.35
s(S'1221000022'
p607
I1
tp608
I1
s(S'2101221221'
p609
I0
tp610
I5
s(S'2222220122'
p611
I2
tp612
F3.7608259958472083
s(S'1112222220'
p613
I1
tp614
F-67.875
s(S'2011222220'
p615
I1
tp616
F1.35
s(S'1101122222'
p617
I2
tp618
F-12.359352166572597
s(S'2222201111'
p619
I1
tp620
F6.320339704013479
s(S'2222001222'
p621
I1
tp622
F7.180192454579103
s(S'2210122111'
p623
I0
tp624
F8.95300594758072
s(S'0111222221'
p625
I2
tp626
I1
s(S'2002222222'
p627
I2
tp628
F-32.88998071305338
s(S'2220111122'
p629
I1
tp630
I1
s(S'1222000122'
p631
I1
tp632
I1
s(S'2200222222'
p633
I1
tp634
F1.4492409379312365
s(S'2011112211'
p635
I2
tp636
F1.9499357532991468
s(S'2100222222'
p637
I1
tp638
I1
s(S'2002222211'
p639
I1
tp640
F-7.011756019531246
s(S'2222001122'
p641
I2
tp642
F5.6376704787084275
s(S'2102222111'
p643
I0
tp644
F-7.9431605795981
s(S'2221012221'
p645
I0
tp646
F6.51985360501005
s(S'2222200121'
p647
I2
tp648
F3.9726205274371154
s(S'1220011122'
p649
I1
tp650
I1
s(S'1001222222'
p651
I1
tp652
I1
s(S'0122101222'
p653
I2
tp654
F2.75
s(S'1012222111'
p655
I2
tp656
F1.0
s(S'2101222211'
p657
I2
tp658
F1.991776303103251
s(S'0022222221'
p659
I2
tp660
F-44.586672003105456
s(S'0122210222'
p661
I0
tp662
F5.875
s(S'1012212221'
p663
I1
tp664
F1.53375
s(S'0012222220'
p665
I1
tp666
F-108.54723334375001
s(S'2012222221'
p667
I2
tp668
F-1.8511868442354307
s(S'0111222220'
p669
I0
tp670
F7.58414959140625
s(S'2001221221'
p671
I2
tp672
I1
s(S'2222200112'
p673
I1
tp674
F2.3116911824944326
s(S'0112222220'
p675
I2
tp676
I-200
s(S'1221012222'
p677
I2
tp678
F3.57630366828426
s(S'2100222221'
p679
I1
tp680
F-7.521279755012406
s(S'0221002222'
p681
I0
tp682
F9.568062335495505
s(S'2102222211'
p683
I2
tp684
F-11.477940269315342
s(S'2222222220'
p685
I2
tp686
I-200
s(S'2101222221'
p687
I1
tp688
F-59.043558203125
s(S'2210122222'
p689
I1
tp690
F2.2196938075192776
s(S'1110222222'
p691
I2
tp692
F-47.905228542531496
s(S'1100222222'
p693
I0
tp694
F-97.5
s(S'2201122122'
p695
I1
tp696
F1.5199815846857687
s(S'1001122222'
p697
I2
tp698
F-12.800242114517733
s(S'2222001221'
p699
I2
tp700
F4.69514120172387
s(S'2201111221'
p701
I0
tp702
F7.660660276162824
s(S'2222221011'
p703
I2
tp704
F1.0
s(S'0022222222'
p705
I0
tp706
F-112.71856687449245
s(S'2200022222'
p707
I0
tp708
F-8.861821322724571
s(S'0022210222'
p709
I0
tp710
I5
s(S'1012222211'
p711
I1
tp712
F-26.43397939942586
s(S'0111022222'
p713
I0
tp714
F-97.5
s(S'2222011221'
p715
I2
tp716
F3.932567579950212
s(S'2200122220'
p717
I1
tp718
I1
s(S'2222000111'
p719
I0
tp720
F-96.625
s(S'2001221111'
p721
I2
tp722
F3.630136316278051
s(S'2222101222'
p723
I2
tp724
F-99.2375
s(S'0111222210'
p725
I0
tp726
F6.0321718749999995
s(S'2200111221'
p727
I0
tp728
F8.801533671759596
s(S'2222201121'
p729
I2
tp730
F4.8780704958552255
s(S'1222222220'
p731
I1
tp732
F-99.5
s(S'2201222111'
p733
I2
tp734
F3.5278248925314917
s(S'1111102222'
p735
I0
tp736
F5.0
s(S'1222222222'
p737
I1
tp738
I-200
s(S'2101111121'
p739
I0
tp740
F5.0
s(S'1101222222'
p741
I1
tp742
F-170.41749809869413
s(S'0110022222'
p743
I1
tp744
F-99.26375
s(S'0112222210'
p745
I2
tp746
F-33.45961298828125
s(S'2220022222'
p747
I2
tp748
F3.123685517900184
s(S'0011122221'
p749
I1
tp750
F4.0881778878125
s(S'2222001211'
p751
I0
tp752
F8.817603338461284
s(S'2012222121'
p753
I1
tp754
I1
s(S'2222011111'
p755
I1
tp756
F6.661307077314487
s(S'0122210122'
p757
I0
tp758
F5.0
s(S'2001222111'
p759
I0
tp760
I5
s(S'1022222211'
p761
I1
tp762
F-11.5625
s(S'2200012211'
p763
I1
tp764
F1.0
s(S'2222012221'
p765
I0
tp766
F8.012568218476382
s(S'2101222222'
p767
I2
tp768
F1.816338973318377
s(S'2201122111'
p769
I2
tp770
F3.0209570487356183
s(S'0122222222'
p771
I2
tp772
F-39.67713111103238
s(S'2001111221'
p773
I1
tp774
F3.6436052982327096
s(S'2000222210'
p775
I1
tp776
F1.175
s(S'2222201122'
p777
I0
tp778
F8.255759551815112
s(S'1220012222'
p779
I1
tp780
F4.246925940234375
s(S'2011112221'
p781
I2
tp782
F4.156337605047603
s(S'2101222212'
p783
I2
tp784
I1
s(S'2201111111'
p785
I2
tp786
F5.3989317274356186
s(S'2222101121'
p787
I2
tp788
F4.367288446083547
s(S'1101222221'
p789
I1
tp790
F-55.420959767396305
s(S'1221011112'
p791
I1
tp792
I1
s(S'2110222222'
p793
I1
tp794
F-0.6697379919510134
s(S'2012222222'
p795
I2
tp796
F-4.098361541996191
s(S'2011112210'
p797
I0
tp798
I5
s(S'0110222222'
p799
I0
tp800
F-98.39482690803024
s(S'2200022221'
p801
I1
tp802
F4.216044261035155
s(S'2200122122'
p803
I1
tp804
I1
s(S'2002222222'
p805
I0
tp806
F-14.52182748146771
s(S'2101111222'
p807
I0
tp808
F5.7703092302823356
s(S'2210111112'
p809
I1
tp810
F1.876596875
s(S'0122222200'
p811
I2
tp812
I1
s(S'2001222210'
p813
I1
tp814
I1
s(S'2000122220'
p815
I1
tp816
F2.0390625
s(S'2220011210'
p817
I1
tp818
I1
s(S'2222210112'
p819
I2
tp820
F4.0274183943353625
s(S'0002222200'
p821
I2
tp822
I1
s(S'1222110022'
p823
I2
tp824
I1
s(S'2102222222'
p825
I2
tp826
F1.1616858509332402
s(S'0022222221'
p827
I0
tp828
I-200
s(S'2011222222'
p829
I0
tp830
I5
s(S'0111122221'
p831
I2
tp832
F1.0
s(S'2200112221'
p833
I1
tp834
F3.7212413083334965
s(S'1011122222'
p835
I2
tp836
F1.5810236787802696
s(S'2220001111'
p837
I0
tp838
F7.607142039734807
s(S'2012222221'
p839
I0
tp840
F-28.31261992187499
s(S'0122220122'
p841
I0
tp842
I5
s(S'0021002222'
p843
I0
tp844
I5
s(S'1002222222'
p845
I0
tp846
F-101.36369169921875
s(S'2001222222'
p847
I0
tp848
F5.712281199102254
s(S'0110122222'
p849
I2
tp850
F2.7214098735620116
s(S'0122222220'
p851
I2
tp852
F-11.758265624999996
s(S'2201222122'
p853
I2
tp854
F1.9251056318116735
s(S'2222220022'
p855
I0
tp856
F5.826642312556173
s(S'0121012222'
p857
I2
tp858
F2.174567560539674
s(S'2000222221'
p859
I1
tp860
I1
s(S'2222210111'
p861
I0
tp862
F-97.325
s(S'2102222211'
p863
I0
tp864
F-13.39813514663247
s(S'2200111122'
p865
I2
tp866
F4.8297848556330925
s(S'1222220112'
p867
I0
tp868
I5
s(S'2200111111'
p869
I1
tp870
F4.603704875468023
s(S'1100222222'
p871
I2
tp872
F1.6735102629048424
s(S'1001122222'
p873
I0
tp874
F-97.5
s(S'2220002222'
p875
I0
tp876
F5.875
s(S'1022222221'
p877
I2
tp878
I-200
s(S'1102222222'
p879
I2
tp880
F-149.6625
s(S'2102222221'
p881
I1
tp882
F-41.49351362786955
s(S'2220022221'
p883
I2
tp884
F5.588170211511109
s(S'0111022222'
p885
I2
tp886
F2.8053445109445843
s(S'2001221222'
p887
I0
tp888
F5.740783815061084
s(S'2201121122'
p889
I0
tp890
F8.832570563094293
s(S'1011222222'
p891
I0
tp892
F-97.5
s(S'2222222201'
p893
I2
tp894
F1.35
s(S'2222201221'
p895
I2
tp896
F7.148798717176052
s(S'2210222222'
p897
I1
tp898
F-10.042645373452189
s(S'1222210222'
p899
I1
tp900
F3.5430530404329446
s(S'0112222222'
p901
I1
tp902
I-200
s(S'1210122222'
p903
I1
tp904
I1
s(S'1011012222'
p905
I1
tp906
I1
s(S'2012222222'
p907
I1
tp908
F-22.598145331237575
s(S'1211012222'
p909
I0
tp910
I5
s(S'1122222210'
p911
I1
tp912
F-200.0
s(S'0012222210'
p913
I1
tp914
F1.525
s(S'2101221121'
p915
I2
tp916
F2.194784234691166
s(S'2200112222'
p917
I2
tp918
I1
s(S'2210122112'
p919
I2
tp920
F4.101077227668762
s(S'0112222210'
p921
I0
tp922
F-97.325
s(S'2222002222'
p923
I0
tp924
F14.86282421135614
s(S'0222222222'
p925
I0
tp926
F-148.75
s(S'2201111122'
p927
I2
tp928
F3.9218099383549516
s(S'2220011112'
p929
I2
tp930
I1
s(S'2012221222'
p931
I1
tp932
I1
s(S'1222220122'
p933
I0
tp934
F7.510411999152339
s(S'0222101222'
p935
I1
tp936
F7.549826899206572
s(S'2222200111'
p937
I2
tp938
I-200
s(S'2222220011'
p939
I1
tp940
F1.7268899754805336
s(S'2222222101'
p941
I2
tp942
I1
s(S'2002222111'
p943
I1
tp944
I1
s(S'1222002222'
p945
I2
tp946
I1
s(S'0022012222'
p947
I2
tp948
I1
s(S'2222200122'
p949
I0
tp950
F9.291627278441897
s(S'1222222011'
p951
I2
tp952
I-200
s(S'2220111222'
p953
I2
tp954
F1.35
s(S'1012222222'
p955
I0
tp956
F-123.125
s(S'0022220022'
p957
I2
tp958
I1
s(S'2210122221'
p959
I2
tp960
F3.2118028020243337
s(S'1222011112'
p961
I1
tp962
I1
s(S'2200111112'
p963
I0
tp964
I5
s(S'1011212221'
p965
I2
tp966
I1
s(S'2011222221'
p967
I0
tp968
F-13.307564853861287
s(S'2200122210'
p969
I1
tp970
F1.7349999999999999
s(S'1101112222'
p971
I2
tp972
I1
s(S'1100122222'
p973
I2
tp974
I1
s(S'2011122220'
p975
I0
tp976
F5.987420546875
s(S'0121102222'
p977
I1
tp978
F2.256723466428756
s(S'2012222111'
p979
I1
tp980
I1
s(S'0021102222'
p981
I1
tp982
F3.3343926949541554
s(S'1222210122'
p983
I2
tp984
F3.3660703161693126
s(S'0122102222'
p985
I0
tp986
I5
s(S'2222012211'
p987
I2
tp988
I1
s(S'2102222122'
p989
I0
tp990
I5
s(S'2200012221'
p991
I1
tp992
F2.9012926479658754
s(S'0122222221'
p993
I0
tp994
F-97.5
s(S'2001111211'
p995
I1
tp996
F1.175
s(S'2011112222'
p997
I0
tp998
F-19.752310147343866
s(S'1110222222'
p999
I1
tp1000
I-200
s(S'2200101111'
p1001
I0
tp1002
I5
s(S'2220001211'
p1003
I2
tp1004
F7.734770658698617
s(S'0011222210'
p1005
I1
tp1006
F2.75
s(S'1022222222'
p1007
I2
tp1008
F-157.759659666998
s(S'2222000122'
p1009
I1
tp1010
F3.4707427670044964
s(S'1102222221'
p1011
I2
tp1012
F-70.71563557302385
s(S'2220011221'
p1013
I2
tp1014
F7.2158768872856704
s(S'1100022222'
p1015
I2
tp1016
I1
s(S'1012222211'
p1017
I2
tp1018
F-57.09621067150878
s(S'0222222221'
p1019
I1
tp1020
F-4.39719140625
s(S'2222201222'
p1021
I2
tp1022
F7.356870852956428
s(S'1122222220'
p1023
I2
tp1024
F-99.5
s(S'0222002222'
p1025
I2
tp1026
I1
s(S'2101111111'
p1027
I1
tp1028
F2.062969810546875
s(S'2222220111'
p1029
I2
tp1030
F-99.5
s(S'2222102222'
p1031
I0
tp1032
F13.400391611166409
s(S'0022102222'
p1033
I0
tp1034
F6.599081188183657
s(S'0220022222'
p1035
I2
tp1036
F2.1721972923777715
s(S'1201122222'
p1037
I1
tp1038
I1
s(S'2222220012'
p1039
I0
tp1040
I-200
s(S'2102222221'
p1041
I0
tp1042
F-97.5
s(S'1122222200'
p1043
I2
tp1044
I-200
s(S'0022222200'
p1045
I2
tp1046
F1.6057709082031248
s(S'1012222221'
p1047
I1
tp1048
F-149.75
s(S'1022222221'
p1049
I0
tp1050
F-67.4227882294814
s(S'1102222222'
p1051
I0
tp1052
I-200
s(S'1011222221'
p1053
I2
tp1054
F1.58921953125
s(S'0110022222'
p1055
I2
tp1056
F3.0897548943359374
s(S'2222210222'
p1057
I2
tp1058
F4.0645054409022805
s(S'2001112211'
p1059
I2
tp1060
I1
s(S'0012222222'
p1061
I0
tp1062
I5
s(S'1011222222'
p1063
I2
tp1064
F2.333978827893829
s(S'2200222221'
p1065
I2
tp1066
F2.0316369227971727
s(S'2220011122'
p1067
I2
tp1068
F1.175
s(S'1121102222'
p1069
I2
tp1070
F1.6124999999999998
s(S'2001222220'
p1071
I1
tp1072
F1.70875
s(S'2220012221'
p1073
I0
tp1074
F7.0094973896469455
s(S'0011222222'
p1075
I1
tp1076
I-200
s(S'2222200011'
p1077
I1
tp1078
F2.615109349258364
s(S'2201111211'
p1079
I1
tp1080
I1
s(S'2011221222'
p1081
I2
tp1082
F2.306284622545581
s(S'0122222222'
p1083
I1
tp1084
I-200
s(S'2110122222'
p1085
I0
tp1086
F-29.5585181286581
s(S'2001211221'
p1087
I0
tp1088
I5
s(S'0022222201'
p1089
I0
tp1090
I-200
s(S'1101122222'
p1091
I1
tp1092
F-5.94674991742618
s(S'0011122220'
p1093
I0
tp1094
F6.24975967590332
s(S'2222201111'
p1095
I0
tp1096
F-93.30065804989952
s(S'2011212221'
p1097
I1
tp1098
I1
s(S'1101222221'
p1099
I2
tp1100
F-1.5330073254754826
s(S'2011122221'
p1101
I0
tp1102
F6.909110328808594
s(S'0222222222'
p1103
I2
tp1104
I-200
s(S'2110222222'
p1105
I2
tp1106
F2.1480514236102195
s(S'2222011211'
p1107
I2
tp1108
F4.684461559216421
s(S'2000022221'
p1109
I2
tp1110
F4.116583969021041
s.