(dp0
(S'2201222211'
p1
I2
tp2
F1.35
s(S'2222201222'
p3
I1
tp4
F2.9283933658337866
s(S'2201222222'
p5
I2
tp6
F1.0
s(S'2220011222'
p7
I2
tp8
F1.599375
s(S'2100222222'
p9
I2
tp10
F1.35
s(S'2220011112'
p11
I0
tp12
F6.6625
s(S'2201222221'
p13
I1
tp14
I1
s(S'2220111111'
p15
I0
tp16
F6.225
s(S'1222222222'
p17
I0
tp18
I-200
s(S'1221012222'
p19
I0
tp20
F12.081525366996122
s(S'1012222221'
p21
I0
tp22
I-200
s(S'2222012222'
p23
I1
tp24
F10.508487664303411
s(S'2220011111'
p25
I1
tp26
F3.3625
s(S'1222210122'
p27
I0
tp28
I5
s(S'2200222221'
p29
I1
tp30
I1
s(S'2220011122'
p31
I2
tp32
F2.75
s(S'0222222222'
p33
I0
tp34
F-97.5
s(S'2220122211'
p35
I0
tp36
F5.0
s(S'2101222222'
p37
I0
tp38
F5.0
s(S'1110022222'
p39
I2
tp40
F2.7329752840795676
s(S'2200122122'
p41
I2
tp42
I1
s(S'2210122222'
p43
I0
tp44
F5.9625
s(S'2201111222'
p45
I1
tp46
I1
s(S'2210222222'
p47
I1
tp48
F1.459375
s(S'1022222222'
p49
I0
tp50
I5
s(S'2222001222'
p51
I1
tp52
F3.320089616941716
s(S'2210222212'
p53
I0
tp54
I5
s(S'1222101222'
p55
I2
tp56
F3.248063374010302
s(S'2221022222'
p57
I0
tp58
F12.830014438388122
s(S'2220001222'
p59
I1
tp60
F2.9056959436312084
s(S'2222101222'
p61
I0
tp62
F6.394355066450026
s(S'2222220012'
p63
I2
tp64
I1
s(S'2222000222'
p65
I1
tp66
I1
s(S'2101222211'
p67
I2
tp68
F1.4725
s(S'2101222221'
p69
I2
tp70
F1.525
s(S'2220111222'
p71
I2
tp72
F1.4725
s(S'1220011122'
p73
I2
tp74
F3.3625
s(S'2210222221'
p75
I2
tp76
F4.0625
s(S'1222220012'
p77
I1
tp78
I1
s(S'1222001222'
p79
I2
tp80
I1
s(S'2200222220'
p81
I2
tp82
I1
s(S'1110222222'
p83
I2
tp84
F-99.325
s(S'1100222222'
p85
I0
tp86
I-200
s(S'2101111222'
p87
I2
tp88
I1
s(S'2001112222'
p89
I2
tp90
F1.0
s(S'2100222221'
p91
I2
tp92
F1.4265625
s(S'0022222222'
p93
I0
tp94
I-200
s(S'1210122222'
p95
I0
tp96
F5.0
s(S'2210222211'
p97
I1
tp98
F1.35
s(S'2011122222'
p99
I0
tp100
I5
s(S'2201112222'
p101
I0
tp102
F5.35
s(S'2011112222'
p103
I0
tp104
F5.0
s(S'2101112222'
p105
I1
tp106
F2.75
s(S'2200222211'
p107
I0
tp108
I5
s(S'2221002222'
p109
I0
tp110
F7.006845037202857
s(S'2200122222'
p111
I2
tp112
I1
s(S'1222011122'
p113
I0
tp114
F8.54375
s(S'0222222222'
p115
I1
tp116
I1
s(S'1110122222'
p117
I0
tp118
I-200
s(S'2222002222'
p119
I2
tp120
F3.168224960338958
s(S'1111022222'
p121
I1
tp122
F2.668694908146401
s(S'0222222221'
p123
I2
tp124
I1
s(S'2200112222'
p125
I0
tp126
F6.61875
s(S'2220012222'
p127
I2
tp128
F1.6368331303222656
s(S'2221012222'
p129
I0
tp130
F14.397141449539959
s(S'1222220011'
p131
I0
tp132
I-200
s(S'2101122222'
p133
I2
tp134
I1
s(S'2222102222'
p135
I0
tp136
I5
s(S'2211022222'
p137
I2
tp138
F9.47508440842645
s(S'1110122222'
p139
I2
tp140
I1
s(S'1012222222'
p141
I1
tp142
F1.35
s(S'1222220122'
p143
I2
tp144
I1
s(S'2220002222'
p145
I2
tp146
F2.3941323858218073
s(S'1222002222'
p147
I0
tp148
F6.257659902238765
s(S'1002222221'
p149
I2
tp150
I1
s(S'0012222222'
p151
I0
tp152
I5
s(S'1100222222'
p153
I1
tp154
I1
s(S'2210122211'
p155
I1
tp156
F1.35
s(S'2210122221'
p157
I0
tp158
F5.65625
s(S'2200012222'
p159
I0
tp160
F7.625
s(S'0122222222'
p161
I1
tp162
F1.4375
s(S'2002222222'
p163
I0
tp164
I5
s(S'1222200222'
p165
I1
tp166
F3.1990211994103293
s(S'1221002222'
p167
I0
tp168
F8.21988770700845
s(S'1222210222'
p169
I0
tp170
I5
s(S'1102222221'
p171
I1
tp172
F-99.5
s(S'1221011122'
p173
I0
tp174
I5
s(S'2200002222'
p175
I2
tp176
I1
s(S'0222222222'
p177
I2
tp178
I1
s(S'1110122222'
p179
I1
tp180
F1.4725
s(S'2110222222'
p181
I2
tp182
F1.515375
s.