(dp0
(S'2201222211'
p1
I2
tp2
F2.1098616552734373
s(S'2222201222'
p3
I1
tp4
F4.108987818354126
s(S'2201222222'
p5
I2
tp6
F1.0
s(S'2220011222'
p7
I2
tp8
F2.9054564853515625
s(S'2100222222'
p9
I2
tp10
F2.1803749999999997
s(S'1101222222'
p11
I0
tp12
F5.35
s(S'2011222222'
p13
I0
tp14
F6.031195703125
s(S'1222000122'
p15
I0
tp16
I5
s(S'2220011112'
p17
I0
tp18
F9.806921874999999
s(S'1222011222'
p19
I2
tp20
I1
s(S'2201222221'
p21
I1
tp22
I1
s(S'1200122222'
p23
I0
tp24
I5
s(S'2220111111'
p25
I0
tp26
F8.866335156249999
s(S'1222222222'
p27
I0
tp28
I-200
s(S'1221012222'
p29
I0
tp30
F12.73812309517718
s(S'2210111112'
p31
I0
tp32
I5
s(S'1012222221'
p33
I0
tp34
I-200
s(S'1102222222'
p35
I1
tp36
F1.6247828125
s(S'1011122221'
p37
I0
tp38
I5
s(S'1111012222'
p39
I1
tp40
F3.725990099776939
s(S'2222012221'
p41
I1
tp42
F1.9966249999999999
s(S'1022222222'
p43
I1
tp44
F-111.45653756223297
s(S'2222012222'
p45
I1
tp46
F10.977019188082291
s(S'2220011111'
p47
I1
tp48
F3.3625
s(S'1222210122'
p49
I0
tp50
I5
s(S'1102222222'
p51
I2
tp52
I-200
s(S'2200222221'
p53
I1
tp54
F2.5141319921874996
s(S'1001122222'
p55
I0
tp56
F-97.325
s(S'2220011122'
p57
I2
tp58
F4.795903125
s(S'2220012221'
p59
I1
tp60
F2.691816811083984
s(S'0222222222'
p61
I0
tp62
F-97.5
s(S'2220122211'
p63
I0
tp64
F6.601009375
s(S'2101222222'
p65
I0
tp66
F5.0
s(S'1110022222'
p67
I2
tp68
F2.358265303354941
s(S'2012222222'
p69
I1
tp70
F1.35
s(S'2200001222'
p71
I1
tp72
I1
s(S'0122222222'
p73
I0
tp74
I-200
s(S'2200122122'
p75
I2
tp76
I1
s(S'1200112222'
p77
I0
tp78
F5.35
s(S'2210122222'
p79
I0
tp80
F5.915884375
s(S'2201111222'
p81
I1
tp82
I1
s(S'2210222222'
p83
I1
tp84
F2.120888671875
s(S'1022222222'
p85
I0
tp86
F-148.509375
s(S'1222201222'
p87
I0
tp88
I5
s(S'0222201111'
p89
I1
tp90
F-99.5
s(S'2222001222'
p91
I1
tp92
F3.6591665155015103
s(S'1222011112'
p93
I2
tp94
F1.0
s(S'2210222212'
p95
I0
tp96
I5
s(S'1222101222'
p97
I2
tp98
F3.9697206406925565
s(S'1110012222'
p99
I2
tp100
I1
s(S'2200122220'
p101
I2
tp102
F4.640997906738281
s(S'2200122111'
p103
I2
tp104
I1
s(S'1201112222'
p105
I1
tp106
F2.75
s(S'1001222221'
p107
I2
tp108
I1
s(S'0112222222'
p109
I2
tp110
I1
s(S'2221022222'
p111
I0
tp112
F13.159038894680766
s(S'0222201111'
p113
I2
tp114
I-200
s(S'0222011112'
p115
I1
tp116
I1
s(S'2220001222'
p117
I1
tp118
F3.5526035698235523
s(S'2222101222'
p119
I0
tp120
F12.12406105275756
s(S'2222220012'
p121
I2
tp122
I1
s(S'1111022222'
p123
I0
tp124
F6.703270674713925
s(S'2200122221'
p125
I0
tp126
F7.378837256591797
s(S'1000222222'
p127
I0
tp128
I-200
s(S'2000222222'
p129
I2
tp130
I1
s(S'2200222222'
p131
I2
tp132
F3.0747032202148437
s(S'2222000222'
p133
I1
tp134
F2.2101960857504652
s(S'2101222211'
p135
I2
tp136
F2.18864908203125
s(S'1101222222'
p137
I2
tp138
I-200
s(S'1221022222'
p139
I2
tp140
I1
s(S'2101222221'
p141
I2
tp142
F3.9198705976562493
s(S'2220111222'
p143
I2
tp144
F2.8491757812499996
s(S'1220011122'
p145
I2
tp146
F4.83578125
s(S'1222000222'
p147
I0
tp148
F5.0
s(S'1012222222'
p149
I2
tp150
F2.5708401953125
s(S'2210222221'
p151
I2
tp152
F3.6527120703125
s(S'1222220012'
p153
I1
tp154
I1
s(S'1111002222'
p155
I2
tp156
I1
s(S'1100122222'
p157
I2
tp158
F1.690375
s(S'2220022221'
p159
I1
tp160
I1
s(S'2220111112'
p161
I1
tp162
I1
s(S'1222001222'
p163
I2
tp164
F1.5132587057274043
s(S'2200111222'
p165
I2
tp166
I1
s(S'2222011122'
p167
I1
tp168
I1
s(S'2200222220'
p169
I2
tp170
I1
s(S'1110222222'
p171
I2
tp172
F-99.325
s(S'1100222222'
p173
I0
tp174
I-200
s(S'2101111222'
p175
I2
tp176
I1
s(S'1002222222'
p177
I1
tp178
F-15.97361874923553
s(S'2001112222'
p179
I2
tp180
F2.441015625
s(S'0222011111'
p181
I2
tp182
F1.4725
s(S'2222000122'
p183
I2
tp184
I1
s(S'2100222221'
p185
I2
tp186
F1.409212890625
s(S'0022222222'
p187
I0
tp188
I-200
s(S'1210122222'
p189
I0
tp190
F5.5551875
s(S'1220011112'
p191
I1
tp192
I1
s(S'1100022222'
p193
I1
tp194
F-99.26375
s(S'2200022222'
p195
I0
tp196
F5.904944431152344
s(S'2221011111'
p197
I1
tp198
I1
s(S'2210222211'
p199
I1
tp200
F1.9857874824218749
s(S'2011122222'
p201
I0
tp202
I5
s(S'2201112222'
p203
I0
tp204
F6.5204492187500005
s(S'2011112222'
p205
I0
tp206
F5.52915625
s(S'2101112222'
p207
I1
tp208
F4.30859375
s(S'2200222211'
p209
I0
tp210
F6.200086562499999
s(S'2221002222'
p211
I0
tp212
F8.125957481282953
s(S'2001222221'
p213
I0
tp214
I5
s(S'2200122222'
p215
I2
tp216
F4.918558196533203
s(S'1022222222'
p217
I2
tp218
F-98.93856823923997
s(S'1222102222'
p219
I1
tp220
F2.4535492968744235
s(S'1222011122'
p221
I0
tp222
F6.0259374999999995
s(S'1102222221'
p223
I2
tp224
I1
s(S'1011122222'
p225
I0
tp226
F5.776008873113235
s(S'0222222222'
p227
I1
tp228
I1
s(S'1110122222'
p229
I0
tp230
I-200
s(S'2222002222'
p231
I2
tp232
F3.826323062683066
s(S'1111022222'
p233
I1
tp234
F-98.66565254592679
s(S'0222222221'
p235
I2
tp236
I1
s(S'2101222220'
p237
I2
tp238
I1
s(S'2011122221'
p239
I1
tp240
F1.0
s(S'1222000012'
p241
I1
tp242
I1
s(S'2201122222'
p243
I1
tp244
I1
s(S'1001222222'
p245
I2
tp246
F2.75
s(S'2200112222'
p247
I0
tp248
F9.723783203124999
s(S'2220012222'
p249
I2
tp250
F3.364248929048175
s(S'2221012222'
p251
I0
tp252
F14.63324891680433
s(S'1101222222'
p253
I1
tp254
I-200
s(S'1222220011'
p255
I0
tp256
I-200
s(S'2101122222'
p257
I2
tp258
I1
s(S'2222102222'
p259
I0
tp260
F8.365864536471538
s(S'1110222222'
p261
I1
tp262
F2.28625
s(S'2211022222'
p263
I2
tp264
F10.609989060233026
s(S'1110122222'
p265
I2
tp266
F1.0
s(S'0122001222'
p267
I0
tp268
I5
s(S'1012222222'
p269
I1
tp270
F-32.347978395552516
s(S'2220122221'
p271
I1
tp272
F3.9252751479492183
s(S'1222220122'
p273
I2
tp274
I1
s(S'2220002222'
p275
I2
tp276
F3.420056119377163
s(S'1012222222'
p277
I0
tp278
F-28.956562499999997
s(S'1102222222'
p279
I0
tp280
F5.35
s(S'0011222221'
p281
I2
tp282
I1
s(S'1222002222'
p283
I0
tp284
F7.191099131739652
s(S'0122222222'
p285
I2
tp286
F-99.18229658538819
s(S'1002222221'
p287
I2
tp288
I1
s(S'0012222222'
p289
I0
tp290
I5
s(S'1011222222'
p291
I2
tp292
F2.8724999999999996
s(S'1221011112'
p293
I2
tp294
I1
s(S'1100222222'
p295
I1
tp296
F1.0
s(S'1002222222'
p297
I0
tp298
F-97.5
s(S'2210122211'
p299
I1
tp300
F2.9230857119140623
s(S'2210122221'
p301
I0
tp302
F5.928197265625
s(S'0222001111'
p303
I2
tp304
F1.175
s(S'1101122222'
p305
I0
tp306
F5.0
s(S'2200012222'
p307
I0
tp308
F10.813072070312499
s(S'0122222222'
p309
I1
tp310
F-99.13906250000001
s(S'2002222222'
p311
I0
tp312
I5
s(S'1002222222'
p313
I2
tp314
F-99.5
s(S'1222200222'
p315
I1
tp316
F4.151422628892803
s(S'1221002222'
p317
I0
tp318
F10.281212644911761
s(S'1222210222'
p319
I0
tp320
I5
s(S'1102222221'
p321
I1
tp322
F-99.5
s(S'0022222222'
p323
I2
tp324
F-6.326788207625578
s(S'1221011122'
p325
I0
tp326
F8.17865625
s(S'2221012221'
p327
I2
tp328
I1
s(S'2200002222'
p329
I2
tp330
F2.0058037499999997
s(S'0222222222'
p331
I2
tp332
I1
s(S'1110122222'
p333
I1
tp334
F1.58625
s(S'2110222222'
p335
I2
tp336
F3.072109375
s(S'1111022222'
p337
I2
tp338
F2.0696874999999997
s(S'0222011122'
p339
I0
tp340
I5
s.