(dp0
(S'2220111111'
p1
I2
tp2
F1.6160640165401623
s(S'2200101221'
p3
I2
tp4
I1
s(S'2201222222'
p5
I2
tp6
F1.35
s(S'2221002222'
p7
I2
tp8
F8.659796086175046
s(S'1222220011'
p9
I1
tp10
F-99.5
s(S'1002222221'
p11
I2
tp12
I1
s(S'1101222222'
p13
I0
tp14
I-200
s(S'2222220111'
p15
I1
tp16
F2.1979420928539994
s(S'1110122222'
p17
I0
tp18
F-97.5
s(S'2221012211'
p19
I0
tp20
I5
s(S'0222220011'
p21
I0
tp22
I-200
s(S'2222101222'
p23
I0
tp24
F9.577146583983607
s(S'0012222222'
p25
I0
tp26
F5.960652281777343
s(S'2210111111'
p27
I1
tp28
I1
s(S'0022222222'
p29
I2
tp30
F1.8859492738769532
s(S'2210122122'
p31
I0
tp32
I5
s(S'1012222222'
p33
I2
tp34
F-98.53008057250977
s(S'2101222111'
p35
I0
tp36
F6.24788125
s(S'0110122222'
p37
I2
tp38
I1
s(S'1012222221'
p39
I0
tp40
I-200
s(S'1022222211'
p41
I0
tp42
I-200
s(S'1102222222'
p43
I1
tp44
F1.5507987939453125
s(S'1222200012'
p45
I0
tp46
I5
s(S'1222220011'
p47
I2
tp48
F-99.5
s(S'1111002222'
p49
I0
tp50
I5
s(S'2222220011'
p51
I0
tp52
I-200
s(S'2102222211'
p53
I0
tp54
F5.175
s(S'0112122221'
p55
I1
tp56
I1
s(S'2200001222'
p57
I2
tp58
I1
s(S'2222012222'
p59
I1
tp60
F5.083659286453228
s(S'0111222220'
p61
I1
tp62
F1.525
s(S'2200111111'
p63
I1
tp64
F1.992162503263608
s(S'2220011111'
p65
I1
tp66
F2.1181443752546545
s(S'2200222221'
p67
I1
tp68
I1
s(S'2220001222'
p69
I1
tp70
F6.801172294499086
s(S'2220002222'
p71
I0
tp72
F11.010391927745234
s(S'1210122122'
p73
I0
tp74
I5
s(S'2200102222'
p75
I0
tp76
I5
s(S'2222001222'
p77
I2
tp78
F5.313008503397574
s(S'1102222222'
p79
I2
tp80
F-15.539626332031249
s(S'2222002222'
p81
I1
tp82
F4.709288577432778
s(S'2222220112'
p83
I1
tp84
F2.8867972495391583
s(S'0222220012'
p85
I1
tp86
I1
s(S'0222220001'
p87
I0
tp88
I-200
s(S'0011222221'
p89
I0
tp90
I5
s(S'2012222222'
p91
I1
tp92
F2.182008447265625
s(S'0122222222'
p93
I0
tp94
I-200
s(S'2220000111'
p95
I1
tp96
F1.6272956725225547
s(S'2011112222'
p97
I2
tp98
I1
s(S'2222200222'
p99
I0
tp100
F6.665095953141793
s(S'2220101111'
p101
I1
tp102
I1
s(S'2200122111'
p103
I1
tp104
F4.543749999999999
s(S'2011222222'
p105
I0
tp106
F5.615774396972656
s(S'1221002222'
p107
I1
tp108
I1
s(S'1022222222'
p109
I0
tp110
F-96.98391406249999
s(S'1102222221'
p111
I0
tp112
I-200
s(S'2222201111'
p113
I1
tp114
F3.350173048236021
s(S'2201122111'
p115
I0
tp116
F6.53125
s(S'1011112210'
p117
I2
tp118
F1.35
s(S'0222222001'
p119
I0
tp120
I-200
s(S'1222220012'
p121
I0
tp122
F-65.0
s(S'2011122221'
p123
I1
tp124
F1.0
s(S'2222001121'
p125
I0
tp126
I5
s(S'1110222221'
p127
I0
tp128
I5
s(S'2200122222'
p129
I1
tp130
I1
s(S'2201112222'
p131
I1
tp132
F6.345206682406616
s(S'2201222111'
p133
I0
tp134
I5
s(S'2222201222'
p135
I0
tp136
F7.646432729625757
s(S'2222000121'
p137
I0
tp138
I5
s(S'0022222222'
p139
I1
tp140
F-99.5
s(S'2222220122'
p141
I1
tp142
F2.5692823115452237
s(S'2002222211'
p143
I1
tp144
F1.7778749999999999
s(S'2221012222'
p145
I2
tp146
F5.05694617155235
s(S'2222001111'
p147
I0
tp148
F8.157085381408601
s(S'1222200012'
p149
I2
tp150
F-10.725
s(S'2222000111'
p151
I1
tp152
F2.6096886534392087
s(S'0222220011'
p153
I1
tp154
F-99.5
s(S'2210122221'
p155
I1
tp156
I1
s(S'0220122221'
p157
I1
tp158
I1
s(S'2222220012'
p159
I2
tp160
I1
s(S'1101222222'
p161
I1
tp162
F-23.7320454296875
s(S'2220111222'
p163
I1
tp164
I1
s(S'1222222220'
p165
I2
tp166
F1.0
s(S'2102222111'
p167
I0
tp168
F5.23625
s(S'2200222222'
p169
I2
tp170
F1.35
s(S'2210222221'
p171
I1
tp172
F1.0
s(S'1112222210'
p173
I2
tp174
F2.75
s(S'2222210122'
p175
I2
tp176
F2.458027936480634
s(S'2101222211'
p177
I2
tp178
F2.75
s(S'1101222222'
p179
I2
tp180
F-99.5
s(S'2222000112'
p181
I2
tp182
I1
s(S'0221012222'
p183
I1
tp184
F1.413940625
s(S'2220011222'
p185
I0
tp186
F5.0
s(S'2222220011'
p187
I1
tp188
I-200
s(S'2222210111'
p189
I1
tp190
F2.6649153702585293
s(S'0222220011'
p191
I2
tp192
F-16.15
s(S'0011122221'
p193
I0
tp194
I5
s(S'1210222222'
p195
I2
tp196
F1.35
s(S'2210111222'
p197
I0
tp198
I5
s(S'1222222221'
p199
I0
tp200
I-200
s(S'1002222211'
p201
I2
tp202
I1
s(S'1012222222'
p203
I0
tp204
F-118.41927919232788
s(S'1002222222'
p205
I2
tp206
F-99.325
s(S'2222200112'
p207
I1
tp208
F2.6111280066823097
s(S'2222001211'
p209
I1
tp210
F1.35
s(S'2200111121'
p211
I0
tp212
I5
s(S'2222200111'
p213
I1
tp214
F2.565529290134369
s(S'1210222222'
p215
I1
tp216
F-33.727038281249996
s(S'0022222111'
p217
I2
tp218
I1
s(S'1210122221'
p219
I2
tp220
I1
s(S'0011122210'
p221
I1
tp222
F2.75
s(S'2200222220'
p223
I2
tp224
I1
s(S'1100222222'
p225
I0
tp226
I-200
s(S'2201111222'
p227
I2
tp228
F1.0
s(S'1002222222'
p229
I1
tp230
F-99.5
s(S'2201121111'
p231
I0
tp232
I5
s(S'2001112222'
p233
I2
tp234
F3.409547967285156
s(S'2011112221'
p235
I1
tp236
F1.35
s(S'2222000122'
p237
I2
tp238
F3.0606743382637074
s(S'2100222221'
p239
I2
tp240
I1
s(S'2222201111'
p241
I2
tp242
F-98.82242608731667
s(S'0022222222'
p243
I0
tp244
F-96.8704381015625
s(S'1210122222'
p245
I0
tp246
F5.9625
s(S'2220001121'
p247
I1
tp248
I1
s(S'0222220001'
p249
I2
tp250
F-99.5
s(S'0100222222'
p251
I0
tp252
I5
s(S'1012222211'
p253
I1
tp254
F1.118125
s(S'2220001221'
p255
I2
tp256
F2.4651526571655147
s(S'2001112211'
p257
I1
tp258
F1.35
s(S'0011122220'
p259
I2
tp260
I1
s(S'2222200011'
p261
I1
tp262
I-200
s(S'0211022222'
p263
I2
tp264
F1.9849459374999998
s(S'2001112221'
p265
I1
tp266
F1.35
s(S'2001212222'
p267
I0
tp268
F-28.43856685791016
s(S'0210122222'
p269
I1
tp270
F1.0
s(S'1022222222'
p271
I2
tp272
F-11.306640297916868
s(S'2220012210'
p273
I0
tp274
I5
s(S'1102222221'
p275
I2
tp276
F-99.5
s(S'1222220012'
p277
I2
tp278
F-22.9859375
s(S'0111122210'
p279
I0
tp280
F5.35
s(S'1211022222'
p281
I1
tp282
F1.0
s(S'0222222222'
p283
I1
tp284
I-200
s(S'2220001111'
p285
I2
tp286
F1.7945072552885883
s(S'2102222221'
p287
I0
tp288
I-200
s(S'2201121222'
p289
I2
tp290
I1
s(S'0122222111'
p291
I0
tp292
I5
s(S'2001111111'
p293
I1
tp294
F1.35
s(S'1012222221'
p295
I2
tp296
I-200
s(S'2200112222'
p297
I0
tp298
F8.338956617786256
s(S'2220012222'
p299
I2
tp300
F6.59015834981475
s(S'1022222211'
p301
I2
tp302
F1.0875
s(S'2222200012'
p303
I1
tp304
F2.441349137011529
s(S'1222220011'
p305
I0
tp306
I-200
s(S'2101122222'
p307
I2
tp308
I1
s(S'2222220011'
p309
I2
tp310
F-99.15
s(S'2222102222'
p311
I0
tp312
F10.900233999606264
s(S'2220010111'
p313
I2
tp314
F1.7293273240608174
s(S'1200222222'
p315
I2
tp316
F1.875
s(S'2222220012'
p317
I0
tp318
I-200
s(S'2222001111'
p319
I2
tp320
F-99.0678674939917
s(S'1012222221'
p321
I1
tp322
I-200
s(S'1012222222'
p323
I1
tp324
F-98.87270614257812
s(S'0122222220'
p325
I0
tp326
F5.0
s(S'2201122222'
p327
I2
tp328
I1
s(S'2001222222'
p329
I1
tp330
F2.00493927734375
s(S'1221012222'
p331
I1
tp332
I1
s(S'2222200011'
p333
I2
tp334
I1
s(S'1022222221'
p335
I0
tp336
I-200
s(S'2101111111'
p337
I2
tp338
F2.2560198191287024
s(S'2222200111'
p339
I0
tp340
I-200
s(S'1102222222'
p341
I0
tp342
I-200
s(S'0110022222'
p343
I2
tp344
I1
s(S'2101222222'
p345
I2
tp346
F1.8113437499999998
s(S'1110022222'
p347
I0
tp348
I5
s(S'0122222222'
p349
I2
tp350
F2.222360402539062
s(S'2222200122'
p351
I2
tp352
F3.2997603937874516
s(S'2200111222'
p353
I1
tp354
F2.7223253906249996
s(S'2201222211'
p355
I1
tp356
F2.915375
s(S'2101222221'
p357
I0
tp358
F5.6125
s(S'2220111121'
p359
I0
tp360
I5
s(S'1002222222'
p361
I0
tp362
F6.0289435992431635
s(S'0122222001'
p363
I1
tp364
I-200
s(S'2220122221'
p365
I1
tp366
I1
s(S'0222222111'
p367
I2
tp368
I-200
s(S'2200012221'
p369
I2
tp370
F1.35
s(S'2201111111'
p371
I2
tp372
F3.835389425006803
s(S'0222222001'
p373
I2
tp374
I-200
s(S'2101112222'
p375
I0
tp376
F7.42253719317627
s(S'0122222221'
p377
I1
tp378
I1
s(S'2210222212'
p379
I2
tp380
I1
s(S'0222220001'
p381
I1
tp382
I-200
s(S'0111222221'
p383
I0
tp384
I5
s(S'1111022222'
p385
I2
tp386
F1.0
s(S'1110222222'
p387
I0
tp388
I-200
s(S'2210222222'
p389
I0
tp390
I5
s(S'2210122220'
p391
I0
tp392
I5
s(S'2220110111'
p393
I0
tp394
I5
s(S'2222001221'
p395
I0
tp396
F7.518028735015861
s(S'1022222222'
p397
I1
tp398
F-99.325
s(S'1100222222'
p399
I2
tp400
I1
s(S'1022222111'
p401
I1
tp402
I1
s(S'1102222221'
p403
I1
tp404
I1
s(S'0222222001'
p405
I1
tp406
F-200.0
s(S'2222210112'
p407
I2
tp408
I1
s(S'0222222222'
p409
I2
tp410
F-99.5
s(S'2110222222'
p411
I2
tp412
I1
s(S'2222011211'
p413
I2
tp414
F3.05625
s.