(dp0
(S'2200011210'
p1
I2
tp2
I1
s(S'2000122221'
p3
I1
tp4
I1
s(S'2002222211'
p5
I0
tp6
I5
s(S'2222220111'
p7
I1
tp8
F3.18564750612848
s(S'0011222220'
p9
I2
tp10
I1
s(S'2220001111'
p11
I0
tp12
F5.0
s(S'2222012222'
p13
I2
tp14
F8.349493453568158
s(S'1222222221'
p15
I2
tp16
I1
s(S'2001111221'
p17
I1
tp18
I1
s(S'2222011111'
p19
I0
tp20
I-200
s(S'2000222221'
p21
I1
tp22
I1
s(S'2222101111'
p23
I0
tp24
F6.75
s(S'2222210111'
p25
I0
tp26
F-97.325
s(S'2210111122'
p27
I0
tp28
I5
s(S'2222210121'
p29
I1
tp30
F1.35
s(S'0012222220'
p31
I2
tp32
F-99.5
s(S'2220000111'
p33
I2
tp34
I1
s(S'0111222220'
p35
I1
tp36
F1.0
s(S'2220011111'
p37
I1
tp38
F3.3099999999999996
s(S'0112222220'
p39
I1
tp40
F1.0
s(S'2200001221'
p41
I1
tp42
I1
s(S'0122222210'
p43
I1
tp44
I1
s(S'2222220112'
p45
I1
tp46
F3.2406920669044434
s(S'2220001221'
p47
I0
tp48
F7.625
s(S'1122222210'
p49
I2
tp50
I-200
s(S'2222220122'
p51
I2
tp52
F1.175
s(S'1112222220'
p53
I1
tp54
I1
s(S'2220012221'
p55
I0
tp56
I5
s(S'2222201111'
p57
I1
tp58
F2.521752771134704
s(S'1222222011'
p59
I0
tp60
I-200
s(S'2001122210'
p61
I0
tp62
F5.35
s(S'2101222211'
p63
I1
tp64
I1
s(S'2222220111'
p65
I0
tp66
F-97.5
s(S'0112222210'
p67
I0
tp68
I5
s(S'2222001111'
p69
I1
tp70
F3.1739433737190774
s(S'2222101222'
p71
I0
tp72
F10.19091366800765
s(S'2000122210'
p73
I2
tp74
F1.0
s(S'2222200121'
p75
I2
tp76
I1
s(S'2201111122'
p77
I2
tp78
I1
s(S'2012221222'
p79
I1
tp80
I1
s(S'1222220122'
p81
I0
tp82
F5.0
s(S'1222221012'
p83
I1
tp84
I1
s(S'1112222210'
p85
I2
tp86
I1
s(S'2222200111'
p87
I2
tp88
I-200
s(S'2201111221'
p89
I0
tp90
I5
s(S'2222210111'
p91
I1
tp92
F2.899183943412994
s(S'2222200122'
p93
I0
tp94
F6.296894264524052
s(S'2101222111'
p95
I2
tp96
I1
s(S'1122222200'
p97
I1
tp98
I-200
s(S'2200122111'
p99
I1
tp100
I1
s(S'2222201221'
p101
I2
tp102
I1
s(S'2222200111'
p103
I1
tp104
F2.7343529051593753
s(S'2200122210'
p105
I1
tp106
F1.525
s(S'2001211221'
p107
I0
tp108
I5
s(S'0011122221'
p109
I1
tp110
F1.35
s(S'1222210122'
p111
I2
tp112
I1
s(S'2201111222'
p113
I2
tp114
I1
s(S'1112222220'
p115
I0
tp116
I-200
s(S'2222001221'
p117
I2
tp118
F2.421726436290327
s(S'2200012221'
p119
I1
tp120
F1.63
s(S'2222201111'
p121
I2
tp122
F-99.07156653063477
s(S'2222221011'
p123
I2
tp124
I1
s(S'1222220012'
p125
I1
tp126
F1.4725
s(S'0122222221'
p127
I0
tp128
F5.0
s(S'2222011221'
p129
I2
tp130
I1
s(S'2201222211'
p131
I0
tp132
I5
s(S'2001112221'
p133
I1
tp134
F2.75
s(S'2222200222'
p135
I2
tp136
F5.2328618491276915
s(S'2200122220'
p137
I1
tp138
I1
s(S'2222221012'
p139
I1
tp140
I1
s(S'0011222210'
p141
I1
tp142
I1
s(S'2220012210'
p143
I0
tp144
F5.58625
s(S'2220011221'
p145
I2
tp146
F2.75
s(S'2222000111'
p147
I0
tp148
I5
s(S'0222222222'
p149
I1
tp150
F-99.5
s(S'2222101222'
p151
I2
tp152
F-99.2375
s(S'1012222211'
p153
I2
tp154
I1
s(S'0111222210'
p155
I0
tp156
I5
s(S'2200111221'
p157
I0
tp158
F5.0
s(S'2222101221'
p159
I0
tp160
F8.618589183878182
s(S'2200112210'
p161
I2
tp162
I1
s(S'2222201222'
p163
I2
tp164
F5.376245888267583
s(S'2220011211'
p165
I0
tp166
I5
s(S'1102222221'
p167
I1
tp168
I1
s(S'2222220111'
p169
I2
tp170
F-99.5
s(S'2222220011'
p171
I2
tp172
I-200
s(S'2222102222'
p173
I0
tp174
F13.020543697696489
s(S'0012222220'
p175
I0
tp176
I-200
s(S'2000122220'
p177
I1
tp178
F1.35
s(S'2222220012'
p179
I0
tp180
I-200
s(S'2222001211'
p181
I0
tp182
F5.646286538609773
s(S'1012222221'
p183
I1
tp184
I1
s(S'2220012211'
p185
I2
tp186
I1
s(S'2222210122'
p187
I0
tp188
F8.485797660149961
s(S'2200012211'
p189
I1
tp190
I1
s(S'2222210222'
p191
I2
tp192
F1.35
s(S'1222220112'
p193
I0
tp194
I5
s(S'0002222220'
p195
I1
tp196
F1.525
s(S'2222201122'
p197
I0
tp198
I5
s(S'2011112221'
p199
I2
tp200
I1
s(S'2001222220'
p201
I1
tp202
F1.35
s(S'2000222220'
p203
I0
tp204
F5.35
s(S'0011222222'
p205
I1
tp206
I-200
s(S'2222101121'
p207
I2
tp208
F1.553241938830194
s(S'2222002222'
p209
I0
tp210
F13.694836795434636
s(S'2200022221'
p211
I1
tp212
I1
s(S'0002222210'
p213
I2
tp214
F1.4725
s(S'2222201121'
p215
I2
tp216
F2.8551530247836143
s(S'2222201111'
p217
I0
tp218
F-93.30065804989952
s(S'2220011210'
p219
I1
tp220
I1
s(S'2222210112'
p221
I2
tp222
I1
s(S'2222001121'
p223
I2
tp224
F1.0
s(S'2222011211'
p225
I2
tp226
I1
s.