(dp0
(S'1112222210'
p1
I2
tp2
I1
s(S'2221002222'
p3
I2
tp4
F4.681889386744476
s(S'2222200122'
p5
I2
tp6
F1.592053392287889
s(S'0011122210'
p7
I1
tp8
I1
s(S'1011112210'
p9
I2
tp10
I1
s(S'2102222211'
p11
I0
tp12
I5
s(S'2200111222'
p13
I1
tp14
I1
s(S'2001222222'
p15
I1
tp16
I1
s(S'2222220111'
p17
I1
tp18
F1.9099993803427264
s(S'1012222222'
p19
I0
tp20
I5
s(S'2201222111'
p21
I0
tp22
I5
s(S'2101111111'
p23
I2
tp24
I1
s(S'2222200111'
p25
I0
tp26
I-200
s(S'0222220011'
p27
I0
tp28
I-200
s(S'2001112222'
p29
I2
tp30
I1
s(S'2222101222'
p31
I0
tp32
F11.126559670750279
s(S'2220012222'
p33
I2
tp34
F1.0
s(S'2222201222'
p35
I0
tp36
F8.04295431499697
s(S'2222000121'
p37
I0
tp38
I5
s(S'2222201111'
p39
I2
tp40
F-98.82242608731667
s(S'2222220122'
p41
I1
tp42
F1.53375
s(S'2101222111'
p43
I0
tp44
F5.0
s(S'2002222211'
p45
I1
tp46
I1
s(S'2221012222'
p47
I2
tp48
F6.003133449381876
s(S'2201112222'
p49
I1
tp50
I1
s(S'1222222220'
p51
I2
tp52
I1
s(S'1012222211'
p53
I1
tp54
F1.0
s(S'1012222221'
p55
I0
tp56
I-200
s(S'1222200012'
p57
I2
tp58
F1.0
s(S'1022222211'
p59
I0
tp60
I-200
s(S'2222000111'
p61
I1
tp62
F1.2867458430147063
s(S'2222210112'
p63
I2
tp64
I1
s(S'2222220011'
p65
I0
tp66
I-200
s(S'2220002222'
p67
I0
tp68
F5.875
s(S'0122222220'
p69
I0
tp70
I5
s(S'2201111111'
p71
I2
tp72
F2.0018110361328127
s(S'0222222001'
p73
I2
tp74
I-200
s(S'2101112222'
p75
I0
tp76
I5
s(S'0222220011'
p77
I2
tp78
F1.0
s(S'2222012222'
p79
I1
tp80
F3.1594828450189545
s(S'2222000122'
p81
I2
tp82
I1
s(S'0222220001'
p83
I1
tp84
I-200
s(S'2200111111'
p85
I1
tp86
F2.180952677734375
s(S'2220011111'
p87
I1
tp88
I1
s(S'1222220012'
p89
I2
tp90
F1.35
s(S'0111122210'
p91
I0
tp92
I5
s(S'2222210122'
p93
I2
tp94
F1.79625
s(S'2222001111'
p95
I0
tp96
I5
s(S'2220001111'
p97
I2
tp98
I1
s(S'0111222220'
p99
I1
tp100
F1.0
s(S'2222210111'
p101
I1
tp102
I1
s(S'1022222222'
p103
I1
tp104
F1.35
s(S'2222001222'
p105
I2
tp106
F4.516434294433593
s(S'2222001111'
p107
I2
tp108
F-99.0678674939917
s(S'2222220112'
p109
I1
tp110
F1.2625
s(S'2222002222'
p111
I1
tp112
F3.302691940038006
s(S'0022222222'
p113
I1
tp114
F-99.5
s(S'0222220012'
p115
I1
tp116
I1
s(S'2001111111'
p117
I1
tp118
I1
s(S'2001112211'
p119
I1
tp120
I1
s(S'2200112222'
p121
I0
tp122
I5
s(S'0122222222'
p123
I0
tp124
I-200
s(S'1022222211'
p125
I2
tp126
I1
s(S'2220000111'
p127
I1
tp128
F1.44340625
s(S'2222200112'
p129
I1
tp130
F1.9631522812876625
s(S'0222222222'
p131
I2
tp132
I1
s(S'1222220011'
p133
I0
tp134
I-200
s(S'2222200012'
p135
I1
tp136
I1
s(S'2011112221'
p137
I1
tp138
I1
s(S'2222200222'
p139
I0
tp140
F6.019735791689026
s(S'2222102222'
p141
I0
tp142
F12.423417532995439
s(S'0122222222'
p143
I2
tp144
F1.35
s(S'2200122111'
p145
I1
tp146
F1.0
s(S'2222200111'
p147
I1
tp148
F2.468318844312873
s.