(dp0
(S'2200011210'
p1
I2
tp2
I1
s(S'2200111211'
p3
I0
tp4
F9.402288417298681
s(S'2222220010'
p5
I0
tp6
F-97.5
s(S'2201222222'
p7
I2
tp8
F3.837077582492054
s(S'2001122222'
p9
I0
tp10
F6.663018231513346
s(S'2221002222'
p11
I2
tp12
F4.075979287059286
s(S'0022222001'
p13
I1
tp14
F1.0
s(S'0220022222'
p15
I0
tp16
I5
s(S'2200122222'
p17
I0
tp18
F8.75604805052529
s(S'2000122221'
p19
I1
tp20
F3.4583494686080236
s(S'2002222211'
p21
I0
tp22
F-30.76786079435881
s(S'2222210110'
p23
I0
tp24
F-96.90435235689394
s(S'2220012220'
p25
I2
tp26
I1
s(S'2221022222'
p27
I1
tp28
F5.773508851219294
s(S'1222210011'
p29
I0
tp30
I5
s(S'0120112222'
p31
I0
tp32
I5
s(S'0022222211'
p33
I2
tp34
I-200
s(S'0011222220'
p35
I2
tp36
F4.1957638843602485
s(S'0122002222'
p37
I2
tp38
F5.336117190543696
s(S'0222222211'
p39
I2
tp40
I1
s(S'1012222222'
p41
I2
tp42
F-123.80199462022867
s(S'2200011111'
p43
I2
tp44
I1
s(S'2001111222'
p45
I2
tp46
F5.263864308978393
s(S'1001222222'
p47
I0
tp48
I-200
s(S'1222222222'
p49
I0
tp50
I-200
s(S'0222210022'
p51
I1
tp52
F4.0280306690030105
s(S'2222210221'
p53
I2
tp54
I1
s(S'2222220002'
p55
I2
tp56
F2.783446585891642
s(S'2201221122'
p57
I0
tp58
F5.650202317008871
s(S'1011112221'
p59
I0
tp60
F5.576172162772413
s(S'1100122222'
p61
I0
tp62
F-21.98120433314519
s(S'0111122221'
p63
I1
tp64
F1.0
s(S'2200122211'
p65
I2
tp66
F4.354719516621408
s(S'1210122211'
p67
I1
tp68
I1
s(S'2221012211'
p69
I1
tp70
F1.0
s(S'2222211011'
p71
I2
tp72
F-32.79929389271505
s(S'0012222220'
p73
I2
tp74
F-149.75
s(S'2100222222'
p75
I2
tp76
F3.943743654669751
s(S'2201111121'
p77
I0
tp78
F8.045826237128184
s(S'2101111211'
p79
I0
tp80
F5.932907096411997
s(S'0111222220'
p81
I1
tp82
F-6.359018652343749
s(S'2221000221'
p83
I1
tp84
F1.0
s(S'2201222212'
p85
I0
tp86
F7.880416432515272
s(S'2210122200'
p87
I0
tp88
I5
s(S'0122222001'
p89
I2
tp90
I1
s(S'0112222220'
p91
I1
tp92
F-115.35046136718749
s(S'2221110121'
p93
I1
tp94
I1
s(S'1220122221'
p95
I2
tp96
F4.144655610875964
s(S'2100222221'
p97
I0
tp98
F-1.5636523500606336
s(S'1221102222'
p99
I1
tp100
F3.7736481568557725
s(S'2001222121'
p101
I2
tp102
I1
s(S'1222222001'
p103
I2
tp104
I1
s(S'0122222221'
p105
I2
tp106
F-120.320068928886
s(S'1000022221'
p107
I2
tp108
F2.0252519409942638
s(S'1222220022'
p109
I1
tp110
F4.6170145017944275
s(S'0011222221'
p111
I0
tp112
F2.3080348655439815
s(S'1001221222'
p113
I1
tp114
F2.1850666355336923
s(S'1111222200'
p115
I0
tp116
I5
s(S'0122211100'
p117
I1
tp118
I1
s(S'2220012200'
p119
I0
tp120
I5
s(S'1122102222'
p121
I1
tp122
F2.276130162888511
s(S'2222222220'
p123
I1
tp124
F-53.0317489691135
s(S'2011112222'
p125
I2
tp126
F3.5136222399942545
s(S'2101221111'
p127
I2
tp128
F4.530986932133526
s(S'0110012222'
p129
I2
tp130
F4.569988811085295
s(S'1210111222'
p131
I1
tp132
F2.7637909187692298
s(S'0122011112'
p133
I2
tp134
I1
s(S'2011211221'
p135
I2
tp136
F2.75
s(S'2222011110'
p137
I2
tp138
F4.401978570323649
s(S'0210222222'
p139
I1
tp140
F2.009720837158503
s(S'1221002222'
p141
I1
tp142
F4.492755035591715
s(S'2110122221'
p143
I0
tp144
I5
s(S'1022222222'
p145
I0
tp146
I-200
s(S'1100012222'
p147
I1
tp148
F1.9347843486132303
s(S'1102222221'
p149
I0
tp150
I-200
s(S'0222222011'
p151
I0
tp152
I-200
s(S'0220111222'
p153
I2
tp154
I1
s(S'0111002222'
p155
I2
tp156
F4.38051078678852
s(S'2222001100'
p157
I2
tp158
F2.581371926472727
s(S'0011122210'
p159
I0
tp160
I5
s(S'2222210120'
p161
I2
tp162
F3.002052474218506
s(S'0011122222'
p163
I2
tp164
F-23.62941500624298
s(S'1012222211'
p165
I0
tp166
F-102.55570462988281
s(S'2011122222'
p167
I1
tp168
F-36.01788255836562
s(S'0211022222'
p169
I1
tp170
F4.578344340634397
s(S'2221110222'
p171
I2
tp172
F2.3153963470257057
s(S'2222110022'
p173
I2
tp174
F4.571009470163295
s(S'2222222201'
p175
I1
tp176
F-98.51028005584075
s(S'2220111111'
p177
I1
tp178
F4.167660753261133
s(S'0122100222'
p179
I2
tp180
F6.503418605938977
s(S'2220110111'
p181
I2
tp182
I1
s(S'1122222220'
p183
I0
tp184
I-200
s(S'1222222000'
p185
I0
tp186
I-200
s(S'2012221221'
p187
I2
tp188
F2.716263419917409
s(S'2001122221'
p189
I1
tp190
F5.187292556214684
s(S'2222220111'
p191
I0
tp192
F-97.5
s(S'2222210011'
p193
I0
tp194
I-200
s(S'2210012222'
p195
I0
tp196
I5
s(S'2222220021'
p197
I2
tp198
F3.126341743716513
s(S'2222000111'
p199
I1
tp200
F5.024374122648617
s(S'1122222201'
p201
I0
tp202
I-200
s(S'1110122222'
p203
I2
tp204
F4.311581879421515
s(S'1221022222'
p205
I1
tp206
F6.469302127373363
s(S'1121100222'
p207
I0
tp208
F6.514736204725761
s(S'2200101222'
p209
I1
tp210
I1
s(S'2222110121'
p211
I0
tp212
F8.33179478872875
s(S'2222100221'
p213
I0
tp214
F7.564584556929784
s(S'2222211011'
p215
I1
tp216
F3.13460954108899
s(S'1111000222'
p217
I2
tp218
F1.4343052736586113
s(S'0122012222'
p219
I0
tp220
F7.174687708574897
s(S'0022222101'
p221
I0
tp222
F-97.35949504553223
s(S'1222222220'
p223
I2
tp224
F-54.918409635431914
s(S'2102222221'
p225
I2
tp226
F-0.8808127066329443
s(S'2222222102'
p227
I2
tp228
I1
s(S'1120011222'
p229
I0
tp230
I5
s(S'0100122222'
p231
I1
tp232
F2.018578032441005
s(S'1112222210'
p233
I2
tp234
F-2.2047583749999995
s(S'1222222101'
p235
I1
tp236
I1
s(S'2200011221'
p237
I0
tp238
F10.114781021944852
s(S'1101222222'
p239
I2
tp240
F3.1475449682672205
s(S'1222221022'
p241
I0
tp242
I5
s(S'2222011100'
p243
I2
tp244
F2.7219102201467926
s(S'0110222222'
p245
I2
tp246
F3.9967454744528794
s(S'1122210222'
p247
I1
tp248
F5.375958036803095
s(S'1122100222'
p249
I2
tp250
F4.335247758392013
s(S'0112122221'
p251
I2
tp252
I1
s(S'0001122220'
p253
I1
tp254
I1
s(S'2200001121'
p255
I1
tp256
F5.052180510228799
s(S'0011122221'
p257
I0
tp258
F-12.518945176662381
s(S'0122012221'
p259
I0
tp260
I5
s(S'1111222101'
p261
I2
tp262
I1
s(S'1211002222'
p263
I1
tp264
F2.978858853405318
s(S'2222221021'
p265
I1
tp266
F4.514281681824364
s(S'1002222211'
p267
I2
tp268
F1.109375
s(S'2101222111'
p269
I2
tp270
F5.264145331316021
s(S'1002222222'
p271
I2
tp272
F-67.72908114050293
s(S'2220011110'
p273
I2
tp274
F1.35
s(S'2101222122'
p275
I2
tp276
F4.3600493688408495
s(S'0022201222'
p277
I1
tp278
F6.175219445070035
s(S'2221000222'
p279
I0
tp280
F7.522872787893638
s(S'2210222221'
p281
I2
tp282
F4.31947042707262
s(S'0122220022'
p283
I2
tp284
F1.9625
s(S'2222200111'
p285
I1
tp286
F4.82444494652089
s(S'2211110222'
p287
I2
tp288
I1
s(S'1111111022'
p289
I2
tp290
I1
s(S'0221012222'
p291
I2
tp292
F6.894658225935559
s(S'2200012222'
p293
I2
tp294
F1.0
s(S'1112221012'
p295
I1
tp296
F1.9592721311029342
s(S'2101222222'
p297
I1
tp298
F-8.595085365238488
s(S'1110022222'
p299
I1
tp300
I-200
s(S'2222000112'
p301
I1
tp302
I1
s(S'2222101211'
p303
I2
tp304
F4.780087862879897
s(S'2222222001'
p305
I0
tp306
F-3.494910060519847
s(S'0122110222'
p307
I2
tp308
F4.330883746493498
s(S'2211102220'
p309
I2
tp310
F1.5031249999999998
s(S'2221011110'
p311
I1
tp312
F1.0
s(S'1220112222'
p313
I2
tp314
F1.30384375
s(S'2222222210'
p315
I2
tp316
F-23.18502744971609
s(S'2201111222'
p317
I2
tp318
F3.7353565537370024
s(S'1112222220'
p319
I0
tp320
I-200
s(S'2011211221'
p321
I0
tp322
F-15.61624709397033
s(S'1111100222'
p323
I0
tp324
F7.089770416178913
s(S'2222201111'
p325
I2
tp326
F-99.07156653063477
s(S'1011112222'
p327
I0
tp328
I5
s(S'1011122220'
p329
I0
tp330
F5.427653515625
s(S'1101222221'
p331
I0
tp332
I-200
s(S'2210222212'
p333
I1
tp334
F2.981951574118045
s(S'2221012210'
p335
I0
tp336
F10.211588168326378
s(S'2110222222'
p337
I0
tp338
F-11.277799458862916
s(S'2100222211'
p339
I2
tp340
I1
s(S'0111101222'
p341
I0
tp342
F5.875
s(S'2201222211'
p343
I0
tp344
F7.130725488102557
s(S'2222000221'
p345
I1
tp346
F2.0710823248317816
s(S'2001112221'
p347
I1
tp348
F3.507374620079464
s(S'1222100222'
p349
I1
tp350
F5.101884778270412
s(S'2200222211'
p351
I0
tp352
F9.632239565721253
s(S'1001222122'
p353
I1
tp354
I1
s(S'2100222222'
p355
I0
tp356
F-97.5
s(S'2002222211'
p357
I2
tp358
F1.0770268290592242
s(S'2222100222'
p359
I2
tp360
F3.550478914145382
s(S'2102222222'
p361
I1
tp362
F-5.976649556205134
s(S'2210222220'
p363
I0
tp364
I5
s(S'0221022221'
p365
I1
tp366
I1
s(S'2011221221'
p367
I0
tp368
F5.35
s(S'1201222222'
p369
I2
tp370
F3.2934963568032662
s(S'2220001121'
p371
I0
tp372
F10.353075617004391
s(S'2201221111'
p373
I1
tp374
F3.2320357231027135
s(S'0120022222'
p375
I0
tp376
F8.70724807330625
s(S'1211000222'
p377
I2
tp378
I1
s(S'0022222210'
p379
I1
tp380
I-200
s(S'2211022222'
p381
I1
tp382
F4.200645590988749
s(S'0222220122'
p383
I0
tp384
F9.457823880819559
s(S'1200012222'
p385
I1
tp386
I1
s(S'0121022222'
p387
I0
tp388
F6.678479751462405
s(S'2222101221'
p389
I0
tp390
F-94.90480050085532
s(S'0122222111'
p391
I0
tp392
I-200
s(S'0111001222'
p393
I1
tp394
F2.696402829903521
s(S'1001222222'
p395
I2
tp396
F3.4858203800158103
s(S'1222222222'
p397
I2
tp398
F-99.5
s(S'2001111111'
p399
I1
tp400
F2.089905300127141
s(S'1102222220'
p401
I0
tp402
I-200
s(S'0122220012'
p403
I2
tp404
F1.875
s(S'0022222221'
p405
I1
tp406
I-200
s(S'1222200012'
p407
I0
tp408
I5
s(S'0122200022'
p409
I0
tp410
F5.0
s(S'2101222221'
p411
I2
tp412
F3.801050049970952
s(S'1012212221'
p413
I2
tp414
F0.9005855217511913
s(S'0012222220'
p415
I0
tp416
I-200
s(S'1200122222'
p417
I2
tp418
F2.85332777395885
s(S'2201222221'
p419
I0
tp420
F7.584106116763823
s(S'2220122220'
p421
I1
tp422
F1.0
s(S'1222102222'
p423
I1
tp424
F3.7386707871084264
s(S'1000222222'
p425
I2
tp426
I1
s(S'2001222222'
p427
I1
tp428
F-9.672873368983126
s(S'0100022222'
p429
I0
tp430
I-200
s(S'2101221122'
p431
I1
tp432
F2.3332561012843938
s(S'2210022222'
p433
I0
tp434
F9.802625705439652
s(S'1012222221'
p435
I2
tp436
F-25.14416153211514
s(S'2222111012'
p437
I1
tp438
F5.073758839767349
s(S'2221110122'
p439
I1
tp440
I1
s(S'2222220001'
p441
I0
tp442
I-200
s(S'1121012222'
p443
I1
tp444
F4.118573847969718
s(S'2222220110'
p445
I0
tp446
F-97.5
s(S'0122100122'
p447
I1
tp448
F1.9518040730411652
s(S'1222100111'
p449
I0
tp450
I5
s(S'2102222211'
p451
I1
tp452
F-15.015493880892404
s(S'0122210022'
p453
I1
tp454
F2.9167980023087345
s(S'1012212221'
p455
I0
tp456
F-18.597975880318486
s(S'0122221012'
p457
I1
tp458
I1
s(S'2200111222'
p459
I1
tp460
F6.648340262888084
s(S'2101222221'
p461
I0
tp462
F-97.5
s(S'2210122222'
p463
I2
tp464
F5.8100266976367605
s(S'0011012222'
p465
I0
tp466
F8.900898226829188
s(S'1100222222'
p467
I1
tp468
I-200
s(S'0011102222'
p469
I2
tp470
I1
s(S'2212221022'
p471
I0
tp472
F5.35
s(S'2221111022'
p473
I1
tp474
F4.367879259971325
s(S'1001122222'
p475
I1
tp476
F-99.21781250000001
s(S'2201121111'
p477
I1
tp478
F3.9927155323390786
s(S'2220112111'
p479
I1
tp480
F4.446281834266854
s(S'0222222111'
p481
I2
tp482
I-200
s(S'0222222011'
p483
I2
tp484
I-200
s(S'0100222222'
p485
I2
tp486
F3.2449651610920798
s(S'2001122210'
p487
I0
tp488
F6.231299813527824
s(S'2210121122'
p489
I0
tp490
F8.372821272630453
s(S'0022222222'
p491
I1
tp492
F-126.91882939859329
s(S'2011122210'
p493
I2
tp494
F4.132461191011345
s(S'1222101222'
p495
I0
tp496
F9.769703937298818
s(S'0122100022'
p497
I0
tp498
F7.060856922414763
s(S'2200022222'
p499
I1
tp500
F3.2812516064199384
s(S'0011122222'
p501
I0
tp502
F-38.92033574268921
s(S'0120012222'
p503
I1
tp504
F3.5434001474856167
s(S'1002222002'
p505
I1
tp506
I1
s(S'2101111221'
p507
I2
tp508
F5.7191134700973425
s(S'1200112222'
p509
I1
tp510
F3.1498161868175485
s(S'1011222222'
p511
I1
tp512
F-99.5
s(S'1220011222'
p513
I2
tp514
F1.32375
s(S'1222221110'
p515
I0
tp516
F-30.040748998420504
s(S'0122222220'
p517
I1
tp518
F-99.325
s(S'2001222221'
p519
I1
tp520
I1
s(S'2220122221'
p521
I2
tp522
F6.415707420369031
s(S'2210222222'
p523
I2
tp524
F4.084895543087542
s(S'1110022222'
p525
I0
tp526
I-200
s(S'0210022222'
p527
I0
tp528
F9.292206160549204
s(S'2222221001'
p529
I0
tp530
I-200
s(S'2001012211'
p531
I0
tp532
I5
s(S'2222210011'
p533
I2
tp534
F-99.5
s(S'2222200011'
p535
I2
tp536
I-200
s(S'1210122222'
p537
I2
tp538
F4.186854350449952
s(S'0222221022'
p539
I1
tp540
I1
s(S'0122200222'
p541
I2
tp542
F5.777568052322303
s(S'0221022222'
p543
I2
tp544
F6.165294452432783
s(S'0222001111'
p545
I2
tp546
I1
s(S'2222001121'
p547
I2
tp548
F4.3939225162147055
s(S'0222221110'
p549
I1
tp550
F2.225
s(S'2000011211'
p551
I1
tp552
I1
s(S'2222210210'
p553
I2
tp554
I1
s(S'2222210022'
p555
I0
tp556
F7.746849690913919
s(S'2201112222'
p557
I2
tp558
F4.041139349902428
s(S'0001222210'
p559
I2
tp560
F3.609332241254073
s(S'1222222220'
p561
I0
tp562
I-200
s(S'2210011122'
p563
I0
tp564
F6.75
s(S'0011001222'
p565
I1
tp566
F2.677151768223421
s(S'2222101100'
p567
I0
tp568
F9.08628942414316
s(S'2220011222'
p569
I2
tp570
F3.1120750143277043
s(S'2222011200'
p571
I0
tp572
I5
s(S'0222211101'
p573
I2
tp574
F1.0
s(S'1101222222'
p575
I0
tp576
I-200
s(S'1111012222'
p577
I2
tp578
F4.037510437834371
s(S'0021012222'
p579
I0
tp580
F10.319148401516829
s(S'1022102222'
p581
I0
tp582
F7.904174475302564
s(S'2110222221'
p583
I0
tp584
F4.6014150056932
s(S'1221000222'
p585
I2
tp586
F3.3339512450375164
s(S'0110011222'
p587
I1
tp588
I1
s(S'0121011122'
p589
I2
tp590
I1
s(S'2101121222'
p591
I2
tp592
F2.656796133842665
s(S'2210122122'
p593
I0
tp594
F8.310086061551766
s(S'0222102222'
p595
I2
tp596
F5.693667675650296
s(S'2222011111'
p597
I0
tp598
I-200
s(S'0122222201'
p599
I1
tp600
I-200
s(S'2012221222'
p601
I0
tp602
I5
s(S'0222011111'
p603
I2
tp604
I1
s(S'2222100022'
p605
I2
tp606
F3.22929065492056
s(S'2211002210'
p607
I2
tp608
F1.905370907467337
s(S'1022222211'
p609
I0
tp610
I-200
s(S'2222222221'
p611
I2
tp612
I-200
s(S'2001211222'
p613
I1
tp614
I1
s(S'2012222222'
p615
I0
tp616
F-28.89334375
s(S'2221100221'
p617
I2
tp618
F1.6368789590674808
s(S'2222222210'
p619
I1
tp620
F-102.70383996656258
s(S'2222222101'
p621
I1
tp622
F1.670617322242829
s(S'1210122221'
p623
I0
tp624
F8.117637083611445
s(S'1120012222'
p625
I1
tp626
F1.0
s(S'1221110222'
p627
I1
tp628
I1
s(S'1222111002'
p629
I2
tp630
F2.195719095703125
s(S'2222101220'
p631
I0
tp632
F12.79085363534097
s(S'1110002222'
p633
I2
tp634
F2.1348886970185026
s(S'1220022221'
p635
I2
tp636
I1
s(S'2201112221'
p637
I0
tp638
F7.663294286121046
s(S'2222222210'
p639
I0
tp640
I-200
s(S'2210112222'
p641
I0
tp642
I5
s(S'1222000222'
p643
I1
tp644
F4.816914563516581
s(S'1112222220'
p645
I2
tp646
I-200
s(S'2210111111'
p647
I1
tp648
F3.106500847623531
s(S'0121002222'
p649
I2
tp650
F6.271753163231941
s(S'1002222221'
p651
I1
tp652
F-149.75
s(S'0122221022'
p653
I1
tp654
I1
s(S'2200001221'
p655
I1
tp656
F4.592696757787573
s(S'2012212221'
p657
I1
tp658
I1
s(S'1220111122'
p659
I0
tp660
F7.50528855627607
s(S'0011022222'
p661
I2
tp662
F4.05484377769257
s(S'2220001221'
p663
I0
tp664
F9.825512352142397
s(S'0122222001'
p665
I1
tp666
I-200
s(S'0111222221'
p667
I1
tp668
F-41.693033031249996
s(S'1002222221'
p669
I0
tp670
I-200
s(S'2002222222'
p671
I1
tp672
F-35.28532328969696
s(S'2101222121'
p673
I0
tp674
F5.290534946399864
s(S'0111100222'
p675
I0
tp676
F6.076407395986726
s(S'1122220122'
p677
I2
tp678
F1.525
s(S'0101222222'
p679
I2
tp680
F-98.61511669129945
s(S'2222221002'
p681
I1
tp682
F2.454648335980727
s(S'2200121111'
p683
I1
tp684
I1
s(S'0222210122'
p685
I0
tp686
F10.52089635799867
s(S'2222101210'
p687
I2
tp688
F1.53375
s(S'1222220121'
p689
I1
tp690
I1
s(S'1222222011'
p691
I0
tp692
I-200
s(S'0210122222'
p693
I0
tp694
F-9.856738881777158
s(S'1201222211'
p695
I0
tp696
I5
s(S'1121100022'
p697
I1
tp698
F1.4725
s(S'1222011111'
p699
I2
tp700
I1
s(S'2122221022'
p701
I2
tp702
I1
s(S'2101112222'
p703
I0
tp704
F7.684823941645403
s(S'2200101221'
p705
I2
tp706
F5.065905609322007
s(S'0012212221'
p707
I1
tp708
F-5.1383827107249855
s(S'0001222220'
p709
I1
tp710
F1.9165624999999997
s(S'2101222211'
p711
I1
tp712
F-0.6282712295189943
s(S'1222221011'
p713
I1
tp714
I1
s(S'2222001111'
p715
I1
tp716
F5.473731129709546
s(S'0220122221'
p717
I1
tp718
F1.874172145346951
s(S'0222012221'
p719
I0
tp720
I5
s(S'2012222221'
p721
I1
tp722
F-11.19643777901387
s(S'2000122210'
p723
I2
tp724
F3.1085010758205023
s(S'0221102222'
p725
I0
tp726
F8.587221698927921
s(S'0022221012'
p727
I2
tp728
F1.6124999999999998
s(S'2222222200'
p729
I1
tp730
F-55.62556656175854
s(S'0022222111'
p731
I0
tp732
I-200
s(S'1000222222'
p733
I0
tp734
I-200
s(S'2210122222'
p735
I0
tp736
F-2.863289397261319
s(S'2220122222'
p737
I2
tp738
F4.224469104471926
s(S'1222221012'
p739
I1
tp740
F3.74655292450276
s(S'1222210121'
p741
I0
tp742
I5
s(S'0112222221'
p743
I0
tp744
F-35.8393443661499
s(S'2100222221'
p745
I2
tp746
F4.182162450646386
s(S'2222000222'
p747
I1
tp748
F5.32279404425484
s(S'1001222211'
p749
I0
tp750
F-28.074134894582542
s(S'1222210002'
p751
I0
tp752
F6.759092294297875
s(S'1222220011'
p753
I1
tp754
F2.456367485971569
s(S'2222210111'
p755
I1
tp756
F4.135028544560768
s(S'1012221221'
p757
I0
tp758
I5
s(S'1122221012'
p759
I1
tp760
F3.033053212823797
s(S'2222220012'
p761
I1
tp762
F5.127764401327557
s(S'2222222102'
p763
I0
tp764
F-13.911631665203604
s(S'0110002222'
p765
I1
tp766
F1.7441243219488773
s(S'2011111221'
p767
I1
tp768
F1.188938614260433
s(S'1222222221'
p769
I0
tp770
F-97.5
s(S'1111101222'
p771
I2
tp772
F3.0284300249448344
s(S'2222222221'
p773
I0
tp774
I-200
s(S'0022101222'
p775
I2
tp776
F7.322609839640094
s(S'0222200122'
p777
I2
tp778
F1.32375
s(S'0122222001'
p779
I0
tp780
I-200
s(S'1122222200'
p781
I1
tp782
I-200
s(S'2200122111'
p783
I1
tp784
F5.566479195852651
s(S'2012222211'
p785
I2
tp786
F2.052150371983994
s(S'2222222011'
p787
I2
tp788
F-3.8345222029809456
s(S'0221001222'
p789
I0
tp790
I5
s(S'0120111222'
p791
I2
tp792
F1.525
s(S'1210222222'
p793
I1
tp794
F3.826138706949487
s(S'0222222110'
p795
I1
tp796
F1.4725
s(S'1111002222'
p797
I2
tp798
F3.6212995942836277
s(S'0222220012'
p799
I0
tp800
F6.713159768304885
s(S'2222100121'
p801
I1
tp802
F2.958735174628579
s(S'0022222012'
p803
I2
tp804
F1.35
s(S'2222101122'
p805
I2
tp806
F3.219009768909364
s(S'1221011122'
p807
I1
tp808
F4.053064456652311
s(S'0022220122'
p809
I2
tp810
F1.77
s(S'2210222211'
p811
I2
tp812
F3.2487679786005024
s(S'1002222210'
p813
I0
tp814
I-200
s(S'1122222012'
p815
I2
tp816
I1
s(S'2220111112'
p817
I2
tp818
F1.35
s(S'0012222222'
p819
I1
tp820
F-29.28248848468865
s(S'2222000211'
p821
I2
tp822
F2.4757173384284537
s(S'2222201100'
p823
I0
tp824
I5
s(S'2222211002'
p825
I1
tp826
F3.043081459921234
s(S'1002222222'
p827
I1
tp828
F-118.23746572886725
s(S'2001112222'
p829
I2
tp830
F5.0142410883520405
s(S'2101222122'
p831
I1
tp832
F-7.263654948920882
s(S'2000122222'
p833
I2
tp834
F3.6739557001695253
s(S'2222221001'
p835
I2
tp836
F-98.44250930684049
s(S'2222200110'
p837
I1
tp838
F2.9283206739741323
s(S'2200012210'
p839
I0
tp840
F6.481304760549072
s(S'1222222210'
p841
I1
tp842
F-15.725302467960251
s(S'0121012221'
p843
I1
tp844
I1
s(S'0011222222'
p845
I0
tp846
I-200
s(S'2222001220'
p847
I0
tp848
F9.973863925733356
s(S'1222220012'
p849
I1
tp850
F3.4578141940259246
s(S'1000122222'
p851
I1
tp852
F1.528060520566528
s(S'1100122211'
p853
I2
tp854
I1
s(S'2222111102'
p855
I0
tp856
F5.175
s(S'2211102221'
p857
I0
tp858
I5
s(S'2110122222'
p859
I1
tp860
F-5.850523484677762
s(S'1122222210'
p861
I0
tp862
F-97.94535141954574
s(S'2211110022'
p863
I0
tp864
F5.875
s(S'2222200222'
p865
I2
tp866
F3.801969986352982
s(S'2222000121'
p867
I1
tp868
F4.1141127512264895
s(S'0111122220'
p869
I2
tp870
F1.607607782591797
s(S'2222221012'
p871
I1
tp872
F2.9861163978065557
s(S'2101222220'
p873
I1
tp874
I1
s(S'0222200012'
p875
I1
tp876
I1
s(S'2000011221'
p877
I0
tp878
F6.064138730873344
s(S'2220012210'
p879
I0
tp880
F6.57176569823114
s(S'1022002222'
p881
I0
tp882
F8.466578224124813
s(S'1101122222'
p883
I0
tp884
F-16.232147435803178
s(S'1122100122'
p885
I0
tp886
I5
s(S'2220002220'
p887
I2
tp888
F1.7978503750000001
s(S'2221000022'
p889
I2
tp890
F1.6993466723632813
s(S'1111110022'
p891
I1
tp892
I1
s(S'1002222200'
p893
I1
tp894
I1
s(S'2110022222'
p895
I1
tp896
F2.4018687205432507
s(S'2220001222'
p897
I0
tp898
F7.0710306355193735
s(S'2222210002'
p899
I1
tp900
I1
s(S'0222222222'
p901
I1
tp902
F-7.0115625
s(S'2000022220'
p903
I2
tp904
I1
s(S'0222201222'
p905
I1
tp906
F6.70220226228207
s(S'2221221012'
p907
I0
tp908
F5.0
s(S'2001221121'
p909
I0
tp910
I5
s(S'1222200122'
p911
I1
tp912
I1
s(S'2201122222'
p913
I1
tp914
F3.5594912419693117
s(S'2210122212'
p915
I1
tp916
F3.9578783303420204
s(S'1100112222'
p917
I2
tp918
F4.837602184682155
s(S'2211211022'
p919
I0
tp920
I5
s(S'2011222221'
p921
I2
tp922
F2.7552519874239536
s(S'1222200022'
p923
I1
tp924
F1.9436021875
s(S'2211000222'
p925
I0
tp926
I5
s(S'1022222211'
p927
I2
tp928
F-106.52776996298377
s(S'1222211102'
p929
I1
tp930
F3.9137441313198633
s(S'2220011211'
p931
I0
tp932
F8.257084415676555
s(S'2222002221'
p933
I2
tp934
F3.902133391809501
s(S'2222220011'
p935
I2
tp936
I-200
s(S'2211002222'
p937
I0
tp938
I5
s(S'0022222211'
p939
I1
tp940
I1
s(S'0022200222'
p941
I0
tp942
F10.015358160919675
s(S'1111001222'
p943
I1
tp944
F3.3014018186030825
s(S'2222012220'
p945
I2
tp946
F3.8297637670465106
s(S'1221001222'
p947
I1
tp948
F2.6395218668247282
s(S'1110022221'
p949
I2
tp950
I1
s(S'1200002222'
p951
I2
tp952
I1
s(S'0122220001'
p953
I1
tp954
I1
s(S'2210012210'
p955
I0
tp956
I5
s(S'2201121222'
p957
I1
tp958
F2.754726956691018
s(S'1012222222'
p959
I1
tp960
F-48.933245224418904
s(S'2222001120'
p961
I2
tp962
I1
s(S'1021012222'
p963
I0
tp964
F10.553855218241678
s(S'2011211221'
p965
I1
tp966
F-14.512247460937497
s(S'1100222221'
p967
I2
tp968
F-32.91092340726631
s(S'1221100022'
p969
I1
tp970
F1.6475
s(S'0022012221'
p971
I1
tp972
I1
s(S'2220012211'
p973
I2
tp974
F4.967860619462627
s(S'2222210122'
p975
I0
tp976
F8.45696832014242
s(S'1221101222'
p977
I0
tp978
I5
s(S'1011122221'
p979
I1
tp980
F1.6830846591867372
s(S'2210111222'
p981
I2
tp982
F1.9029773714243476
s(S'0122200122'
p983
I1
tp984
F2.503280273375408
s(S'0222012222'
p985
I0
tp986
F10.168983071787956
s(S'1110111222'
p987
I2
tp988
F1.7787499999999998
s(S'0022222201'
p989
I1
tp990
F-99.5
s(S'1002222221'
p991
I2
tp992
F-18.02557815026276
s(S'0221012212'
p993
I2
tp994
I1
s(S'0002222220'
p995
I1
tp996
F-13.071299317509762
s(S'1122101222'
p997
I2
tp998
F3.8132161518567447
s(S'2200222210'
p999
I1
tp1000
I1
s(S'2210122211'
p1001
I1
tp1002
F5.991657088262725
s(S'0112222220'
p1003
I0
tp1004
I-200
s(S'2220112210'
p1005
I2
tp1006
I1
s(S'1110112222'
p1007
I0
tp1008
F7.355587806596196
s(S'1222100122'
p1009
I1
tp1010
F3.3039494860317804
s(S'1002222101'
p1011
I2
tp1012
I1
s(S'2000222220'
p1013
I0
tp1014
F6.847414878958508
s(S'2222100111'
p1015
I2
tp1016
F3.714589773348374
s(S'1111110122'
p1017
I2
tp1018
I1
s(S'2222110221'
p1019
I0
tp1020
F8.166603980337367
s(S'0222210222'
p1021
I1
tp1022
I1
s(S'0122222221'
p1023
I1
tp1024
F-53.394865235290524
s(S'2200111121'
p1025
I1
tp1026
F6.7886102631240774
s(S'0221011122'
p1027
I0
tp1028
I5
s(S'1220002222'
p1029
I0
tp1030
F5.875
s(S'1111110222'
p1031
I1
tp1032
F5.542982138476636
s(S'0011222221'
p1033
I1
tp1034
F-19.526349646337216
s(S'1122220022'
p1035
I0
tp1036
F6.231487603682125
s(S'0111102222'
p1037
I1
tp1038
F3.4540958794097714
s(S'1222221110'
p1039
I2
tp1040
F1.175
s(S'2222222220'
p1041
I0
tp1042
I-200
s(S'0222222210'
p1043
I1
tp1044
I-200
s(S'1110222222'
p1045
I0
tp1046
I-200
s(S'0002222210'
p1047
I2
tp1048
F1.4725
s(S'2221022221'
p1049
I2
tp1050
F2.0697563440409983
s(S'2222222012'
p1051
I2
tp1052
I1
s(S'1022222222'
p1053
I1
tp1054
F-37.21133176977623
s(S'1102222221'
p1055
I1
tp1056
F-174.875
s(S'0100222222'
p1057
I1
tp1058
F-6.183277309032753
s(S'2222221011'
p1059
I0
tp1060
F-96.625
s(S'0222201111'
p1061
I0
tp1062
I-200
s(S'2201221121'
p1063
I1
tp1064
I1
s(S'0022222222'
p1065
I2
tp1066
F-33.95825992519771
s(S'0122222200'
p1067
I0
tp1068
I-200
s(S'1011122222'
p1069
I1
tp1070
F-3.999088257161833
s(S'1211022222'
p1071
I0
tp1072
F8.138032342412208
s(S'1012222121'
p1073
I1
tp1074
F-14.219140917266904
s(S'1111022222'
p1075
I2
tp1076
F3.9173571326126537
s(S'2222221022'
p1077
I2
tp1078
F3.023619303120044
s(S'2221002220'
p1079
I2
tp1080
I1
s(S'0222222221'
p1081
I0
tp1082
F-96.625
s(S'2200122221'
p1083
I2
tp1084
F4.34019783268102
s(S'1011022222'
p1085
I0
tp1086
F6.676614412901259
s(S'0120011222'
p1087
I0
tp1088
F5.175
s(S'0022001111'
p1089
I0
tp1090
I5
s(S'2222110021'
p1091
I0
tp1092
F8.022867928282174
s(S'2200122212'
p1093
I2
tp1094
I1
s(S'2220012222'
p1095
I1
tp1096
F3.547260048837653
s(S'2100222220'
p1097
I1
tp1098
I1
s(S'2221012222'
p1099
I1
tp1100
F5.417577552901509
s(S'2222201211'
p1101
I0
tp1102
I5
s(S'2000222221'
p1103
I2
tp1104
F1.35
s(S'0222220022'
p1105
I1
tp1106
F5.378990848903657
s(S'2222220111'
p1107
I1
tp1108
F4.413607872422617
s(S'2222210011'
p1109
I1
tp1110
F4.397883657958644
s(S'0112222222'
p1111
I2
tp1112
I1
s(S'2222000111'
p1113
I2
tp1114
F-99.325
s(S'2222000011'
p1115
I2
tp1116
I-200
s(S'0222011112'
p1117
I0
tp1118
I5
s(S'2222101222'
p1119
I0
tp1120
F10.734883363498136
s(S'2222012222'
p1121
I2
tp1122
F8.076513122293541
s(S'2222011220'
p1123
I0
tp1124
F10.435023200919872
s(S'1222222221'
p1125
I2
tp1126
F-7.259999999999998
s(S'2200022210'
p1127
I2
tp1128
I1
s(S'2222200221'
p1129
I2
tp1130
I1
s(S'2101221222'
p1131
I2
tp1132
F4.151458187505701
s(S'2200122112'
p1133
I1
tp1134
F3.1618921647893985
s(S'1001122221'
p1135
I2
tp1136
F3.2996754003762
s(S'1012222221'
p1137
I0
tp1138
F-109.6551767578125
s(S'2222222011'
p1139
I0
tp1140
F-97.5
s(S'1022222221'
p1141
I1
tp1142
I-200
s(S'1001112221'
p1143
I2
tp1144
F2.616834968341192
s(S'1102222222'
p1145
I1
tp1146
F-35.800191705680255
s(S'2222101111'
p1147
I0
tp1148
F9.818908326168916
s(S'0220122211'
p1149
I1
tp1150
I1
s(S'0110222222'
p1151
I1
tp1152
F-98.83274826363233
s(S'2210111122'
p1153
I0
tp1154
F7.413460412805133
s(S'2222210121'
p1155
I1
tp1156
F2.0005998353530434
s(S'2222111002'
p1157
I2
tp1158
F1.0
s(S'2200001222'
p1159
I2
tp1160
F2.0360154160014856
s(S'1222001222'
p1161
I0
tp1162
F8.457126114490343
s(S'2220000111'
p1163
I2
tp1164
F-99.5
s(S'1111111012'
p1165
I0
tp1166
I5
s(S'2220011111'
p1167
I1
tp1168
F5.368858205244333
s(S'1200022222'
p1169
I0
tp1170
F5.83766980173108
s(S'0011002222'
p1171
I0
tp1172
F7.593496885624287
s(S'0022210122'
p1173
I2
tp1174
F1.690375
s(S'0011222222'
p1175
I2
tp1176
F-1.161817671021982
s(S'2222210110'
p1177
I1
tp1178
F3.3009365115875307
s(S'0122222210'
p1179
I1
tp1180
F1.525
s(S'2200112210'
p1181
I2
tp1182
I1
s(S'2222220112'
p1183
I1
tp1184
F6.55742931698318
s(S'0100122222'
p1185
I0
tp1186
F-96.625
s(S'2102222121'
p1187
I0
tp1188
I5
s(S'2101222222'
p1189
I0
tp1190
F-36.676743567142594
s(S'1110022222'
p1191
I2
tp1192
F4.62911563413843
s(S'0220011122'
p1193
I0
tp1194
F5.0
s(S'0122222222'
p1195
I0
tp1196
F-148.75
s(S'1122222210'
p1197
I2
tp1198
I-200
s(S'0111012222'
p1199
I1
tp1200
F5.453008783600925
s(S'0122001122'
p1201
I0
tp1202
F5.0
s(S'1121000222'
p1203
I1
tp1204
I1
s(S'1222200222'
p1205
I0
tp1206
F7.162089175995998
s(S'1221000022'
p1207
I1
tp1208
F1.175
s(S'2101221221'
p1209
I0
tp1210
F5.175
s(S'2222220122'
p1211
I2
tp1212
F3.4368498336857876
s(S'1112222220'
p1213
I1
tp1214
F-67.875
s(S'2011222220'
p1215
I1
tp1216
F-14.708900959882813
s(S'1101122222'
p1217
I2
tp1218
F3.34131254873161
s(S'2222201111'
p1219
I1
tp1220
F4.5556591151268275
s(S'2222001222'
p1221
I1
tp1222
F4.930053781234829
s(S'2122221012'
p1223
I2
tp1224
I1
s(S'2100111111'
p1225
I1
tp1226
I1
s(S'2210122111'
p1227
I0
tp1228
F10.52047897106598
s(S'2222222002'
p1229
I0
tp1230
I5
s(S'0111222221'
p1231
I2
tp1232
F-7.272753838331191
s(S'1210022222'
p1233
I0
tp1234
F8.588596273304795
s(S'0220122222'
p1235
I2
tp1236
F6.413584609613903
s(S'2002222222'
p1237
I2
tp1238
F2.3170788281775403
s(S'2220111122'
p1239
I1
tp1240
F5.707301495703341
s(S'2221102210'
p1241
I1
tp1242
I1
s(S'1222000122'
p1243
I1
tp1244
F3.02676411378548
s(S'1100122221'
p1245
I2
tp1246
F3.1338849389591905
s(S'0220022221'
p1247
I2
tp1248
I1
s(S'2200222222'
p1249
I1
tp1250
F3.867426369833759
s(S'2011112211'
p1251
I2
tp1252
F2.8025117053809057
s(S'2222111011'
p1253
I2
tp1254
F1.7224663291193831
s(S'2100222222'
p1255
I1
tp1256
F-46.375236225279174
s(S'2002222211'
p1257
I1
tp1258
F-7.011756019531246
s(S'2222001122'
p1259
I2
tp1260
F5.389190821204959
s(S'2222221102'
p1261
I0
tp1262
F-97.5
s(S'2220112222'
p1263
I0
tp1264
I5
s(S'2102222111'
p1265
I0
tp1266
F-7.9431605795981
s(S'2221012221'
p1267
I0
tp1268
F9.01783060327618
s(S'2222111022'
p1269
I0
tp1270
F8.252069981718503
s(S'2100122222'
p1271
I0
tp1272
I5
s(S'0022222210'
p1273
I2
tp1274
I-200
s(S'0111011122'
p1275
I1
tp1276
I1
s(S'2222200121'
p1277
I2
tp1278
F4.031449567199604
s(S'1220011122'
p1279
I1
tp1280
F3.801380688533786
s(S'2222101221'
p1281
I1
tp1282
F7.50310567257751
s(S'1001222222'
p1283
I1
tp1284
F-99.5
s(S'1022201222'
p1285
I1
tp1286
I1
s(S'0122101222'
p1287
I2
tp1288
F5.468846732420755
s(S'1122110222'
p1289
I1
tp1290
I1
s(S'1012222111'
p1291
I2
tp1292
F-8.07689278979905
s(S'2101222211'
p1293
I2
tp1294
F5.072402328636858
s(S'0022222221'
p1295
I2
tp1296
F-35.33179419837231
s(S'1211110022'
p1297
I1
tp1298
F2.5895584476360103
s(S'2100111222'
p1299
I0
tp1300
I5
s(S'0122210222'
p1301
I0
tp1302
F10.679729435441459
s(S'2221001111'
p1303
I0
tp1304
F8.089684092362129
s(S'1012212221'
p1305
I1
tp1306
F-11.148693583597563
s(S'0012222220'
p1307
I1
tp1308
F-19.82060616787109
s(S'1220122122'
p1309
I2
tp1310
I1
s(S'2012222221'
p1311
I2
tp1312
F-1.8511868442354307
s(S'0000222221'
p1313
I1
tp1314
I1
s(S'0111222220'
p1315
I0
tp1316
F-28.303962602148438
s(S'2222222011'
p1317
I1
tp1318
F3.81686537280944
s(S'2201222212'
p1319
I1
tp1320
F-2.2882388355957834
s(S'2222222200'
p1321
I2
tp1322
F-116.91963107472358
s(S'2001221221'
p1323
I2
tp1324
F3.0191325761243766
s(S'2222200112'
p1325
I1
tp1326
F4.536835199770043
s(S'0112222220'
p1327
I2
tp1328
I-200
s(S'2221002221'
p1329
I1
tp1330
F1.79625
s(S'2222222200'
p1331
I0
tp1332
I-200
s(S'1221012222'
p1333
I2
tp1334
F3.7498641637871675
s(S'2100222221'
p1335
I1
tp1336
F-7.521279755012406
s(S'1022012222'
p1337
I0
tp1338
I5
s(S'0221002222'
p1339
I0
tp1340
F10.617845828228006
s(S'2102222211'
p1341
I2
tp1342
F2.8017895640380877
s(S'1100111222'
p1343
I0
tp1344
I5
s(S'0011112221'
p1345
I2
tp1346
I1
s(S'2222200021'
p1347
I2
tp1348
F2.730295206915833
s(S'2210112111'
p1349
I2
tp1350
I1
s(S'2222222220'
p1351
I2
tp1352
I-200
s(S'2101222221'
p1353
I1
tp1354
F-59.043558203125
s(S'2210122222'
p1355
I1
tp1356
F-14.968406071883638
s(S'0012222201'
p1357
I1
tp1358
F2.946706936254883
s(S'1110222222'
p1359
I2
tp1360
F4.172464641592791
s(S'1100222222'
p1361
I0
tp1362
F-97.5
s(S'2201122122'
p1363
I1
tp1364
F3.2037756502388035
s(S'0222210012'
p1365
I2
tp1366
I1
s(S'1001122222'
p1367
I2
tp1368
F3.287308348928766
s(S'2222001221'
p1369
I2
tp1370
F4.099579027569152
s(S'2222222012'
p1371
I0
tp1372
F-1.6323966908021035
s(S'2220122211'
p1373
I1
tp1374
F4.8858788366646
s(S'0222100222'
p1375
I2
tp1376
I1
s(S'1110122221'
p1377
I1
tp1378
I1
s(S'2011222222'
p1379
I2
tp1380
F3.451829665510964
s(S'2201111221'
p1381
I0
tp1382
F8.84577311919075
s(S'2222221011'
p1383
I2
tp1384
F-0.47526468085316553
s(S'1222100022'
p1385
I1
tp1386
F4.4581112263793585
s(S'0022222222'
p1387
I0
tp1388
F-156.35928343724623
s(S'2222201120'
p1389
I0
tp1390
F6.834112451026719
s(S'1220001222'
p1391
I1
tp1392
F2.495772057053519
s(S'2200022222'
p1393
I0
tp1394
F-8.861821322724571
s(S'0022210222'
p1395
I0
tp1396
F10.989474517367022
s(S'1012222211'
p1397
I1
tp1398
F-12.71698969971293
s(S'0220001122'
p1399
I0
tp1400
I5
s(S'0111022222'
p1401
I0
tp1402
F-97.5
s(S'2220001110'
p1403
I0
tp1404
I5
s(S'2222011221'
p1405
I2
tp1406
F4.051724484366455
s(S'2222001210'
p1407
I1
tp1408
I1
s(S'1111221002'
p1409
I2
tp1410
I1
s(S'0112222221'
p1411
I1
tp1412
I1
s(S'2222222201'
p1413
I0
tp1414
F-97.5
s(S'2200122220'
p1415
I1
tp1416
F3.351357708695722
s(S'0110122221'
p1417
I2
tp1418
I1
s(S'0222220112'
p1419
I1
tp1420
F4.1068632542035575
s(S'2222220110'
p1421
I1
tp1422
F2.5521658125614133
s(S'0222220011'
p1423
I2
tp1424
I-200
s(S'2222000111'
p1425
I0
tp1426
F-96.625
s(S'0122122220'
p1427
I2
tp1428
I1
s(S'2001221111'
p1429
I2
tp1430
F4.397068970755406
s(S'2222101222'
p1431
I2
tp1432
F-99.2375
s(S'0111222210'
p1433
I0
tp1434
F6.0321718749999995
s(S'2222222001'
p1435
I1
tp1436
F3.228143612584714
s(S'1110110222'
p1437
I0
tp1438
I5
s(S'2200111221'
p1439
I0
tp1440
F9.485089208224146
s(S'2222201121'
p1441
I2
tp1442
F4.178151926931168
s(S'1222222220'
p1443
I1
tp1444
F-99.5
s(S'2102222111'
p1445
I1
tp1446
I1
s(S'2201222111'
p1447
I2
tp1448
F7.527974771378646
s(S'1111102222'
p1449
I0
tp1450
F6.542344266260216
s(S'2222211021'
p1451
I1
tp1452
F2.0188660498601285
s(S'1222222222'
p1453
I1
tp1454
I-200
s(S'2101111121'
p1455
I0
tp1456
F6.183126838086124
s(S'1101222222'
p1457
I1
tp1458
F-170.41749809869413
s(S'1221011111'
p1459
I1
tp1460
I1
s(S'0110022222'
p1461
I1
tp1462
F-99.26375
s(S'1010022222'
p1463
I0
tp1464
I5
s(S'0112222210'
p1465
I2
tp1466
F-33.45961298828125
s(S'0012222222'
p1467
I2
tp1468
F-107.91073570624157
s(S'2222220001'
p1469
I2
tp1470
F-99.5
s(S'2220022222'
p1471
I2
tp1472
F4.065797080449942
s(S'0011122221'
p1473
I1
tp1474
F-17.59185971794922
s(S'2222001211'
p1475
I0
tp1476
F7.982602983497765
s(S'1211110222'
p1477
I1
tp1478
F1.6517546875
s(S'2012222121'
p1479
I1
tp1480
F-7.982855825661913
s(S'2222101110'
p1481
I1
tp1482
F3.1647624859076045
s(S'0122222220'
p1483
I0
tp1484
I-200
s(S'2221110221'
p1485
I1
tp1486
F1.0
s(S'2222011111'
p1487
I1
tp1488
F5.969696128829678
s(S'0122210122'
p1489
I0
tp1490
F8.16446587320362
s(S'0222200022'
p1491
I2
tp1492
F1.525
s(S'1122002222'
p1493
I1
tp1494
F1.0
s(S'2001222111'
p1495
I0
tp1496
I5
s(S'1022222211'
p1497
I1
tp1498
F-11.5625
s(S'2200012211'
p1499
I1
tp1500
F1.0
s(S'2000012222'
p1501
I1
tp1502
F2.9248160153086182
s(S'1001112222'
p1503
I1
tp1504
I1
s(S'2222012221'
p1505
I0
tp1506
F11.184051356550995
s(S'2101222222'
p1507
I2
tp1508
F3.8966911106660898
s(S'2201122111'
p1509
I2
tp1510
F6.417586947471821
s(S'0122222222'
p1511
I2
tp1512
F-120.34246083578313
s(S'1220122211'
p1513
I2
tp1514
I1
s(S'0012212221'
p1515
I2
tp1516
I1
s(S'2001111221'
p1517
I1
tp1518
F3.253048116751455
s(S'2200101121'
p1519
I1
tp1520
I1
s(S'2000222210'
p1521
I1
tp1522
F1.175
s(S'1112110222'
p1523
I2
tp1524
F2.75
s(S'2222201122'
p1525
I0
tp1526
F8.284778146306163
s(S'1220012222'
p1527
I1
tp1528
F6.569968691462094
s(S'2011112221'
p1529
I2
tp1530
F4.9991969936797975
s(S'1002222201'
p1531
I2
tp1532
F1.0
s(S'0011011112'
p1533
I1
tp1534
I1
s(S'1100222221'
p1535
I1
tp1536
F-12.196430767106259
s(S'2101222212'
p1537
I2
tp1538
F5.175530050041869
s(S'1201122222'
p1539
I2
tp1540
F1.9644142771027657
s(S'2201111111'
p1541
I2
tp1542
F3.3625406867386225
s(S'2222101121'
p1543
I2
tp1544
F4.634742186286479
s(S'1101222221'
p1545
I1
tp1546
F-55.420959767396305
s(S'2222210220'
p1547
I1
tp1548
F3.0125
s(S'1221011112'
p1549
I1
tp1550
I1
s(S'1000122220'
p1551
I2
tp1552
I1
s(S'1220011112'
p1553
I1
tp1554
I1
s(S'0222220001'
p1555
I1
tp1556
F-99.5
s(S'2110222222'
p1557
I1
tp1558
F-0.6697379919510134
s(S'2012222222'
p1559
I2
tp1560
F2.636795893695543
s(S'2011112210'
p1561
I0
tp1562
F6.864132516463561
s(S'2222220110'
p1563
I2
tp1564
F-99.13249012340852
s(S'0110222222'
p1565
I0
tp1566
F-98.39482690803024
s(S'2222201110'
p1567
I1
tp1568
F5.937511782673365
s(S'2222011210'
p1569
I0
tp1570
F8.324787856668916
s(S'2200022221'
p1571
I1
tp1572
F3.614442547011154
s(S'2200122122'
p1573
I1
tp1574
F2.381798777360129
s(S'2002222222'
p1575
I0
tp1576
F-46.494624471581936
s(S'2210112122'
p1577
I2
tp1578
I1
s(S'2101111222'
p1579
I0
tp1580
F6.900048175839119
s(S'2210111112'
p1581
I1
tp1582
F3.278162005803785
s(S'0122222200'
p1583
I2
tp1584
F-99.5
s(S'2222211102'
p1585
I2
tp1586
I1
s(S'2001222210'
p1587
I1
tp1588
F1.2799755273437499
s(S'2000122220'
p1589
I1
tp1590
F2.9238526996994776
s(S'2210011110'
p1591
I0
tp1592
I5
s(S'2220011210'
p1593
I1
tp1594
F3.5164054156042255
s(S'2222210112'
p1595
I2
tp1596
F3.6657218495405592
s(S'2222211022'
p1597
I0
tp1598
F6.393508233416988
s(S'2000012221'
p1599
I1
tp1600
F2.3899292011552213
s(S'0111100122'
p1601
I0
tp1602
I5
s(S'2211110220'
p1603
I0
tp1604
I5
s(S'0022222210'
p1605
I0
tp1606
I-200
s(S'2212221012'
p1607
I1
tp1608
I1
s(S'0002222200'
p1609
I2
tp1610
I1
s(S'2222220121'
p1611
I0
tp1612
F7.247687595388376
s(S'1222200002'
p1613
I0
tp1614
F6.080289348514911
s(S'0122222111'
p1615
I1
tp1616
I1
s(S'0011122221'
p1617
I2
tp1618
F3.6067263827487834
s(S'2221001222'
p1619
I2
tp1620
F6.05077931116773
s(S'0120011122'
p1621
I1
tp1622
F2.178354712433264
s(S'1122222101'
p1623
I1
tp1624
I1
s(S'1222110022'
p1625
I2
tp1626
I1
s(S'2102222222'
p1627
I2
tp1628
F-35.85618335887703
s(S'2221001110'
p1629
I0
tp1630
I5
s(S'0022222221'
p1631
I0
tp1632
I-200
s(S'2222200022'
p1633
I0
tp1634
I5
s(S'2011222222'
p1635
I0
tp1636
F-34.86721565435262
s(S'0111122221'
p1637
I2
tp1638
F-11.92476455119014
s(S'2200112221'
p1639
I1
tp1640
F3.600255378663867
s(S'1011122222'
p1641
I2
tp1642
F2.753098845766419
s(S'2220001111'
p1643
I0
tp1644
F6.834083965114171
s(S'2012222221'
p1645
I0
tp1646
F-28.31261992187499
s(S'0122220122'
p1647
I0
tp1648
F7.246224338989258
s(S'0021002222'
p1649
I0
tp1650
F10.029822313245226
s(S'0111222220'
p1651
I2
tp1652
I1
s(S'1002222222'
p1653
I0
tp1654
F-122.27583620274048
s(S'0111222221'
p1655
I0
tp1656
I5
s(S'0122220011'
p1657
I1
tp1658
I1
s(S'2001222222'
p1659
I0
tp1660
F7.06655156164404
s(S'0110122222'
p1661
I2
tp1662
F4.340388038130072
s(S'0122222220'
p1663
I2
tp1664
F-43.115993158178554
s(S'2201222122'
p1665
I2
tp1666
F4.036046270567421
s(S'2222222110'
p1667
I0
tp1668
I-200
s(S'2222220022'
p1669
I0
tp1670
F7.767204696928488
s(S'0121012222'
p1671
I2
tp1672
F5.288903415670106
s(S'1220112212'
p1673
I1
tp1674
I1
s(S'2000222221'
p1675
I1
tp1676
F-36.9915316703125
s(S'0000222220'
p1677
I0
tp1678
F5.6715625
s(S'2222210111'
p1679
I0
tp1680
F-97.325
s(S'2102222211'
p1681
I0
tp1682
F-13.39813514663247
s(S'2200111122'
p1683
I2
tp1684
F4.910096735240119
s(S'2200001111'
p1685
I1
tp1686
F1.0
s(S'0221101222'
p1687
I1
tp1688
I1
s(S'1222220112'
p1689
I0
tp1690
F7.204468214565723
s(S'2211110221'
p1691
I0
tp1692
F7.838614641417077
s(S'0022002222'
p1693
I0
tp1694
F9.736875581088166
s(S'2200111111'
p1695
I1
tp1696
F3.0982920059260524
s(S'1100222222'
p1697
I2
tp1698
F2.305111474915722
s(S'0222211100'
p1699
I2
tp1700
I1
s(S'2110122222'
p1701
I2
tp1702
F5.230852149825594
s(S'1001122222'
p1703
I0
tp1704
F-97.5
s(S'2220002222'
p1705
I0
tp1706
F8.938042522378883
s(S'1022222221'
p1707
I2
tp1708
I-200
s(S'0102222222'
p1709
I2
tp1710
I1
s(S'1102222222'
p1711
I2
tp1712
F-149.6625
s(S'2102222221'
p1713
I1
tp1714
F-41.49351362786955
s(S'2220022221'
p1715
I2
tp1716
F3.7233354123744737
s(S'2201121121'
p1717
I0
tp1718
I5
s(S'0122222011'
p1719
I2
tp1720
I1
s(S'0111022222'
p1721
I2
tp1722
F6.472679951142082
s(S'0022222002'
p1723
I0
tp1724
I5
s(S'2011122222'
p1725
I2
tp1726
F2.993096978013507
s(S'2001221222'
p1727
I0
tp1728
F6.927676266485491
s(S'2201121122'
p1729
I0
tp1730
F8.972206791827354
s(S'1011222222'
p1731
I0
tp1732
F-97.5
s(S'2222200120'
p1733
I0
tp1734
F5.54377273345157
s(S'2222222201'
p1735
I2
tp1736
F-13.625864365842114
s(S'2222201221'
p1737
I2
tp1738
F4.487442673950871
s(S'2210222222'
p1739
I1
tp1740
F-10.042645373452189
s(S'1222210222'
p1741
I1
tp1742
F2.8481843379502876
s(S'2200222212'
p1743
I0
tp1744
F8.314326227161112
s(S'0001122221'
p1745
I0
tp1746
F7.477343749999999
s(S'0112222222'
p1747
I1
tp1748
I-200
s(S'1221110022'
p1749
I2
tp1750
F2.07735690234375
s(S'2222221101'
p1751
I0
tp1752
F-32.28031710866803
s(S'0221012221'
p1753
I1
tp1754
F2.133602213267764
s(S'0122001222'
p1755
I2
tp1756
F1.0
s(S'2101121111'
p1757
I1
tp1758
I1
s(S'1210122222'
p1759
I1
tp1760
F-33.924318031632204
s(S'1011012222'
p1761
I1
tp1762
F5.772443115083295
s(S'2012222222'
p1763
I1
tp1764
F-22.598145331237575
s(S'1021002222'
p1765
I0
tp1766
I5
s(S'2222210110'
p1767
I2
tp1768
F-98.27806209876336
s(S'1211012222'
p1769
I0
tp1770
F8.388356275509706
s(S'2002222200'
p1771
I1
tp1772
I1
s(S'1122222210'
p1773
I1
tp1774
F-200.0
s(S'2222100210'
p1775
I1
tp1776
I1
s(S'2002222121'
p1777
I2
tp1778
F2.060344661116132
s(S'0012222210'
p1779
I1
tp1780
F1.3981249999999998
s(S'0220011222'
p1781
I0
tp1782
I5
s(S'0122011111'
p1783
I2
tp1784
I1
s(S'2101221121'
p1785
I2
tp1786
F4.838414639422753
s(S'2200112222'
p1787
I2
tp1788
F3.0066169814353754
s(S'2222110011'
p1789
I1
tp1790
F6.6974850567157045
s(S'1121000022'
p1791
I1
tp1792
I1
s(S'1001222221'
p1793
I2
tp1794
F1.768303594163924
s(S'2211110122'
p1795
I2
tp1796
I1
s(S'2210122112'
p1797
I2
tp1798
F3.496894331049643
s(S'2221002210'
p1799
I1
tp1800
F1.525
s(S'0112222210'
p1801
I0
tp1802
F-97.325
s(S'2222002222'
p1803
I0
tp1804
F13.485908525369531
s(S'0120122222'
p1805
I1
tp1806
F3.7037251684553167
s(S'0222222222'
p1807
I0
tp1808
F-174.375
s(S'1121001222'
p1809
I0
tp1810
I5
s(S'0111222222'
p1811
I0
tp1812
I5
s(S'1220111222'
p1813
I2
tp1814
F1.0590625
s(S'2200011211'
p1815
I1
tp1816
I1
s(S'0220112222'
p1817
I2
tp1818
F2.1833638749046633
s(S'0021022222'
p1819
I2
tp1820
F1.0
s(S'1222211100'
p1821
I2
tp1822
F1.0
s(S'0022101111'
p1823
I1
tp1824
I1
s(S'2011222220'
p1825
I2
tp1826
I1
s(S'2201111122'
p1827
I2
tp1828
F6.636621901398414
s(S'2220011112'
p1829
I2
tp1830
F1.0
s(S'2012221222'
p1831
I1
tp1832
F-17.035776924146816
s(S'1222220122'
p1833
I0
tp1834
F7.843709498517136
s(S'0222101222'
p1835
I1
tp1836
F8.39289075196699
s(S'1220122212'
p1837
I1
tp1838
I1
s(S'2222201220'
p1839
I0
tp1840
F6.447531289104171
s(S'1220122222'
p1841
I1
tp1842
F2.802327597162563
s(S'2222200111'
p1843
I2
tp1844
I-200
s(S'1222201222'
p1845
I1
tp1846
F6.288329815428137
s(S'2222220011'
p1847
I1
tp1848
F4.125831545585092
s(S'2222222101'
p1849
I2
tp1850
F-99.34445746194719
s(S'2002222111'
p1851
I1
tp1852
F1.4725
s(S'1222002222'
p1853
I2
tp1854
F8.205518328754994
s(S'0022012222'
p1855
I2
tp1856
F2.75
s(S'2222200122'
p1857
I0
tp1858
F9.340248107410233
s(S'2222200211'
p1859
I2
tp1860
I1
s(S'1122221022'
p1861
I1
tp1862
F3.6203887587184775
s(S'1222222011'
p1863
I2
tp1864
I-200
s(S'2220111222'
p1865
I2
tp1866
F4.399717052682158
s(S'1012222222'
p1867
I0
tp1868
F-123.125
s(S'0022220022'
p1869
I2
tp1870
I1
s(S'1222220002'
p1871
I1
tp1872
F2.3798745774880885
s(S'2210122221'
p1873
I2
tp1874
F3.675661616796056
s(S'1222011112'
p1875
I1
tp1876
F1.35
s(S'2200111112'
p1877
I0
tp1878
F5.0
s(S'1222011122'
p1879
I1
tp1880
F2.3999500287249984
s(S'1011212221'
p1881
I2
tp1882
F0.7272633799883919
s(S'0002222101'
p1883
I2
tp1884
F1.0
s(S'2011222221'
p1885
I0
tp1886
F-13.307564853861287
s(S'2222220002'
p1887
I0
tp1888
F-97.5
s(S'2200122210'
p1889
I1
tp1890
F1.5172592578125
s(S'1101112222'
p1891
I2
tp1892
F3.1825000356410857
s(S'1100122222'
p1893
I2
tp1894
F3.309992642314362
s(S'1120112222'
p1895
I2
tp1896
I1
s(S'2222211001'
p1897
I0
tp1898
I5
s(S'2011122220'
p1899
I0
tp1900
F6.719525689984029
s(S'1210222221'
p1901
I1
tp1902
F2.9523597257558865
s(S'0121102222'
p1903
I1
tp1904
F4.871560070882019
s(S'1000122221'
p1905
I2
tp1906
F2.1352040250147653
s(S'2012222111'
p1907
I1
tp1908
I1
s(S'0021102222'
p1909
I1
tp1910
F7.482401903357484
s(S'2222012200'
p1911
I1
tp1912
I1
s(S'1001222111'
p1913
I2
tp1914
I1
s(S'1222210122'
p1915
I2
tp1916
F4.30566798649538
s(S'2222221001'
p1917
I1
tp1918
F1.175
s(S'0122102222'
p1919
I0
tp1920
F7.388232277562644
s(S'2222012211'
p1921
I2
tp1922
I1
s(S'0122221110'
p1923
I0
tp1924
I5
s(S'2102222122'
p1925
I0
tp1926
I5
s(S'2200012221'
p1927
I1
tp1928
F3.3143253197536975
s(S'2222220120'
p1929
I2
tp1930
I1
s(S'0122222221'
p1931
I0
tp1932
F-121.724453125
s(S'2222221002'
p1933
I0
tp1934
I-200
s(S'1122001222'
p1935
I0
tp1936
F10.719155795063944
s(S'1222210111'
p1937
I0
tp1938
I5
s(S'0210122222'
p1939
I1
tp1940
F3.7162185658517437
s(S'2001111211'
p1941
I1
tp1942
F4.157920723462554
s(S'2222001110'
p1943
I0
tp1944
F8.840850484404251
s(S'2011112222'
p1945
I0
tp1946
F-19.752310147343866
s(S'1110222222'
p1947
I1
tp1948
I-200
s(S'2200101111'
p1949
I0
tp1950
I5
s(S'2212210022'
p1951
I2
tp1952
I1
s(S'2220001211'
p1953
I2
tp1954
F7.839411806058017
s(S'0011222210'
p1955
I1
tp1956
F2.75
s(S'1022222222'
p1957
I2
tp1958
F-157.759659666998
s(S'2211111022'
p1959
I0
tp1960
I5
s(S'2222000122'
p1961
I1
tp1962
F5.050380457273013
s(S'1102222221'
p1963
I2
tp1964
F-68.24560934149324
s(S'2222222101'
p1965
I0
tp1966
F-101.44511460076527
s(S'2220011221'
p1967
I2
tp1968
F6.178144479643466
s(S'2222221011'
p1969
I1
tp1970
F3.5940218947899565
s(S'2011122222'
p1971
I0
tp1972
F-3.93530599437935
s(S'0222100122'
p1973
I2
tp1974
F1.576625
s(S'1011122222'
p1975
I0
tp1976
F-1.5901884405187845
s(S'0211012222'
p1977
I2
tp1978
F4.300544382030706
s(S'1100022222'
p1979
I2
tp1980
F4.8830399192372465
s(S'1012222211'
p1981
I2
tp1982
F-57.09621067150878
s(S'0222222221'
p1983
I2
tp1984
F-14.427561510032454
s(S'2222110111'
p1985
I0
tp1986
F8.570971674336704
s(S'0222222221'
p1987
I1
tp1988
F-36.30899605801144
s(S'1222111102'
p1989
I0
tp1990
I5
s(S'2222201222'
p1991
I2
tp1992
F6.5293299122633695
s(S'2222111021'
p1993
I2
tp1994
F2.476468282017211
s(S'1120002222'
p1995
I2
tp1996
F1.0
s(S'1122222220'
p1997
I2
tp1998
F-99.5
s(S'0222002222'
p1999
I2
tp2000
F4.6026449239421146
s(S'2101111111'
p2001
I1
tp2002
F1.4713674526367186
s(S'2222220111'
p2003
I2
tp2004
F-99.5
s(S'2222102222'
p2005
I0
tp2006
F12.851146952823218
s(S'0110112222'
p2007
I2
tp2008
I1
s(S'0220012221'
p2009
I1
tp2010
I1
s(S'0022102222'
p2011
I0
tp2012
F10.079803738314403
s(S'0220022222'
p2013
I2
tp2014
F-97.01231247690721
s(S'2221110022'
p2015
I2
tp2016
F4.893316076189101
s(S'1201122222'
p2017
I1
tp2018
F-0.5085593180568444
s(S'2222220012'
p2019
I0
tp2020
I-200
s(S'2222200220'
p2021
I2
tp2022
F2.5679018415773873
s(S'2221001221'
p2023
I2
tp2024
F1.9733417422800272
s(S'0222200222'
p2025
I2
tp2026
F2.3077961913627854
s(S'2102222221'
p2027
I0
tp2028
F-97.5
s(S'1122222200'
p2029
I2
tp2030
I-200
s(S'0110111222'
p2031
I2
tp2032
F1.902934235169702
s(S'0022222200'
p2033
I2
tp2034
F1.3028854541015624
s(S'1012222221'
p2035
I1
tp2036
F-149.75
s(S'1022222221'
p2037
I0
tp2038
F-47.33271691644838
s(S'1222101122'
p2039
I1
tp2040
I1
s(S'1210122212'
p2041
I0
tp2042
I5
s(S'1112210122'
p2043
I0
tp2044
F5.0
s(S'1102222222'
p2045
I0
tp2046
I-200
s(S'1011222221'
p2047
I2
tp2048
F1.9400753168636846
s(S'0110022222'
p2049
I2
tp2050
F4.361900130265684
s(S'2222210222'
p2051
I2
tp2052
F5.251812342752797
s(S'2222220001'
p2053
I1
tp2054
F1.8023963474420377
s(S'1222210022'
p2055
I2
tp2056
F3.2786029254739484
s(S'2001112211'
p2057
I2
tp2058
F2.7425924690873313
s(S'1200222222'
p2059
I1
tp2060
F3.371111092954211
s(S'1002222210'
p2061
I1
tp2062
I-200
s(S'0012222222'
p2063
I0
tp2064
F-25.252548975754838
s(S'1011222222'
p2065
I2
tp2066
F2.4437840357461353
s(S'0222221100'
p2067
I2
tp2068
I1
s(S'1222111022'
p2069
I1
tp2070
F4.489522715364005
s(S'2200222221'
p2071
I2
tp2072
F4.057653541985124
s(S'2000012211'
p2073
I0
tp2074
I5
s(S'2220011122'
p2075
I2
tp2076
F2.2851530099849895
s(S'1121102222'
p2077
I2
tp2078
F3.628646083254302
s(S'2001222220'
p2079
I1
tp2080
F2.643785649727946
s(S'0111012212'
p2081
I2
tp2082
I1
s(S'2220012221'
p2083
I0
tp2084
F7.595664871683367
s(S'2000222222'
p2085
I2
tp2086
F2.6927611110699026
s(S'0011222222'
p2087
I1
tp2088
I-200
s(S'2222200011'
p2089
I1
tp2090
F5.9446534026638975
s(S'0222210011'
p2091
I1
tp2092
I1
s(S'1221100222'
p2093
I1
tp2094
F3.2495240866069453
s(S'2201111211'
p2095
I1
tp2096
F2.764719130811989
s(S'2011221222'
p2097
I2
tp2098
F2.7150460789466746
s(S'1022222111'
p2099
I1
tp2100
I1
s(S'0122220002'
p2101
I0
tp2102
F5.0
s(S'0122222222'
p2103
I1
tp2104
I-200
s(S'2110122222'
p2105
I0
tp2106
F-29.5585181286581
s(S'1110012222'
p2107
I0
tp2108
F9.678250488525194
s(S'1121002222'
p2109
I2
tp2110
F5.411287316663065
s(S'2001211221'
p2111
I0
tp2112
I5
s(S'1000222220'
p2113
I0
tp2114
F6.75
s(S'2211100221'
p2115
I0
tp2116
I5
s(S'2222210021'
p2117
I2
tp2118
F1.8470167962642088
s(S'0121101222'
p2119
I0
tp2120
I5
s(S'1210012222'
p2121
I1
tp2122
F2.5402048547392586
s(S'2222211101'
p2123
I1
tp2124
F1.8709690226674711
s(S'0122011221'
p2125
I0
tp2126
I5
s(S'0022222201'
p2127
I0
tp2128
I-200
s(S'1101122222'
p2129
I1
tp2130
F-100.1958617742048
s(S'0011122220'
p2131
I0
tp2132
F5.825559239313197
s(S'2222201111'
p2133
I0
tp2134
F-93.30065804989952
s(S'1222211002'
p2135
I2
tp2136
I1
s(S'2220010111'
p2137
I1
tp2138
I1
s(S'2011212221'
p2139
I1
tp2140
F0.8248795419590111
s(S'1101222221'
p2141
I2
tp2142
F3.54608855079396
s(S'2011122221'
p2143
I0
tp2144
F1.8268697208646651
s(S'0222222222'
p2145
I2
tp2146
I-200
s(S'2110222222'
p2147
I2
tp2148
F4.674199698993132
s(S'0222222001'
p2149
I2
tp2150
I1
s(S'2222011211'
p2151
I2
tp2152
F3.9054086819265574
s(S'2101122111'
p2153
I0
tp2154
I5
s(S'2000022221'
p2155
I2
tp2156
F2.89543979686887
s(S'0110011122'
p2157
I2
tp2158
F1.0
s(S'1210112222'
p2159
I2
tp2160
I1
s.