(dp0
(S'2200011210'
p1
I2
tp2
I1
s(S'2201112222'
p3
I2
tp4
I1
s(S'2220001222'
p5
I0
tp6
I5
s(S'2201222222'
p7
I2
tp8
F1.0
s(S'2001122222'
p9
I0
tp10
F6.971459765625
s(S'1100022222'
p11
I2
tp12
I1
s(S'2200122222'
p13
I0
tp14
F5.0
s(S'2220012222'
p15
I1
tp16
F5.559002727471859
s(S'2000122221'
p17
I1
tp18
F1.175
s(S'2002222211'
p19
I0
tp20
F5.525
s(S'2221012222'
p21
I1
tp22
F2.7482290609129327
s(S'2001221111'
p23
I2
tp24
F3.0370566015624996
s(S'0022222221'
p25
I0
tp26
I-200
s(S'2222220111'
p27
I1
tp28
F4.140199493704239
s(S'2200112221'
p29
I1
tp30
F2.8321390222877376
s(S'2110222221'
p31
I0
tp32
I5
s(S'0011222220'
p33
I2
tp34
F1.0
s(S'2222000111'
p35
I2
tp36
F-99.325
s(S'2220001111'
p37
I0
tp38
F6.951432725287589
s(S'2012222221'
p39
I0
tp40
F7.7475
s(S'2222012222'
p41
I2
tp42
F8.517715777185849
s(S'2220002222'
p43
I0
tp44
I5
s(S'1222222221'
p45
I2
tp46
I1
s(S'2001111221'
p47
I1
tp48
F2.695689706117915
s(S'1012222222'
p49
I2
tp50
F1.814594795758064
s(S'0222102222'
p51
I2
tp52
F1.35
s(S'2001111222'
p53
I2
tp54
F3.3778125
s(S'2222011111'
p55
I0
tp56
I-200
s(S'1011222222'
p57
I2
tp58
F1.525
s(S'2210122211'
p59
I1
tp60
F3.6091700195312497
s(S'0110122222'
p61
I2
tp62
F1.0875
s(S'2001221222'
p63
I0
tp64
F6.392030668933135
s(S'1012222221'
p65
I0
tp66
F-97.14141406249999
s(S'2201222122'
p67
I2
tp68
I1
s(S'1210122221'
p69
I0
tp70
I5
s(S'1110022222'
p71
I1
tp72
I-200
s(S'0121012222'
p73
I2
tp74
I1
s(S'1102222222'
p75
I1
tp76
F3.317491329335142
s(S'2000222221'
p77
I1
tp78
I1
s(S'2011122220'
p79
I0
tp80
F5.31434375
s(S'2222101111'
p81
I0
tp82
F8.061841447573677
s(S'2200122211'
p83
I2
tp84
I1
s(S'2222210111'
p85
I0
tp86
F-97.325
s(S'2210111122'
p87
I0
tp88
F5.0
s(S'2222210121'
p89
I1
tp90
F1.35
s(S'0012222220'
p91
I2
tp92
F-99.5
s(S'2220000111'
p93
I2
tp94
I1
s(S'2201111121'
p95
I0
tp96
F5.0
s(S'0111222220'
p97
I1
tp98
F2.1917376953125
s(S'2200111111'
p99
I1
tp100
F2.057518957827943
s(S'2220011111'
p101
I1
tp102
F2.066625
s(S'2222222210'
p103
I0
tp104
I-200
s(S'2102222222'
p105
I2
tp106
F2.3645859201254393
s(S'1001122222'
p107
I0
tp108
F-97.5
s(S'0112222220'
p109
I1
tp110
F-22.72825
s(S'2200001221'
p111
I1
tp112
F2.856111961225513
s(S'2210111111'
p113
I1
tp114
I1
s(S'2222101211'
p115
I2
tp116
F3.165666919605995
s(S'1022222221'
p117
I2
tp118
I-200
s(S'0011222222'
p119
I2
tp120
F1.5764062499999998
s(S'1102222222'
p121
I2
tp122
F-99.325
s(S'0122222210'
p123
I1
tp124
F1.0
s(S'2201122222'
p125
I1
tp126
I1
s(S'2222220112'
p127
I1
tp128
F6.215887110086931
s(S'0011022222'
p129
I2
tp130
I1
s(S'2220022221'
p131
I2
tp132
F4.952597986529175
s(S'1222220022'
p133
I1
tp134
I1
s(S'2200111122'
p135
I2
tp136
I1
s(S'2220001221'
p137
I0
tp138
F8.331011225295239
s(S'2102222121'
p139
I0
tp140
I5
s(S'1122222210'
p141
I2
tp142
I-200
s(S'1002222221'
p143
I0
tp144
I-200
s(S'2002222222'
p145
I1
tp146
F-0.899484033414867
s(S'2201121122'
p147
I0
tp148
F7.188637773437499
s(S'1011222222'
p149
I0
tp150
F-97.5
s(S'2222222201'
p151
I2
tp152
I1
s(S'2222220122'
p153
I2
tp154
F2.446185500549757
s(S'1112222220'
p155
I1
tp156
F-134.5
s(S'1022222222'
p157
I0
tp158
I-200
s(S'2011222220'
p159
I1
tp160
I1
s(S'1102222221'
p161
I0
tp162
I-200
s(S'2220012221'
p163
I0
tp164
F6.559589865593186
s(S'2222201111'
p165
I1
tp166
F4.653097966815563
s(S'2102222221'
p167
I0
tp168
F-97.5
s(S'2222001222'
p169
I1
tp170
F1.118125
s(S'1011012222'
p171
I1
tp172
I1
s(S'2012222222'
p173
I1
tp174
F-0.3051939721679686
s(S'2210122212'
p175
I1
tp176
I1
s(S'0022222222'
p177
I2
tp178
F-99.5
s(S'1012222211'
p179
I0
tp180
I5
s(S'2201122122'
p181
I1
tp182
I1
s(S'1222222011'
p183
I0
tp184
I-200
s(S'2001122210'
p185
I0
tp186
F5.35
s(S'2011122222'
p187
I1
tp188
F1.683484375
s(S'2210121122'
p189
I0
tp190
I5
s(S'2101112222'
p191
I0
tp192
F5.511875
s(S'1011122222'
p193
I2
tp194
F1.04375
s(S'0012222210'
p195
I1
tp196
F1.0
s(S'0001222220'
p197
I1
tp198
I1
s(S'2200222222'
p199
I1
tp200
I1
s(S'2011112211'
p201
I2
tp202
I1
s(S'2220110111'
p203
I2
tp204
I1
s(S'2102222211'
p205
I1
tp206
F1.0
s(S'2011222222'
p207
I0
tp208
I5
s(S'2101222211'
p209
I1
tp210
F2.5596875
s(S'2001122221'
p211
I1
tp212
F2.75
s(S'2222001122'
p213
I2
tp214
F4.848815267562603
s(S'2222220111'
p215
I0
tp216
F-97.5
s(S'2210122112'
p217
I2
tp218
I1
s(S'0112222210'
p219
I0
tp220
F-97.325
s(S'2200111121'
p221
I1
tp222
F3.28031671
s(S'2221012221'
p223
I0
tp224
F5.6628335452431395
s(S'2222000111'
p225
I1
tp226
F5.0202190606482775
s(S'2222001111'
p227
I1
tp228
F4.329029585180388
s(S'2222101222'
p229
I0
tp230
F11.455058158385532
s(S'2000122210'
p231
I2
tp232
F1.175
s(S'2222200121'
p233
I2
tp234
F3.732059712299325
s(S'2222222200'
p235
I1
tp236
I1
s(S'2201111122'
p237
I2
tp238
F1.175
s(S'2012221222'
p239
I1
tp240
I1
s(S'1222220122'
p241
I0
tp242
F5.0
s(S'0222101222'
p243
I1
tp244
F4.890898947586514
s(S'1222221012'
p245
I1
tp246
F3.629063523445642
s(S'2222002221'
p247
I2
tp248
I1
s(S'0222222222'
p249
I0
tp250
F-97.5
s(S'1112222210'
p251
I2
tp252
F1.76335
s(S'2222200111'
p253
I2
tp254
I-200
s(S'1101222222'
p255
I2
tp256
F1.6670494140624998
s(S'2201111221'
p257
I0
tp258
F7.427174534667969
s(S'2222220011'
p259
I1
tp260
F2.392838748099395
s(S'0110022222'
p261
I1
tp262
F-99.26375
s(S'2222210111'
p263
I1
tp264
F4.159510646783273
s(S'1001222222'
p265
I2
tp266
F1.53375
s(S'1100122222'
p267
I0
tp268
F5.875
s(S'1122222210'
p269
I1
tp270
F-200.0
s(S'2222200122'
p271
I0
tp272
F10.46140240469375
s(S'1002222211'
p273
I2
tp274
F1.4375
s(S'1012222222'
p275
I0
tp276
F-123.125
s(S'2101222111'
p277
I2
tp278
F5.769489648437499
s(S'1002222222'
p279
I2
tp280
F-99.5
s(S'1122222200'
p281
I1
tp282
I-200
s(S'2200122111'
p283
I1
tp284
F1.35
s(S'2210122221'
p285
I2
tp286
I1
s(S'2222201221'
p287
I2
tp288
F3.568054768049909
s(S'2011222221'
p289
I0
tp290
I5
s(S'2222200111'
p291
I1
tp292
F4.4760344540707155
s(S'2200122210'
p293
I1
tp294
F1.525
s(S'2201222111'
p295
I2
tp296
F3.2134328125
s(S'2200011221'
p297
I0
tp298
I5
s(S'2200012222'
p299
I2
tp300
F1.0
s(S'2101222222'
p301
I1
tp302
F2.1402809202940536
s(S'2101221222'
p303
I2
tp304
F1.35
s(S'2012222222'
p305
I0
tp306
F-28.89334375
s(S'2001211221'
p307
I0
tp308
I5
s(S'0011122221'
p309
I1
tp310
F1.88746875
s(S'1002222221'
p311
I1
tp312
F-99.5
s(S'2101222221'
p313
I1
tp314
F3.2924999999999995
s(S'2210122222'
p315
I1
tp316
I1
s(S'1110222222'
p317
I2
tp318
F1.0
s(S'1222210122'
p319
I2
tp320
F2.1346677845414264
s(S'2201111222'
p321
I2
tp322
F2.205887470703125
s(S'2220111111'
p323
I1
tp324
I1
s(S'1002222222'
p325
I1
tp326
F1.985645768796704
s(S'1112222220'
p327
I0
tp328
I-200
s(S'2222001221'
p329
I2
tp330
F3.7354645796011887
s(S'2001112222'
p331
I2
tp332
F5.813845156738234
s(S'2101222122'
p333
I1
tp334
F4.29875
s(S'1001122222'
p335
I2
tp336
I1
s(S'2200012221'
p337
I1
tp338
F1.800501420256836
s(S'2222201111'
p339
I2
tp340
F-99.07156653063477
s(S'2222221011'
p341
I2
tp342
F1.0
s(S'1011122220'
p343
I0
tp344
F5.0
s(S'1101222221'
p345
I0
tp346
I-200
s(S'1222220012'
p347
I1
tp348
F3.078904695132362
s(S'0122222221'
p349
I0
tp350
F-97.5
s(S'0021012222'
p351
I0
tp352
I5
s(S'2200022222'
p353
I0
tp354
F9.627552343749999
s(S'2221012210'
p355
I0
tp356
F7.179829487992187
s(S'0111022222'
p357
I0
tp358
I5
s(S'1101122222'
p359
I1
tp360
I1
s(S'2222011221'
p361
I2
tp362
F3.3861981443260043
s(S'0122102222'
p363
I0
tp364
I5
s(S'2201222211'
p365
I0
tp366
F7.4241669921875
s(S'2011112222'
p367
I0
tp368
F5.525
s(S'2001112221'
p369
I1
tp370
F2.819190941145446
s(S'2222200222'
p371
I2
tp372
F6.401922102128625
s(S'2222000121'
p373
I1
tp374
F3.211534735887407
s(S'2200122220'
p375
I1
tp376
I1
s(S'2222221012'
p377
I1
tp378
F3.0935746281593985
s(S'1022222221'
p379
I1
tp380
I-200
s(S'2220001211'
p381
I2
tp382
I1
s(S'0011222210'
p383
I1
tp384
F2.75
s(S'1022222222'
p385
I2
tp386
F-15.012500000000001
s(S'2220012210'
p387
I0
tp388
F6.987709846286767
s(S'1102222221'
p389
I2
tp390
F-174.8280234375
s(S'2220011221'
p391
I2
tp392
F8.360284010172261
s(S'1122222210'
p393
I0
tp394
I-200
s(S'2220001121'
p395
I0
tp396
F10.547314335639246
s(S'2201221111'
p397
I1
tp398
F1.35
s(S'2222000111'
p399
I0
tp400
F-96.625
s(S'1100222222'
p401
I2
tp402
F1.35
s(S'0222222222'
p403
I1
tp404
F-99.5
s(S'2222101222'
p405
I2
tp406
F-99.2375
s(S'1012222211'
p407
I2
tp408
F-22.890731484374992
s(S'0111222210'
p409
I0
tp410
F6.0321718749999995
s(S'2200111221'
p411
I0
tp412
F9.02804058160098
s(S'2222101221'
p413
I0
tp414
F9.30112318785023
s(S'2200112210'
p415
I2
tp416
I1
s(S'2001222222'
p417
I1
tp418
I1
s(S'2222201222'
p419
I2
tp420
F6.495852962418971
s(S'2101221111'
p421
I2
tp422
I1
s(S'2200222221'
p423
I2
tp424
I1
s(S'2001111111'
p425
I1
tp426
I1
s(S'1012222221'
p427
I2
tp428
F-33.59529609374999
s(S'1112222220'
p429
I2
tp430
I-200
s(S'2200222211'
p431
I0
tp432
I5
s(S'2101111121'
p433
I0
tp434
I5
s(S'2220011211'
p435
I0
tp436
F9.153966529677842
s(S'1102222221'
p437
I1
tp438
F-174.875
s(S'2222220111'
p439
I2
tp440
F-99.5
s(S'2222220011'
p441
I2
tp442
I-200
s(S'2222102222'
p443
I0
tp444
F13.187355213411644
s(S'2200122221'
p445
I2
tp446
F5.233555429687499
s(S'0112222210'
p447
I2
tp448
F1.7307740234375
s(S'0022102222'
p449
I0
tp450
I5
s(S'2220022222'
p451
I2
tp452
F2.860873929758362
s(S'1012212221'
p453
I2
tp454
I1
s(S'0012222220'
p455
I0
tp456
I-200
s(S'2000122220'
p457
I1
tp458
F1.3675
s(S'2222220012'
p459
I0
tp460
I-200
s(S'1100222221'
p461
I2
tp462
I1
s(S'1101222221'
p463
I2
tp464
I1
s(S'1110122222'
p465
I2
tp466
F1.690375
s(S'0100222222'
p467
I1
tp468
F2.1611219652672995
s(S'1012222222'
p469
I1
tp470
F-99.5
s(S'2102222211'
p471
I0
tp472
F-6.290731484374999
s(S'2222011111'
p473
I1
tp474
F4.861573827899903
s(S'1021012222'
p475
I0
tp476
I5
s(S'1122222200'
p477
I2
tp478
I-200
s(S'2011211221'
p479
I1
tp480
I1
s(S'2012212221'
p481
I1
tp482
I1
s(S'2222001211'
p483
I0
tp484
F10.636191527231773
s(S'1012222221'
p485
I1
tp486
F-99.5
s(S'1002222221'
p487
I2
tp488
F-86.29211640624999
s(S'2220012211'
p489
I2
tp490
F2.7600442876195754
s(S'2222210122'
p491
I0
tp492
F8.100927653946762
s(S'2200012211'
p493
I1
tp494
I1
s(S'2201121111'
p495
I1
tp496
I1
s(S'1011222221'
p497
I2
tp498
I1
s(S'1011122221'
p499
I1
tp500
I1
s(S'2011122210'
p501
I2
tp502
I1
s(S'2222012221'
p503
I0
tp504
I5
s(S'1101222222'
p505
I1
tp506
F-15.854766796875
s(S'2222210222'
p507
I2
tp508
F3.6446371837352864
s(S'0012212221'
p509
I1
tp510
I1
s(S'0122222222'
p511
I2
tp512
F-99.325
s(S'2200111222'
p513
I1
tp514
F3.33602865234375
s(S'1102222222'
p515
I0
tp516
I-200
s(S'1222220112'
p517
I0
tp518
I5
s(S'0002222220'
p519
I1
tp520
F1.525
s(S'2000222210'
p521
I1
tp522
I1
s(S'2222201122'
p523
I0
tp524
F8.322303220632541
s(S'1002222222'
p525
I0
tp526
F-2.7273833984374987
s(S'2011112221'
p527
I2
tp528
F2.386716999416344
s(S'2002222222'
p529
I2
tp530
F1.6196365730460371
s(S'1222222210'
p531
I1
tp532
F1.0
s(S'2001222220'
p533
I1
tp534
F1.35
s(S'2000222220'
p535
I0
tp536
F5.35
s(S'0011222222'
p537
I1
tp538
I-200
s(S'2222101121'
p539
I2
tp540
F4.686637505911756
s(S'0022222222'
p541
I1
tp542
F-99.5
s(S'0110222222'
p543
I1
tp544
F1.57193458984375
s(S'2222002222'
p545
I0
tp546
F14.825609606874352
s(S'0122222221'
p547
I2
tp548
I1
s(S'2011221222'
p549
I2
tp550
F1.9533125
s(S'0011222221'
p551
I1
tp552
I1
s(S'2012222222'
p553
I2
tp554
F2.4079216026142714
s(S'1222222011'
p555
I2
tp556
I-200
s(S'0110022222'
p557
I2
tp558
I1
s(S'2101111221'
p559
I2
tp560
F2.4722462890624994
s(S'2200022221'
p561
I1
tp562
F2.1052742695312503
s(S'2200122122'
p563
I1
tp564
I1
s(S'2002222222'
p565
I0
tp566
F-6.255786695076006
s(S'1011222222'
p567
I1
tp568
F-99.5
s(S'1110222222'
p569
I0
tp570
I-200
s(S'0002222210'
p571
I2
tp572
F1.4725
s(S'0122222220'
p573
I1
tp574
F1.0
s(S'2101111222'
p575
I0
tp576
F7.294090741126457
s(S'0122222200'
p577
I2
tp578
I1
s(S'2220122221'
p579
I2
tp580
I1
s(S'1022222222'
p581
I1
tp582
F-99.20832421875001
s(S'2201112221'
p583
I0
tp584
F6.949206875
s(S'0022222221'
p585
I1
tp586
I-200
s(S'2222201121'
p587
I2
tp588
F4.043331214851188
s(S'2210022222'
p589
I0
tp590
I5
s(S'2222201111'
p591
I0
tp592
F-93.30065804989952
s(S'2201111111'
p593
I2
tp594
F2.623116890377398
s(S'2220011210'
p595
I1
tp596
I1
s(S'2222210112'
p597
I2
tp598
F3.615018102275701
s(S'2101221121'
p599
I2
tp600
I1
s(S'2011122221'
p601
I0
tp602
I5
s(S'0001222210'
p603
I2
tp604
I1
s(S'0222222222'
p605
I2
tp606
I-200
s(S'2222001121'
p607
I2
tp608
F4.136444116199956
s(S'2222011211'
p609
I2
tp610
F4.009084997399348
s(S'2000022221'
p611
I2
tp612
F2.378433658801812
s.