(dp0
(S'2200011210'
p1
I2
tp2
I1
s(S'2201112222'
p3
I2
tp4
I1
s(S'2220001222'
p5
I0
tp6
I5
s(S'2201222222'
p7
I2
tp8
F1.0
s(S'2001122222'
p9
I0
tp10
F6.225
s(S'1100022222'
p11
I2
tp12
I1
s(S'2200122222'
p13
I0
tp14
F5.0
s(S'2220012222'
p15
I1
tp16
F1.9731265266505709
s(S'2000122221'
p17
I1
tp18
F1.175
s(S'2002222211'
p19
I0
tp20
F5.525
s(S'2221012222'
p21
I1
tp22
F2.7482290609129327
s(S'2001221111'
p23
I2
tp24
I1
s(S'0022222221'
p25
I0
tp26
I-200
s(S'2222220111'
p27
I1
tp28
F4.000459568684101
s(S'2200112221'
p29
I1
tp30
F2.8321390222877376
s(S'2110222221'
p31
I0
tp32
I5
s(S'0011222220'
p33
I2
tp34
F1.0
s(S'2222000111'
p35
I2
tp36
F-99.325
s(S'2220001111'
p37
I0
tp38
F6.084856519559151
s(S'2012222221'
p39
I0
tp40
F6.75
s(S'2222012222'
p41
I2
tp42
F9.276968654646858
s(S'2220002222'
p43
I0
tp44
I5
s(S'1222222221'
p45
I2
tp46
I1
s(S'2001111221'
p47
I1
tp48
F2.695689706117915
s(S'1012222222'
p49
I2
tp50
F-1.537008758473823
s(S'2001111222'
p51
I2
tp52
I1
s(S'2222011111'
p53
I0
tp54
I-200
s(S'2210122211'
p55
I1
tp56
I1
s(S'0110122222'
p57
I2
tp58
I1
s(S'2001221222'
p59
I0
tp60
F6.166159442761091
s(S'1012222221'
p61
I0
tp62
F5.35
s(S'2201222122'
p63
I2
tp64
I1
s(S'1210122221'
p65
I0
tp66
I5
s(S'1110022222'
p67
I1
tp68
I-200
s(S'1102222222'
p69
I1
tp70
F2.2548928541326707
s(S'2000222221'
p71
I1
tp72
I1
s(S'2011122220'
p73
I0
tp74
F5.31434375
s(S'2222101111'
p75
I0
tp76
F9.394985852653537
s(S'2222210111'
p77
I0
tp78
F-97.325
s(S'2210111122'
p79
I0
tp80
I5
s(S'2222210121'
p81
I1
tp82
F1.35
s(S'0012222220'
p83
I2
tp84
F-99.5
s(S'2220000111'
p85
I2
tp86
I1
s(S'2201111121'
p87
I0
tp88
F5.0
s(S'0111222220'
p89
I1
tp90
F2.108337890625
s(S'2200111111'
p91
I1
tp92
F1.758196298499857
s(S'2220011111'
p93
I1
tp94
F2.066625
s(S'2222222210'
p95
I0
tp96
I-200
s(S'2102222222'
p97
I2
tp98
F1.4514519721343149
s(S'1001122222'
p99
I0
tp100
F-97.5
s(S'0112222220'
p101
I1
tp102
F1.8216249999999998
s(S'2200001221'
p103
I1
tp104
F2.856111961225513
s(S'2210111111'
p105
I1
tp106
I1
s(S'2222101211'
p107
I2
tp108
F2.4838680205420136
s(S'1022222221'
p109
I2
tp110
I-200
s(S'0011222222'
p111
I2
tp112
F1.205625
s(S'1102222222'
p113
I2
tp114
F-99.325
s(S'0122222210'
p115
I1
tp116
F1.0
s(S'2201122222'
p117
I1
tp118
I1
s(S'2222220112'
p119
I1
tp120
F4.481156666603173
s(S'2220022221'
p121
I2
tp122
I1
s(S'1222220022'
p123
I1
tp124
I1
s(S'2220001221'
p125
I0
tp126
F10.131804722867539
s(S'2102222121'
p127
I0
tp128
I5
s(S'1122222210'
p129
I2
tp130
I-200
s(S'1002222221'
p131
I0
tp132
I-200
s(S'2002222222'
p133
I1
tp134
F-0.899484033414867
s(S'2201121122'
p135
I0
tp136
F7.188637773437499
s(S'1011222222'
p137
I0
tp138
F-97.5
s(S'2222222201'
p139
I2
tp140
I1
s(S'2222220122'
p141
I2
tp142
F2.7496119970205815
s(S'1112222220'
p143
I1
tp144
F-69.0
s(S'1022222222'
p145
I0
tp146
I-200
s(S'2011222220'
p147
I1
tp148
I1
s(S'1102222221'
p149
I0
tp150
I-200
s(S'2220012221'
p151
I0
tp152
F5.614042125703125
s(S'2222201111'
p153
I1
tp154
F6.072122212545978
s(S'2102222221'
p155
I0
tp156
F-97.5
s(S'2222001222'
p157
I1
tp158
F1.118125
s(S'2012222222'
p159
I1
tp160
F-0.3051939721679686
s(S'2210122212'
p161
I1
tp162
I1
s(S'2201122122'
p163
I1
tp164
I1
s(S'1222222011'
p165
I0
tp166
I-200
s(S'2001122210'
p167
I0
tp168
F5.35
s(S'2011122222'
p169
I1
tp170
F1.35
s(S'2210121122'
p171
I0
tp172
I5
s(S'2101112222'
p173
I0
tp174
I5
s(S'1011122222'
p175
I2
tp176
F1.0875
s(S'0012222210'
p177
I1
tp178
F1.0
s(S'0001222220'
p179
I1
tp180
I1
s(S'2200222222'
p181
I1
tp182
I1
s(S'2011112211'
p183
I2
tp184
I1
s(S'2220110111'
p185
I2
tp186
I1
s(S'2011222222'
p187
I0
tp188
I5
s(S'2101222211'
p189
I1
tp190
F4.526249999999999
s(S'2001122221'
p191
I1
tp192
I1
s(S'2222001122'
p193
I2
tp194
F4.848815267562603
s(S'2222220111'
p195
I0
tp196
F-97.5
s(S'2210122112'
p197
I2
tp198
I1
s(S'0112222210'
p199
I0
tp200
F-97.325
s(S'2200111121'
p201
I1
tp202
F3.28031671
s(S'2221012221'
p203
I0
tp204
F5.6628335452431395
s(S'2222000111'
p205
I1
tp206
F5.0202190606482775
s(S'2222001111'
p207
I1
tp208
F6.217925816796664
s(S'2222101222'
p209
I0
tp210
F10.25018343054268
s(S'2000122210'
p211
I2
tp212
F1.175
s(S'2222200121'
p213
I2
tp214
F3.693038689948004
s(S'2222222200'
p215
I1
tp216
I1
s(S'2201111122'
p217
I2
tp218
F1.175
s(S'2012221222'
p219
I1
tp220
I1
s(S'1222220122'
p221
I0
tp222
F5.0
s(S'1222221012'
p223
I1
tp224
F3.4698387924668355
s(S'2222002221'
p225
I2
tp226
I1
s(S'0222222222'
p227
I0
tp228
F-97.5
s(S'1112222210'
p229
I2
tp230
F1.23625
s(S'2222200111'
p231
I2
tp232
I-200
s(S'1101222222'
p233
I2
tp234
I1
s(S'2201111221'
p235
I0
tp236
F7.077026888671875
s(S'2222220011'
p237
I1
tp238
I1
s(S'0110022222'
p239
I1
tp240
F1.4725
s(S'2222210111'
p241
I1
tp242
F4.461891745460684
s(S'1001222222'
p243
I2
tp244
I1
s(S'1100122222'
p245
I0
tp246
F5.875
s(S'1122222210'
p247
I1
tp248
F-200.0
s(S'2222200122'
p249
I0
tp250
F9.499671530912462
s(S'1002222211'
p251
I2
tp252
F1.875
s(S'1012222222'
p253
I0
tp254
F-123.125
s(S'2101222111'
p255
I2
tp256
F5.820161718749999
s(S'1002222222'
p257
I2
tp258
F-99.5
s(S'1122222200'
p259
I1
tp260
I-200
s(S'2200122111'
p261
I1
tp262
F1.35
s(S'2210122221'
p263
I2
tp264
I1
s(S'2222201221'
p265
I2
tp266
F3.568054768049909
s(S'2011222221'
p267
I0
tp268
I5
s(S'2222200111'
p269
I1
tp270
F4.052379370474136
s(S'2200122210'
p271
I1
tp272
F1.525
s(S'2201222111'
p273
I2
tp274
F3.2134328125
s(S'2200012222'
p275
I2
tp276
F1.0
s(S'2101222222'
p277
I1
tp278
F2.619954721380546
s(S'2101221222'
p279
I2
tp280
F1.35
s(S'2012222222'
p281
I0
tp282
F-28.89334375
s(S'2001211221'
p283
I0
tp284
I5
s(S'0011122221'
p285
I1
tp286
F1.88746875
s(S'1002222221'
p287
I1
tp288
F-99.5
s(S'2101222221'
p289
I1
tp290
F3.2924999999999995
s(S'2210122222'
p291
I1
tp292
I1
s(S'1110222222'
p293
I2
tp294
F1.0
s(S'1222210122'
p295
I2
tp296
F2.1346677845414264
s(S'2201111222'
p297
I2
tp298
F3.5593476562499995
s(S'2220111111'
p299
I1
tp300
I1
s(S'1002222222'
p301
I1
tp302
F2.2438643251868164
s(S'1112222220'
p303
I0
tp304
I-200
s(S'2222001221'
p305
I2
tp306
F3.0267118914637856
s(S'2001112222'
p307
I2
tp308
F1.35
s(S'2101222122'
p309
I1
tp310
F2.8724999999999996
s(S'2200012221'
p311
I1
tp312
F2.296477271796875
s(S'2222201111'
p313
I2
tp314
F-99.07156653063477
s(S'2222221011'
p315
I2
tp316
F1.0
s(S'1011122220'
p317
I0
tp318
I5
s(S'1101222221'
p319
I0
tp320
I-200
s(S'1222220012'
p321
I1
tp322
F3.088710997034153
s(S'0122222221'
p323
I0
tp324
F-97.5
s(S'2200022222'
p325
I0
tp326
F6.75
s(S'2221012210'
p327
I0
tp328
F7.179829487992187
s(S'0111022222'
p329
I0
tp330
I5
s(S'1101122222'
p331
I1
tp332
I1
s(S'2222011221'
p333
I2
tp334
F3.6536979646273586
s(S'2201222211'
p335
I0
tp336
F6.74116796875
s(S'2011112222'
p337
I0
tp338
F5.525
s(S'2001112221'
p339
I1
tp340
F3.9383818822908916
s(S'2222200222'
p341
I2
tp342
F3.874951665327718
s(S'2222000121'
p343
I1
tp344
F1.9704746992912847
s(S'2200122220'
p345
I1
tp346
I1
s(S'2222221012'
p347
I1
tp348
F3.0935746281593985
s(S'2220001211'
p349
I2
tp350
I1
s(S'0011222210'
p351
I1
tp352
F2.75
s(S'1022222222'
p353
I2
tp354
F-15.012500000000001
s(S'2220012210'
p355
I0
tp356
F5.58625
s(S'1102222221'
p357
I2
tp358
F-174.8280234375
s(S'2220011221'
p359
I2
tp360
F7.7784831556689396
s(S'1122222210'
p361
I0
tp362
I-200
s(S'2220001121'
p363
I0
tp364
F10.547314335639246
s(S'2201221111'
p365
I1
tp366
I1
s(S'2222000111'
p367
I0
tp368
F-96.625
s(S'1100222222'
p369
I2
tp370
F1.0
s(S'0222222222'
p371
I1
tp372
F-99.5
s(S'2222101222'
p373
I2
tp374
F-99.2375
s(S'1012222211'
p375
I2
tp376
F1.35
s(S'0111222210'
p377
I0
tp378
F6.0321718749999995
s(S'2200111221'
p379
I0
tp380
F9.399481467846906
s(S'2222101221'
p381
I0
tp382
F9.03067664620173
s(S'2200112210'
p383
I2
tp384
I1
s(S'2001222222'
p385
I1
tp386
I1
s(S'2222201222'
p387
I2
tp388
F6.954062644953346
s(S'2101221111'
p389
I2
tp390
I1
s(S'2200222221'
p391
I2
tp392
I1
s(S'2001111111'
p393
I1
tp394
I1
s(S'1012222221'
p395
I2
tp396
F-33.59529609374999
s(S'1112222220'
p397
I2
tp398
I-200
s(S'2200222211'
p399
I0
tp400
I5
s(S'2101111121'
p401
I0
tp402
I5
s(S'2220011211'
p403
I0
tp404
F8.866614203080546
s(S'1102222221'
p405
I1
tp406
F-149.75
s(S'2222220111'
p407
I2
tp408
F-99.5
s(S'2222220011'
p409
I2
tp410
I-200
s(S'2222102222'
p411
I0
tp412
F12.302683777655307
s(S'2200122221'
p413
I2
tp414
F2.657926484375
s(S'0112222210'
p415
I2
tp416
F1.7307740234375
s(S'2220022222'
p417
I2
tp418
F2.956749859589578
s(S'1012212221'
p419
I2
tp420
I1
s(S'0012222220'
p421
I0
tp422
I-200
s(S'2000122220'
p423
I1
tp424
F1.3675
s(S'2222220012'
p425
I0
tp426
I-200
s(S'1100222221'
p427
I2
tp428
I1
s(S'1101222221'
p429
I2
tp430
I1
s(S'1110122222'
p431
I2
tp432
F1.690375
s(S'1012222222'
p433
I1
tp434
F-99.5
s(S'2102222211'
p435
I0
tp436
F-6.290731484374999
s(S'2222011111'
p437
I1
tp438
F2.75
s(S'1122222200'
p439
I2
tp440
I-200
s(S'2011211221'
p441
I1
tp442
I1
s(S'2012212221'
p443
I1
tp444
I1
s(S'2222001211'
p445
I0
tp446
F7.388270332312636
s(S'1012222221'
p447
I1
tp448
F-99.5
s(S'1002222221'
p449
I2
tp450
F-68.75923281249999
s(S'2220012211'
p451
I2
tp452
F1.9625
s(S'2222210122'
p453
I0
tp454
F9.158814756176792
s(S'2200012211'
p455
I1
tp456
I1
s(S'2201121111'
p457
I1
tp458
I1
s(S'1011222221'
p459
I2
tp460
I1
s(S'1011122221'
p461
I1
tp462
I1
s(S'2011122210'
p463
I2
tp464
I1
s(S'2222012221'
p465
I0
tp466
I5
s(S'1101222222'
p467
I1
tp468
F-15.854766796875
s(S'2222210222'
p469
I2
tp470
F4.364545969556166
s(S'0012212221'
p471
I1
tp472
I1
s(S'0122222222'
p473
I2
tp474
F1.35
s(S'2200111222'
p475
I1
tp476
F3.274125
s(S'1102222222'
p477
I0
tp478
I-200
s(S'1222220112'
p479
I0
tp480
I5
s(S'0002222220'
p481
I1
tp482
F1.525
s(S'2000222210'
p483
I1
tp484
I1
s(S'2222201122'
p485
I0
tp486
F8.456040369669495
s(S'1002222222'
p487
I0
tp488
F-2.7273833984374987
s(S'2011112221'
p489
I2
tp490
F2.386716999416344
s(S'1222222210'
p491
I1
tp492
F1.0
s(S'2001222220'
p493
I1
tp494
F1.35
s(S'2000222220'
p495
I0
tp496
F5.35
s(S'0011222222'
p497
I1
tp498
I-200
s(S'2222101121'
p499
I2
tp500
F4.136807971405807
s(S'0022222222'
p501
I1
tp502
F-99.5
s(S'2222002222'
p503
I0
tp504
F14.451816348155095
s(S'2011221222'
p505
I2
tp506
F1.9533125
s(S'2012222222'
p507
I2
tp508
F2.0441518452647838
s(S'1222222011'
p509
I2
tp510
I-200
s(S'2101111221'
p511
I2
tp512
F2.4722462890624994
s(S'2200022221'
p513
I1
tp514
F1.35
s(S'2200122122'
p515
I1
tp516
I1
s(S'2002222222'
p517
I0
tp518
F-6.255786695076006
s(S'1110222222'
p519
I0
tp520
I-200
s(S'0002222210'
p521
I2
tp522
F1.4725
s(S'0122222220'
p523
I1
tp524
F1.0
s(S'2101111222'
p525
I0
tp526
F6.79375
s(S'0122222200'
p527
I2
tp528
I1
s(S'2220122221'
p529
I2
tp530
I1
s(S'1022222222'
p531
I1
tp532
F1.30625
s(S'2201112221'
p533
I0
tp534
F6.15269
s(S'0022222221'
p535
I1
tp536
I-200
s(S'2222201121'
p537
I2
tp538
F4.555094387993697
s(S'2210022222'
p539
I0
tp540
I5
s(S'2222201111'
p541
I0
tp542
F-93.30065804989952
s(S'2201111111'
p543
I2
tp544
F2.1658351660356114
s(S'2220011210'
p545
I1
tp546
I1
s(S'2222210112'
p547
I2
tp548
F2.9307367971845095
s(S'2101221121'
p549
I2
tp550
I1
s(S'2011122221'
p551
I0
tp552
I5
s(S'0001222210'
p553
I2
tp554
I1
s(S'0222222222'
p555
I2
tp556
I-200
s(S'2222001121'
p557
I2
tp558
F4.258095252275048
s(S'2222011211'
p559
I2
tp560
F4.4115648428467225
s.