(dp0
(S'2200122210'
p1
I1
tp2
I1
s(S'2222220012'
p3
I0
tp4
I-200
s(S'2000222220'
p5
I0
tp6
I5
s(S'1222210122'
p7
I2
tp8
I1
s(S'2222220111'
p9
I1
tp10
F1.0
s(S'1222222011'
p11
I0
tp12
I-200
s(S'2222210122'
p13
I0
tp14
F6.90497948046875
s(S'2200012211'
p15
I1
tp16
I1
s(S'2222101222'
p17
I0
tp18
F10.273051321220702
s(S'2222012222'
p19
I2
tp20
F5.263568749999999
s(S'2222201111'
p21
I2
tp22
F1.82788125
s(S'2222221011'
p23
I2
tp24
I1
s(S'0002222220'
p25
I1
tp26
F1.0
s(S'2222220111'
p27
I0
tp28
F-97.5
s(S'2220012210'
p29
I0
tp30
I5
s(S'2222001111'
p31
I1
tp32
F1.0
s(S'2000122210'
p33
I2
tp34
I1
s(S'2222210111'
p35
I0
tp36
F5.35
s(S'2222210121'
p37
I1
tp38
I1
s(S'1222220112'
p39
I0
tp40
I5
s(S'2222002222'
p41
I0
tp42
F10.229463165527342
s(S'1222220122'
p43
I0
tp44
F5.0
s(S'2220011111'
p45
I1
tp46
I1
s(S'2222200111'
p47
I2
tp48
I-200
s(S'2222101222'
p49
I2
tp50
F-99.2375
s(S'0002222210'
p51
I2
tp52
I1
s(S'2222201121'
p53
I2
tp54
I1
s(S'2222210222'
p55
I2
tp56
I1
s(S'2222220112'
p57
I1
tp58
F1.9362499999999998
s(S'2222201222'
p59
I2
tp60
F5.318439507812499
s(S'2000122220'
p61
I1
tp62
I1
s(S'2222220111'
p63
I2
tp64
F-99.5
s(S'2222220011'
p65
I2
tp66
I-200
s(S'2222102222'
p67
I0
tp68
F9.3545939609375
s(S'2001222220'
p69
I1
tp70
I1
s(S'2222220122'
p71
I2
tp72
I1
s(S'2222200111'
p73
I1
tp74
F1.4684093749999998
s.