(dp0
(S'2201222211'
p1
I2
tp2
F5.179763903215843
s(S'2001212222'
p3
I2
tp4
F-1.7386864559709299
s(S'2221110220'
p5
I0
tp6
I5
s(S'2211000222'
p7
I1
tp8
F1.35
s(S'0222001111'
p9
I1
tp10
F-13.23456093503263
s(S'2220011211'
p11
I1
tp12
F3.3951000741158066
s(S'2222211101'
p13
I2
tp14
F-99.5
s(S'1222210011'
p15
I0
tp16
F7.054794689402993
s(S'2000012221'
p17
I2
tp18
I1
s(S'0222221012'
p19
I1
tp20
F2.441002577846084
s(S'1201222222'
p21
I2
tp22
F2.7309453384033677
s(S'0112110122'
p23
I1
tp24
I1
s(S'0222200012'
p25
I2
tp26
F1.0
s(S'1100122222'
p27
I0
tp28
I-200
s(S'0122200122'
p29
I2
tp30
F1.0
s(S'1002222220'
p31
I2
tp32
F-15.026129724816688
s(S'1222210122'
p33
I0
tp34
F7.928772902243725
s(S'1100222210'
p35
I2
tp36
F3.343443279710133
s(S'2200111121'
p37
I0
tp38
I5
s(S'2222201200'
p39
I0
tp40
I5
s(S'0222222201'
p41
I2
tp42
I-200
s(S'1222222110'
p43
I2
tp44
F-99.08987938831149
s(S'2210122222'
p45
I0
tp46
F9.746674526050176
s(S'0222222210'
p47
I0
tp48
F-104.07979882520628
s(S'1222210002'
p49
I0
tp50
F-1.8168659230743267
s(S'0222201111'
p51
I1
tp52
F-2.5310783729220763
s(S'2222221101'
p53
I2
tp54
F-159.8405186770778
s(S'2201222220'
p55
I0
tp56
F8.49968057524579
s(S'0122011122'
p57
I2
tp58
F2.805680597100781
s(S'2222220111'
p59
I0
tp60
I-200
s(S'2222210011'
p61
I0
tp62
I-200
s(S'2222220021'
p63
I2
tp64
F-3.69001039349835
s(S'0222001111'
p65
I0
tp66
F-97.5
s(S'1200122222'
p67
I1
tp68
F-18.34762528648629
s(S'2211012221'
p69
I0
tp70
I5
s(S'2222111021'
p71
I1
tp72
F4.683551679144813
s(S'1211110022'
p73
I1
tp74
F4.0654500378249585
s(S'2222222011'
p75
I1
tp76
F-150.49026765403252
s(S'1101222222'
p77
I2
tp78
F2.251755108047488
s(S'1111012222'
p79
I0
tp80
F11.434794828615804
s(S'0110222222'
p81
I2
tp82
F5.4917643771415605
s(S'1012222210'
p83
I2
tp84
F-11.940675420582904
s(S'2100122220'
p85
I1
tp86
F1.5443504603985465
s(S'2210011222'
p87
I0
tp88
F7.523639234309336
s(S'0222101222'
p89
I2
tp90
F7.114854348274293
s(S'2001222122'
p91
I1
tp92
I1
s(S'2222200111'
p93
I1
tp94
F4.984639841795053
s(S'0122222210'
p95
I2
tp96
I1
s(S'1110022222'
p97
I1
tp98
F-97.77877083265757
s(S'2222121102'
p99
I1
tp100
I1
s(S'0111012222'
p101
I2
tp102
F6.735065716395411
s(S'2222101200'
p103
I1
tp104
F5.522308361353908
s(S'2011211221'
p105
I0
tp106
I5
s(S'1222211110'
p107
I0
tp108
F-26.319856080321443
s(S'0222201222'
p109
I2
tp110
F3.5407414440457545
s(S'1210022222'
p111
I1
tp112
F-1.8076079392407491
s(S'2220000011'
p113
I0
tp114
F-95.89812339436891
s(S'2200222211'
p115
I0
tp116
F7.939363781462516
s(S'1222001112'
p117
I1
tp118
F5.86533057868124
s(S'2100222222'
p119
I0
tp120
I-200
s(S'2002222211'
p121
I2
tp122
I1
s(S'2220001121'
p123
I0
tp124
F9.37359545348329
s(S'0222220111'
p125
I1
tp126
I1
s(S'2222220010'
p127
I0
tp128
F-96.63056427495536
s(S'0220012222'
p129
I2
tp130
I1
s(S'2222000012'
p131
I2
tp132
F2.80386171875
s(S'1000222210'
p133
I0
tp134
I5
s(S'1221022222'
p135
I2
tp136
F8.93991009265752
s(S'0122101222'
p137
I1
tp138
F5.997584840290947
s(S'1102222220'
p139
I0
tp140
I-200
s(S'0221011111'
p141
I0
tp142
F5.0
s(S'2220011101'
p143
I1
tp144
F1.75416941700051
s(S'2200122211'
p145
I0
tp146
F8.407238463224465
s(S'2222200112'
p147
I2
tp148
F-16.241014857871455
s(S'1222222001'
p149
I0
tp150
I-200
s(S'2222211100'
p151
I2
tp152
F1.6791688563639218
s(S'0122210012'
p153
I1
tp154
F4.263847931428357
s(S'0122002221'
p155
I0
tp156
I5
s(S'1222220112'
p157
I1
tp158
F2.856021993275463
s(S'2221001221'
p159
I1
tp160
F4.8121111354412625
s(S'1222011211'
p161
I1
tp162
I1
s(S'1012222220'
p163
I1
tp164
F-200.0
s(S'0110111222'
p165
I1
tp166
I1
s(S'2210121122'
p167
I0
tp168
F8.152565371495063
s(S'0222220012'
p169
I2
tp170
F-35.875336115966796
s(S'1222221110'
p171
I0
tp172
F-28.292732326542634
s(S'0122100222'
p173
I0
tp174
F9.764077989518729
s(S'2220110111'
p175
I0
tp176
F8.588092422354022
s(S'2210222222'
p177
I2
tp178
F7.273641207803905
s(S'0222220112'
p179
I2
tp180
F1.0140848300955585
s(S'2222001011'
p181
I0
tp182
I-200
s(S'2222210022'
p183
I0
tp184
F-28.009671462777696
s(S'1222200011'
p185
I1
tp186
F2.0131082058796155
s(S'2221211012'
p187
I2
tp188
I1
s(S'1002222211'
p189
I0
tp190
F-33.03484699689262
s(S'0222102222'
p191
I2
tp192
F5.291604233443733
s(S'1220002222'
p193
I2
tp194
F6.489378316962276
s(S'2222201220'
p195
I1
tp196
F6.1940464466873735
s(S'1022222211'
p197
I0
tp198
I-200
s(S'1210121122'
p199
I2
tp200
I1
s(S'2222012221'
p201
I1
tp202
F4.70879890306535
s(S'1120012222'
p203
I1
tp204
F4.172613589885904
s(S'2222200122'
p205
I1
tp206
F4.742195979042959
s(S'1112110222'
p207
I1
tp208
F2.040589288882485
s(S'2222101201'
p209
I2
tp210
F4.659217489532138
s(S'2220000112'
p211
I1
tp212
F4.215164612681543
s(S'0222012222'
p213
I2
tp214
F3.328361612950159
s(S'2012222111'
p215
I0
tp216
F-7.506454405413189
s(S'1220012211'
p217
I2
tp218
F3.900029191041967
s(S'0122000222'
p219
I1
tp220
F8.430813187485217
s(S'0022100222'
p221
I1
tp222
I1
s(S'2100111111'
p223
I2
tp224
F2.6361804478070296
s(S'2222220121'
p225
I1
tp226
F3.81172327327957
s(S'2222211012'
p227
I2
tp228
F0.2023627761804725
s(S'2221001110'
p229
I1
tp230
F2.52765002661579
s(S'0222222101'
p231
I0
tp232
I-200
s(S'2101222211'
p233
I1
tp234
F-0.48775224966959785
s(S'2200112221'
p235
I0
tp236
F6.650158557425902
s(S'1222200012'
p237
I2
tp238
F1.0
s(S'2221102222'
p239
I2
tp240
I1
s(S'2100122222'
p241
I1
tp242
F-43.45144807910419
s(S'1220112122'
p243
I1
tp244
F4.101590025915442
s(S'2221001101'
p245
I1
tp246
I1
s(S'2220111111'
p247
I1
tp248
F4.088175667417182
s(S'2200122221'
p249
I0
tp250
F9.972863182154384
s(S'2222200120'
p251
I1
tp252
F4.4659349183133275
s(S'0222221002'
p253
I2
tp254
F-48.67613789255981
s(S'0121012222'
p255
I1
tp256
F5.6417019279302405
s(S'2221211022'
p257
I1
tp258
F3.190902851346854
s(S'2210112111'
p259
I1
tp260
F4.2406934999422
s(S'1222222221'
p261
I0
tp262
I-200
s(S'2222222221'
p263
I0
tp264
I-200
s(S'2210000222'
p265
I2
tp266
I1
s(S'2222001011'
p267
I2
tp268
I1
s(S'2220022221'
p269
I1
tp270
F6.002306450200784
s(S'1220000122'
p271
I2
tp272
F4.003200000833439
s(S'2222221021'
p273
I2
tp274
F-1.5426924657536993
s(S'2200222220'
p275
I2
tp276
F6.343969749082545
s(S'1200022222'
p277
I2
tp278
I1
s(S'1002222222'
p279
I1
tp280
F-133.53672456378
s(S'2001112222'
p281
I2
tp282
F2.646868001552481
s(S'0011222222'
p283
I0
tp284
I-200
s(S'1210122222'
p285
I0
tp286
F-5.0791937234835345
s(S'0222222011'
p287
I0
tp288
I-200
s(S'2221011111'
p289
I1
tp290
F4.5379456949112305
s(S'2110122222'
p291
I1
tp292
F-1.0464902172916983
s(S'0222221011'
p293
I2
tp294
I1
s(S'1220112222'
p295
I1
tp296
F6.236950453040027
s(S'2000111221'
p297
I2
tp298
I1
s(S'2210122220'
p299
I1
tp300
F5.487480266749059
s(S'0022222201'
p301
I1
tp302
I1
s(S'2220012210'
p303
I0
tp304
F8.101549889585735
s(S'2222210002'
p305
I1
tp306
F3.602298237413901
s(S'1222100222'
p307
I2
tp308
F4.794964853626351
s(S'2222111022'
p309
I0
tp310
F-30.295843148980428
s(S'2222212101'
p311
I1
tp312
I1
s(S'1200112122'
p313
I0
tp314
I5
s(S'2000222210'
p315
I2
tp316
F1.53375
s(S'1012222222'
p317
I1
tp318
F-42.42689026503374
s(S'2222220002'
p319
I1
tp320
F4.046970365544034
s(S'2220002221'
p321
I0
tp322
I5
s(S'1002222221'
p323
I2
tp324
F-44.978469870158065
s(S'0222222220'
p325
I2
tp326
F-35.75176933124429
s(S'2222011011'
p327
I0
tp328
I-200
s(S'0112222220'
p329
I0
tp330
I-200
s(S'1222211100'
p331
I2
tp332
F-13.076433295375729
s(S'1222221001'
p333
I0
tp334
I-200
s(S'2211002222'
p335
I1
tp336
F2.317689727826733
s(S'0122222110'
p337
I1
tp338
I1
s(S'2210011112'
p339
I1
tp340
F5.933584519642183
s(S'2222222012'
p341
I2
tp342
F-3.6647376890410994
s(S'1022222222'
p343
I1
tp344
F-120.80860132354314
s(S'2222221100'
p345
I2
tp346
F-51.9484677469633
s(S'2221001111'
p347
I2
tp348
F-4.970720064125853
s(S'0022222222'
p349
I2
tp350
F-118.97634109835258
s(S'1222212110'
p351
I0
tp352
F-10.041137533202635
s(S'1011022222'
p353
I0
tp354
F9.215966139097873
s(S'1100122211'
p355
I2
tp356
F1.9891223669984084
s(S'1210111122'
p357
I1
tp358
F2.2210552138254656
s(S'2222201222'
p359
I1
tp360
F5.005758403958982
s(S'2220122222'
p361
I0
tp362
F6.431407242118447
s(S'0111110122'
p363
I1
tp364
I1
s(S'2000222221'
p365
I2
tp366
F-0.19679269994188875
s(S'1222222201'
p367
I2
tp368
I1
s(S'0100122222'
p369
I2
tp370
F5.174395189197948
s(S'2102222221'
p371
I1
tp372
F-21.11279314131696
s(S'1111102222'
p373
I2
tp374
F5.205383679013519
s(S'1102222222'
p375
I1
tp376
F-157.01647027672033
s(S'2222002201'
p377
I2
tp378
F6.355515809904723
s(S'2221001211'
p379
I1
tp380
F4.102485905675646
s(S'1211002222'
p381
I2
tp382
F5.544832006829845
s(S'0222011211'
p383
I0
tp384
F8.615717244708637
s(S'2200222221'
p385
I1
tp386
F-1.143296964612417
s(S'2222210110'
p387
I1
tp388
F4.531644903075261
s(S'2211110222'
p389
I1
tp390
I1
s(S'2222011111'
p391
I2
tp392
F-123.42023842520919
s(S'2222001121'
p393
I0
tp394
F10.372176834817612
s(S'2101222222'
p395
I0
tp396
F-105.92326603853189
s(S'2222000112'
p397
I0
tp398
F5.984110820609336
s(S'1222011122'
p399
I2
tp400
F7.9392132466668155
s(S'2221011110'
p401
I2
tp402
F4.239889015130041
s(S'2210011111'
p403
I2
tp404
F3.373199007027263
s(S'2101121222'
p405
I0
tp406
F-16.663966196159322
s(S'1221000022'
p407
I1
tp408
I1
s(S'0012222211'
p409
I1
tp410
I1
s(S'2222211002'
p411
I1
tp412
F3.638536655778882
s(S'1101122222'
p413
I2
tp414
F3.913057392326656
s(S'2222201111'
p415
I1
tp416
F6.80777733453449
s(S'1222222102'
p417
I0
tp418
F5.4725
s(S'0222221100'
p419
I1
tp420
F-0.15675251176940241
s(S'0022222001'
p421
I0
tp422
F5.0
s(S'2000122221'
p423
I0
tp424
F6.274360635357186
s(S'2210222220'
p425
I1
tp426
F4.132804997453585
s(S'1222210011'
p427
I1
tp428
F-30.282430208876992
s(S'2220112222'
p429
I0
tp430
F8.201088730134614
s(S'2222211022'
p431
I2
tp432
F-12.530928576715112
s(S'0221001111'
p433
I2
tp434
F1.228884905022765
s(S'2222101210'
p435
I1
tp436
F4.692907341777715
s(S'2200000122'
p437
I0
tp438
I5
s(S'1001111221'
p439
I2
tp440
I1
s(S'1212222002'
p441
I1
tp442
I1
s(S'2100111222'
p443
I0
tp444
F-31.618704822675358
s(S'0012222220'
p445
I1
tp446
F1.35
s(S'2222011112'
p447
I0
tp448
F9.180190527225175
s(S'1002222220'
p449
I1
tp450
F-34.353750000000005
s(S'1121012222'
p451
I0
tp452
F13.965523433386045
s(S'2102222211'
p453
I2
tp454
F-17.50886386050293
s(S'2110122220'
p455
I1
tp456
I1
s(S'2210111101'
p457
I2
tp458
F1.35
s(S'2200111222'
p459
I2
tp460
F4.259666126897066
s(S'0222222201'
p461
I1
tp462
I-200
s(S'2210122222'
p463
I1
tp464
F-49.99550244411783
s(S'0011012222'
p465
I1
tp466
F2.9192843099264305
s(S'1100222222'
p467
I0
tp468
F-137.26401867078184
s(S'0222210012'
p469
I2
tp470
F1.9537499999999999
s(S'2201121111'
p471
I0
tp472
F7.401582753313912
s(S'0222100222'
p473
I2
tp474
F6.317252707420793
s(S'2222221011'
p475
I2
tp476
I-200
s(S'2222221101'
p477
I1
tp478
F-12.176253980790841
s(S'1220001222'
p479
I1
tp480
F6.146999843146659
s(S'1211022222'
p481
I2
tp482
F8.2258382313031
s(S'2200022222'
p483
I0
tp484
F9.309719568707663
s(S'2222001101'
p485
I2
tp486
F2.381658647550551
s(S'0011122222'
p487
I1
tp488
F1.525
s(S'2210222211'
p489
I1
tp490
F4.17695696453383
s(S'0222222221'
p491
I2
tp492
F-160.15972138102165
s(S'2100122100'
p493
I2
tp494
F1.65625
s(S'2001222221'
p495
I0
tp496
F-17.269870546808107
s(S'1122222220'
p497
I1
tp498
F-33.824999999999996
s(S'0110122221'
p499
I2
tp500
I1
s(S'1222001111'
p501
I1
tp502
F-13.662717830046406
s(S'2222220021'
p503
I1
tp504
F3.1938581886068835
s(S'1222211101'
p505
I2
tp506
F-0.8426676348866435
s(S'2222210110'
p507
I0
tp508
F-95.92914093750001
s(S'1110122222'
p509
I0
tp510
I-200
s(S'2222210210'
p511
I1
tp512
F4.733850937058701
s(S'2222201121'
p513
I2
tp514
F-2.2089492687542007
s(S'2102222220'
p515
I2
tp516
F-1.7858040551588559
s(S'1101222222'
p517
I1
tp518
F-105.93867960336402
s(S'2110222221'
p519
I1
tp520
F3.8310031016842547
s(S'2101222111'
p521
I1
tp522
F1.753209992028331
s(S'2222200111'
p523
I0
tp524
F-148.52039344789574
s(S'1222222200'
p525
I2
tp526
I1
s(S'2222222101'
p527
I0
tp528
F-130.04378936847968
s(S'0101222222'
p529
I0
tp530
I5
s(S'1110022222'
p531
I0
tp532
F-147.65291310544472
s(S'0122222222'
p533
I2
tp534
F-35.274726939554206
s(S'2220112112'
p535
I1
tp536
F4.5341233270134085
s(S'1222121101'
p537
I2
tp538
I1
s(S'0121002222'
p539
I1
tp540
F7.926452888233428
s(S'1201122222'
p541
I2
tp542
F5.175499189849995
s(S'1122221022'
p543
I0
tp544
F6.7790529341457875
s(S'0220012212'
p545
I1
tp546
F7.394874145770892
s(S'1100122222'
p547
I1
tp548
F-4.023383525361406
s(S'2012222222'
p549
I2
tp550
F-41.44028439395957
s(S'1222210112'
p551
I1
tp552
F4.495362659348804
s(S'2200222111'
p553
I2
tp554
F3.8832544369479756
s(S'2220011210'
p555
I1
tp556
I1
s(S'1222220022'
p557
I2
tp558
F0.9458713693323695
s(S'0210012221'
p559
I0
tp560
I5
s(S'2210012110'
p561
I2
tp562
I1
s(S'0002222200'
p563
I2
tp564
I1
s(S'1102222220'
p565
I1
tp566
F-99.5
s(S'2011222222'
p567
I0
tp568
F-103.03614252950919
s(S'2222001111'
p569
I0
tp570
F-95.00681742020228
s(S'2222222200'
p571
I0
tp572
I-200
s(S'0122001111'
p573
I0
tp574
I5
s(S'2220121111'
p575
I1
tp576
I1
s(S'1222222001'
p577
I1
tp578
F-118.91805003868174
s(S'2222001120'
p579
I1
tp580
I1
s(S'2200111122'
p581
I2
tp582
F6.177368590842356
s(S'2222012222'
p583
I1
tp584
F9.287050234425651
s(S'0221011211'
p585
I2
tp586
I1
s(S'1222222100'
p587
I0
tp588
I-200
s(S'1001222220'
p589
I0
tp590
F-23.593193108597823
s(S'0120022222'
p591
I1
tp592
F7.2469101976132135
s(S'2222211001'
p593
I2
tp594
F-42.177132405301116
s(S'2220112122'
p595
I2
tp596
F6.693723789984249
s(S'2200112112'
p597
I2
tp598
F2.75
s(S'1222221102'
p599
I2
tp600
F1.175
s(S'1222210022'
p601
I0
tp602
F6.678326259458165
s(S'2011122222'
p603
I2
tp604
F1.344722873260684
s(S'2220000111'
p605
I1
tp606
F2.4091584740393897
s(S'0122102222'
p607
I2
tp608
F6.455266972803369
s(S'1222221110'
p609
I1
tp610
F-33.14241030104981
s(S'2210222222'
p611
I1
tp612
F-36.67609604811869
s(S'1121102222'
p613
I0
tp614
F9.150855340935678
s(S'0112222222'
p615
I1
tp616
F-5.508062104084328
s(S'2200012221'
p617
I2
tp618
F4.859043031289384
s(S'1222220012'
p619
I0
tp620
F6.60505624103658
s(S'2222220112'
p621
I2
tp622
F-17.78553299953322
s(S'2210011110'
p623
I2
tp624
F2.6812165766337097
s(S'1222001122'
p625
I1
tp626
F5.098143289594459
s(S'2210011122'
p627
I1
tp628
F4.648471656591356
s(S'1101222122'
p629
I0
tp630
F-5.277693294770172
s(S'2222220122'
p631
I1
tp632
F4.387040234912385
s(S'2210012210'
p633
I2
tp634
F5.01655406072916
s(S'1222200011'
p635
I0
tp636
I-200
s(S'0220112222'
p637
I2
tp638
F1.0
s(S'2100122221'
p639
I1
tp640
I1
s(S'1222220122'
p641
I0
tp642
F5.0328180927165125
s(S'0221002222'
p643
I0
tp644
F12.210994127415548
s(S'0022222211'
p645
I0
tp646
F-200.0
s(S'0210122221'
p647
I1
tp648
F4.415341739339869
s(S'1222222011'
p649
I2
tp650
F-125.61352667229686
s(S'1222220002'
p651
I1
tp652
F2.2278842266728507
s(S'1012222110'
p653
I0
tp654
I5
s(S'2201111111'
p655
I0
tp656
F8.84470342211418
s(S'0220011112'
p657
I0
tp658
F5.35
s(S'0022221001'
p659
I2
tp660
I1
s(S'1222221011'
p661
I0
tp662
I-200
s(S'2012222111'
p663
I1
tp664
F-14.427721462810563
s(S'1001222122'
p665
I2
tp666
I1
s(S'2222012200'
p667
I0
tp668
F13.439496706791783
s(S'2100222221'
p669
I2
tp670
F6.010976632441519
s(S'1222222210'
p671
I0
tp672
F-137.34559308208907
s(S'2200121111'
p673
I0
tp674
F7.806608707859076
s(S'2210012221'
p675
I2
tp676
F5.560031203051783
s(S'2011112222'
p677
I0
tp678
F-25.26563413346519
s(S'2221011112'
p679
I1
tp680
F5.628855849133698
s(S'0222222101'
p681
I1
tp682
I-200
s(S'1102222221'
p683
I2
tp684
F-164.78123730404184
s(S'2222001221'
p685
I0
tp686
F10.78487097249964
s(S'1011122222'
p687
I0
tp688
F-101.25487602488194
s(S'2200122212'
p689
I2
tp690
F3.5674890253246203
s(S'2220001111'
p691
I2
tp692
F6.343360340201461
s(S'2012221221'
p693
I0
tp694
I5
s(S'0222222000'
p695
I0
tp696
I-200
s(S'0222220022'
p697
I0
tp698
F6.732782013167628
s(S'2222102222'
p699
I0
tp700
F10.506457102447062
s(S'2221110022'
p701
I2
tp702
F3.1063265705931977
s(S'0222001122'
p703
I0
tp704
F9.923432962709452
s(S'1222222221'
p705
I1
tp706
F-168.81812921112615
s(S'2210011210'
p707
I0
tp708
I5
s(S'1012222221'
p709
I1
tp710
F-91.27362443484981
s(S'0221001222'
p711
I1
tp712
F2.326742145614789
s(S'2222210222'
p713
I2
tp714
F2.7440320342372857
s(S'2222220001'
p715
I1
tp716
F2.2534451184251107
s(S'0012222222'
p717
I0
tp718
F-25.63277470634681
s(S'2222011110'
p719
I1
tp720
F4.860994831533554
s(S'1200022222'
p721
I1
tp722
F-0.683196074625289
s(S'1002222222'
p723
I0
tp724
F-148.75
s(S'2220011122'
p725
I2
tp726
F5.8704389253916585
s(S'1100222211'
p727
I0
tp728
F2.7653360420943907
s(S'0011222222'
p729
I1
tp730
F-99.13250000000001
s(S'1221100222'
p731
I1
tp732
F5.467824128228043
s(S'2110122222'
p733
I0
tp734
F-10.25167161585617
s(S'0222221011'
p735
I1
tp736
F-4.512350809446424
s(S'1121002222'
p737
I2
tp738
F6.045210797564915
s(S'2222210021'
p739
I2
tp740
F-0.044122380096825786
s(S'1100222220'
p741
I1
tp742
F3.989546875
s(S'2011212222'
p743
I0
tp744
F-27.20379136462263
s(S'1122100122'
p745
I1
tp746
F6.299447520765123
s(S'1221000222'
p747
I1
tp748
F6.008105566389979
s(S'2222210002'
p749
I0
tp750
F-3.942823907164307
s(S'2220111011'
p751
I1
tp752
I1
s(S'2201222222'
p753
I2
tp754
F5.960268725946694
s(S'2001122222'
p755
I0
tp756
F-36.17419544279538
s(S'1222200022'
p757
I0
tp758
F8.7299777122557
s(S'2222001122'
p759
I1
tp760
F6.287767401703572
s(S'1022201111'
p761
I1
tp762
I1
s(S'0222222211'
p763
I2
tp764
F-33.681904687499994
s(S'1012222222'
p765
I2
tp766
F-75.49681667501025
s(S'1001222222'
p767
I0
tp768
F-163.57217707471452
s(S'2200111112'
p769
I2
tp770
F3.9663604221503346
s(S'2102222222'
p771
I1
tp772
F-13.332885316913304
s(S'2222220002'
p773
I2
tp774
F-39.94990667157103
s(S'1101222220'
p775
I0
tp776
I5
s(S'1221111002'
p777
I0
tp778
I5
s(S'2210122112'
p779
I1
tp780
F6.010672079707972
s(S'2201121222'
p781
I2
tp782
F3.231548233626647
s(S'0112222220'
p783
I1
tp784
I1
s(S'2102222210'
p785
I2
tp786
I1
s(S'2222221002'
p787
I2
tp788
F-34.08855724778732
s(S'0220122212'
p789
I0
tp790
F6.75
s(S'0011102222'
p791
I0
tp792
I5
s(S'2222222012'
p793
I1
tp794
I1
s(S'1022222222'
p795
I0
tp796
F-121.7807617447145
s(S'0122011222'
p797
I1
tp798
F2.2260653671875
s(S'2222211001'
p799
I1
tp800
F0.9457409973818385
s(S'1012222211'
p801
I0
tp802
I-200
s(S'0111022222'
p803
I1
tp804
F-96.94297019121903
s(S'1221221002'
p805
I1
tp806
I1
s(S'2222201100'
p807
I2
tp808
F4.261635067042299
s(S'2222110022'
p809
I2
tp810
F5.059616229759808
s(S'2200122220'
p811
I2
tp812
F6.027415766065088
s(S'1120002222'
p813
I0
tp814
F8.41355638099229
s(S'1012222111'
p815
I1
tp816
F1.35
s(S'2220001112'
p817
I1
tp818
I1
s(S'0210022222'
p819
I2
tp820
F8.650480121789805
s(S'2222220012'
p821
I2
tp822
F-3.2198467773437502
s(S'2210112110'
p823
I1
tp824
I1
s(S'1222222220'
p825
I2
tp826
F-96.56484019527804
s(S'2102222221'
p827
I2
tp828
F-59.15058799990099
s(S'2222222222'
p829
I2
tp830
I1
s(S'2000222222'
p831
I2
tp832
F-32.77665884150719
s(S'1210122212'
p833
I2
tp834
F5.213633395685738
s(S'0110022222'
p835
I0
tp836
F-26.08547367003046
s(S'1222222221'
p837
I2
tp838
F-171.27472770636547
s(S'2210022221'
p839
I1
tp840
F1.5576068749999998
s(S'1211110222'
p841
I0
tp842
I5
s(S'2101222222'
p843
I1
tp844
F-11.577807407425688
s(S'1221111022'
p845
I2
tp846
F4.350123342389322
s(S'2222002210'
p847
I0
tp848
F6.643168726714699
s(S'2201111222'
p849
I2
tp850
F6.581291131544882
s(S'0221011112'
p851
I2
tp852
F4.86878229215279
s(S'2222201111'
p853
I2
tp854
F-99.5951329347691
s(S'1101112222'
p855
I1
tp856
F-46.872457028714706
s(S'2221002222'
p857
I0
tp858
F9.019574072852288
s(S'2222100222'
p859
I2
tp860
F4.9652900734372665
s(S'2222110220'
p861
I1
tp862
I1
s(S'2222211101'
p863
I0
tp864
F-97.5
s(S'2101112222'
p865
I2
tp866
F4.192208841418315
s(S'0122101111'
p867
I0
tp868
F5.0
s(S'2100111222'
p869
I1
tp870
I1
s(S'1111012222'
p871
I1
tp872
F-15.422582608093188
s(S'1002222220'
p873
I0
tp874
I-200
s(S'1222102222'
p875
I1
tp876
F7.213069404599835
s(S'1122101222'
p877
I1
tp878
F5.250257779318609
s(S'2101111111'
p879
I2
tp880
F4.040286803138228
s(S'2102222211'
p881
I1
tp882
F-0.7964474121623915
s(S'0122220022'
p883
I1
tp884
F1.961498646341413
s(S'0222222201'
p885
I0
tp886
I-200
s(S'2210122222'
p887
I2
tp888
F7.6255764813309215
s(S'0222222210'
p889
I2
tp890
F-15.44112305937293
s(S'2210111112'
p891
I0
tp892
F8.390159964600851
s(S'1100222222'
p893
I1
tp894
F-119.44968217580146
s(S'2221111022'
p895
I1
tp896
F3.962591067545338
s(S'2220112111'
p897
I1
tp898
F4.515994766490998
s(S'1222011112'
p899
I0
tp900
F8.11150003094495
s(S'2001222221'
p901
I1
tp902
F-53.855842156814695
s(S'1222210222'
p903
I0
tp904
F10.768550841072186
s(S'1022222210'
p905
I2
tp906
I-200
s(S'2222210011'
p907
I2
tp908
F-106.64618880154501
s(S'1222222012'
p909
I1
tp910
F-10.001351209412569
s(S'0221012212'
p911
I2
tp912
I1
s(S'0222001111'
p913
I2
tp914
F1.0279316703847863
s(S'1110122222'
p915
I1
tp916
F-0.4100924879902479
s(S'2102222220'
p917
I1
tp918
F-27.169665784015514
s(S'1101222222'
p919
I0
tp920
F-189.60472000299828
s(S'1101222212'
p921
I0
tp922
I5
s(S'1111012222'
p923
I2
tp924
F4.523872787784269
s(S'1100122222'
p925
I2
tp926
F2.0848586565464386
s(S'2222210121'
p927
I2
tp928
F3.2449419824474286
s(S'2220000122'
p929
I0
tp930
F6.9720532201897
s(S'2101222221'
p931
I0
tp932
F-38.61875
s(S'1222011222'
p933
I2
tp934
F7.473378338271612
s(S'2101222111'
p935
I0
tp936
F-0.28279732786855316
s(S'0221012222'
p937
I0
tp938
F14.211279715677048
s(S'2222200010'
p939
I0
tp940
I-200
s(S'0022200222'
p941
I2
tp942
F2.75
s(S'1222111002'
p943
I2
tp944
F4.9828083741079965
s(S'2210112222'
p945
I0
tp946
I5
s(S'1101221222'
p947
I0
tp948
I5
s(S'2101222212'
p949
I1
tp950
F-3.602087985919656
s(S'1220111122'
p951
I0
tp952
F8.72730361434673
s(S'2012222222'
p953
I1
tp954
F-47.35554889875658
s(S'0111222221'
p955
I1
tp956
F1.065625
s(S'2200122122'
p957
I2
tp958
F4.764258914350794
s(S'2222012210'
p959
I2
tp960
F2.537124235379519
s(S'0022220112'
p961
I1
tp962
I1
s(S'2210112112'
p963
I1
tp964
I1
s(S'1102222220'
p965
I2
tp966
I1
s(S'2011222222'
p967
I1
tp968
F-36.6029794809327
s(S'2222001111'
p969
I1
tp970
F2.4342180299903835
s(S'1111022222'
p971
I0
tp972
F-94.0068152178943
s(S'1210012211'
p973
I0
tp974
I5
s(S'1221222102'
p975
I1
tp976
I1
s(S'2222222200'
p977
I1
tp978
F-75.2209746989816
s(S'1012222200'
p979
I0
tp980
F5.0
s(S'1222222001'
p981
I2
tp982
F-130.48679687499998
s(S'2222000110'
p983
I1
tp984
F2.080185208816613
s(S'1122210122'
p985
I1
tp986
F4.648515555550988
s(S'1222222100'
p987
I1
tp988
F-74.82475132983569
s(S'1001222220'
p989
I1
tp990
F-6.172594991452918
s(S'1111002222'
p991
I2
tp992
F6.130203129968814
s(S'0222220012'
p993
I0
tp994
F-0.953703680428835
s(S'2220000111'
p995
I0
tp996
F7.89403406266206
s(S'0011101222'
p997
I0
tp998
F7.625453827559061
s(S'1222221011'
p999
I1
tp1000
F-14.473101571339978
s(S'1222222210'
p1001
I1
tp1002
F-91.25702506295357
s(S'1222220012'
p1003
I1
tp1004
F-2.4795822707715542
s(S'1122220022'
p1005
I0
tp1006
F7.191278493151838
s(S'2221002101'
p1007
I2
tp1008
I1
s(S'2210122111'
p1009
I2
tp1010
F5.857433257500724
s(S'1222111102'
p1011
I0
tp1012
F6.099472623097942
s(S'1222000012'
p1013
I1
tp1014
F3.8385629145789095
s(S'2211211022'
p1015
I0
tp1016
F5.0875
s(S'1222100122'
p1017
I0
tp1018
F8.016779081117452
s(S'0122221001'
p1019
I1
tp1020
F-0.5512933106453395
s(S'1022222211'
p1021
I2
tp1022
F-169.23258317328435
s(S'2101122222'
p1023
I2
tp1024
F3.204817122792292
s(S'2220010111'
p1025
I2
tp1026
I-200
s(S'0022222211'
p1027
I1
tp1028
I-200
s(S'2222222100'
p1029
I2
tp1030
I1
s(S'0122220001'
p1031
I1
tp1032
F0.7063393203822336
s(S'1222220002'
p1033
I0
tp1034
F-10.355354300576169
s(S'1222222222'
p1035
I1
tp1036
F-111.55369894057449
s(S'2222200011'
p1037
I2
tp1038
F-99.5
s(S'0222220122'
p1039
I1
tp1040
F5.160568703940972
s(S'2012222111'
p1041
I2
tp1042
F-1.6025263770273477
s(S'2212222012'
p1043
I2
tp1044
I1
s(S'2200222210'
p1045
I1
tp1046
F4.4411714610219235
s(S'2210122211'
p1047
I1
tp1048
F4.063228244842255
s(S'2002222222'
p1049
I2
tp1050
F-40.88957949231338
s(S'2000222220'
p1051
I0
tp1052
I5
s(S'2210112211'
p1053
I0
tp1054
F7.3549510188369345
s(S'1222001012'
p1055
I1
tp1056
F5.333801436623732
s(S'1111110222'
p1057
I1
tp1058
F6.630986745881257
s(S'2011112222'
p1059
I1
tp1060
F-24.617976442060467
s(S'2220122122'
p1061
I2
tp1062
F7.855949059972763
s(S'0222222110'
p1063
I0
tp1064
F-200.0
s(S'1102222221'
p1065
I1
tp1066
F-54.29491069885175
s(S'0100222222'
p1067
I1
tp1068
F-20.54468954682239
s(S'1011122222'
p1069
I1
tp1070
F-27.398086843817946
s(S'2222210012'
p1071
I2
tp1072
I1
s(S'1122110222'
p1073
I0
tp1074
I5
s(S'1210112122'
p1075
I1
tp1076
I1
s(S'1100022222'
p1077
I2
tp1078
F5.463514374103875
s(S'0100122222'
p1079
I1
tp1080
F-99.96743745902381
s(S'0222221002'
p1081
I0
tp1082
F-10.01620681624396
s(S'0222222000'
p1083
I1
tp1084
F-149.75
s(S'2220012111'
p1085
I0
tp1086
F11.38240530305403
s(S'2222000111'
p1087
I2
tp1088
F-99.03159062499999
s(S'2222101222'
p1089
I0
tp1090
F-94.19351864900155
s(S'1122210222'
p1091
I1
tp1092
F2.4641103108566087
s(S'2222211011'
p1093
I0
tp1094
F-49.42087244130933
s(S'2012222211'
p1095
I2
tp1096
F-0.7657585187588258
s(S'1012222221'
p1097
I0
tp1098
F-174.375
s(S'1222222101'
p1099
I2
tp1100
F1.0
s(S'1211111022'
p1101
I0
tp1102
I5
s(S'2222220001'
p1103
I0
tp1104
I-200
s(S'2222221021'
p1105
I0
tp1106
F-2.5269589205434944
s(S'0122222201'
p1107
I2
tp1108
F-200.0
s(S'1100222211'
p1109
I1
tp1110
F-1.9793561908761532
s(S'2220012221'
p1111
I1
tp1112
F5.376241348280372
s(S'0011222222'
p1113
I2
tp1114
I1
s(S'1220122212'
p1115
I0
tp1116
F12.033530895455621
s(S'0222221011'
p1117
I0
tp1118
I-200
s(S'2220122212'
p1119
I0
tp1120
F8.746743463100998
s(S'2222200222'
p1121
I0
tp1122
F7.7597983527616545
s(S'1112222220'
p1123
I1
tp1124
I-200
s(S'1111100222'
p1125
I1
tp1126
F-99.325
s(S'1012201112'
p1127
I0
tp1128
I5
s(S'2222222002'
p1129
I0
tp1130
F-4.248915438302664
s(S'0220122222'
p1131
I2
tp1132
F8.551270699750567
s(S'2001112221'
p1133
I0
tp1134
I5
s(S'2001122222'
p1135
I1
tp1136
F-28.63528634593115
s(S'2222110021'
p1137
I0
tp1138
F6.831953970359654
s(S'2222111022'
p1139
I2
tp1140
F-24.756908168936555
s(S'1122102222'
p1141
I0
tp1142
F8.230921377910816
s(S'2222002221'
p1143
I0
tp1144
F7.6327749365847275
s(S'1210112212'
p1145
I0
tp1146
I5
s(S'2222012220'
p1147
I0
tp1148
F12.791750049557004
s(S'0022222210'
p1149
I2
tp1150
F-49.25
s(S'1001222222'
p1151
I1
tp1152
I-200
s(S'0122012221'
p1153
I2
tp1154
I1
s(S'0122110122'
p1155
I0
tp1156
F7.4469874013471955
s(S'1012222111'
p1157
I2
tp1158
F-1.4600003376617199
s(S'2222221010'
p1159
I0
tp1160
I5
s(S'2012212222'
p1161
I2
tp1162
I1
s(S'1210122211'
p1163
I0
tp1164
F6.427957410407025
s(S'2201111121'
p1165
I1
tp1166
F1.0
s(S'1122222012'
p1167
I1
tp1168
F0.15900789853485497
s(S'2001222222'
p1169
I2
tp1170
F-12.695099193372126
s(S'0112222220'
p1171
I2
tp1172
F-5.267805223110077
s(S'2210022222'
p1173
I1
tp1174
F-35.172448031331214
s(S'2102222222'
p1175
I0
tp1176
F-52.47120550945522
s(S'2201222122'
p1177
I0
tp1178
F8.115403753754105
s(S'1222211100'
p1179
I0
tp1180
F-18.225965631450862
s(S'2222210111'
p1181
I2
tp1182
F-49.57555352430125
s(S'2101222221'
p1183
I1
tp1184
F-42.9445926450692
s(S'2222220120'
p1185
I0
tp1186
I5
s(S'2222222012'
p1187
I0
tp1188
F-2.836519160051758
s(S'2000222222'
p1189
I1
tp1190
I1
s(S'2201111221'
p1191
I0
tp1192
I5
s(S'2221001111'
p1193
I0
tp1194
F8.89425123951224
s(S'0222222100'
p1195
I1
tp1196
F-120.22
s(S'2101222210'
p1197
I0
tp1198
F-35.39462293283876
s(S'0022222222'
p1199
I0
tp1200
F-180.41909571501427
s(S'2222211001'
p1201
I0
tp1202
I-200
s(S'1012222211'
p1203
I1
tp1204
F-40.0221875
s(S'0111022222'
p1205
I0
tp1206
F-0.6032294703989542
s(S'2220122111'
p1207
I2
tp1208
F4.57130199740671
s(S'1211100222'
p1209
I2
tp1210
I1
s(S'0210022222'
p1211
I1
tp1212
F-31.135358554846967
s(S'2100122112'
p1213
I0
tp1214
I5
s(S'0100122222'
p1215
I0
tp1216
F-10.51690089973821
s(S'0111101222'
p1217
I2
tp1218
F3.3806744013575427
s(S'0110022222'
p1219
I1
tp1220
I-200
s(S'2220022222'
p1221
I2
tp1222
F8.084060533975855
s(S'1200222222'
p1223
I2
tp1224
F5.542053216021511
s(S'1121101222'
p1225
I2
tp1226
I1
s(S'2222011111'
p1227
I1
tp1228
F-97.60945486044137
s(S'2000222222'
p1229
I0
tp1230
I5
s(S'0022001122'
p1231
I2
tp1232
I1
s(S'2222200022'
p1233
I1
tp1234
F3.797086742672701
s(S'1200121222'
p1235
I0
tp1236
I5
s(S'2101222222'
p1237
I2
tp1238
F3.9793950622380057
s(S'2201122111'
p1239
I2
tp1240
F4.476426960442415
s(S'2210122221'
p1241
I0
tp1242
F10.060382403796648
s(S'1100222221'
p1243
I1
tp1244
F-5.547390414404345
s(S'2220012211'
p1245
I1
tp1246
F6.960170407301472
s(S'2011222221'
p1247
I2
tp1248
I1
s(S'2222101121'
p1249
I2
tp1250
F3.416738944095751
s(S'1101112222'
p1251
I0
tp1252
F-30.42407349968831
s(S'0222001222'
p1253
I1
tp1254
I1
s(S'2221210021'
p1255
I0
tp1256
I5
s(S'2001212222'
p1257
I1
tp1258
F-2.7609755448648383
s(S'0122222200'
p1259
I2
tp1260
I-200
s(S'0222222002'
p1261
I1
tp1262
I1
s(S'2222211101'
p1263
I1
tp1264
F-0.37774505237620803
s(S'2222211022'
p1265
I0
tp1266
F7.5488274920908065
s(S'1222222011'
p1267
I1
tp1268
F-161.63863099390184
s(S'0121022222'
p1269
I1
tp1270
F7.099233271241253
s(S'0222001112'
p1271
I0
tp1272
F12.205964127532038
s(S'0002222210'
p1273
I1
tp1274
F1.0
s(S'2212210022'
p1275
I0
tp1276
I5
s(S'1110112222'
p1277
I2
tp1278
F3.4654773262750025
s(S'1222220002'
p1279
I2
tp1280
F3.8016112923924013
s(S'2100001221'
p1281
I2
tp1282
I1
s(S'2200122110'
p1283
I1
tp1284
F1.35
s(S'1011222222'
p1285
I2
tp1286
F-124.00139529850914
s(S'1222221012'
p1287
I2
tp1288
F-53.789612814016266
s(S'0112222221'
p1289
I1
tp1290
F-33.681904687499994
s(S'1222220011'
p1291
I2
tp1292
F-105.86973936062931
s(S'2102222211'
p1293
I0
tp1294
F-14.361877068904167
s(S'2222222102'
p1295
I1
tp1296
F-0.44201898130927963
s(S'1100112222'
p1297
I0
tp1298
F6.478899300430735
s(S'2201222112'
p1299
I2
tp1300
I1
s(S'1100222222'
p1301
I2
tp1302
F0.778687195437703
s(S'2221111022'
p1303
I2
tp1304
F-1.2595846877453214
s(S'0210222222'
p1305
I2
tp1306
I1
s(S'2222222110'
p1307
I2
tp1308
F-99.5
s(S'1022222221'
p1309
I2
tp1310
F-149.75
s(S'2112110122'
p1311
I0
tp1312
I5
s(S'0122100122'
p1313
I2
tp1314
F3.904303377292654
s(S'1200112222'
p1315
I0
tp1316
F8.486856125274013
s(S'2200222212'
p1317
I0
tp1318
F9.0612791901104
s(S'0222221110'
p1319
I0
tp1320
F-11.407000651762095
s(S'1222210111'
p1321
I0
tp1322
F5.715650381062455
s(S'2222210110'
p1323
I2
tp1324
F1.2355980883125854
s(S'2002222200'
p1325
I1
tp1326
I1
s(S'2222201121'
p1327
I0
tp1328
F11.860469576662585
s(S'2200011110'
p1329
I2
tp1330
I1
s(S'2102222220'
p1331
I0
tp1332
F-19.347016878203988
s(S'2222221012'
p1333
I0
tp1334
F-97.5
s(S'2200011222'
p1335
I2
tp1336
F5.212960770145291
s(S'0222222222'
p1337
I0
tp1338
F-148.75
s(S'2222100111'
p1339
I1
tp1340
F-14.021834423548697
s(S'2222012201'
p1341
I2
tp1342
F6.226435248013297
s(S'1210012222'
p1343
I2
tp1344
F3.2456626029325646
s(S'2222200111'
p1345
I2
tp1346
F-161.8400556466037
s(S'1222211102'
p1347
I0
tp1348
F3.9176138822799422
s(S'2222222101'
p1349
I2
tp1350
I-200
s(S'2221011221'
p1351
I1
tp1352
F3.7664792601697847
s(S'2000112222'
p1353
I0
tp1354
I5
s(S'2222101220'
p1355
I1
tp1356
F8.250141336231604
s(S'2222101110'
p1357
I0
tp1358
F6.195349349302823
s(S'2220111222'
p1359
I2
tp1360
F6.473373971343845
s(S'1222100022'
p1361
I1
tp1362
F3.827656148794871
s(S'2222221021'
p1363
I1
tp1364
F-16.26933439392006
s(S'1111110022'
p1365
I2
tp1366
F1.175
s(S'2222201110'
p1367
I0
tp1368
F8.148080568942113
s(S'2012222222'
p1369
I0
tp1370
F-37.051494373723784
s(S'1210222221'
p1371
I1
tp1372
F4.1877129761736285
s(S'2221221012'
p1373
I0
tp1374
F6.828131032808325
s(S'0002222220'
p1375
I0
tp1376
I5
s(S'0222011112'
p1377
I1
tp1378
F5.405647438466961
s(S'2200102222'
p1379
I2
tp1380
F5.426704783737595
s(S'0122222221'
p1381
I0
tp1382
F-200.0
s(S'0111100122'
p1383
I2
tp1384
F3.0852168790780747
s(S'2221100022'
p1385
I0
tp1386
I5
s(S'1110222222'
p1387
I1
tp1388
F-188.83092052866525
s(S'2220122210'
p1389
I1
tp1390
F2.1563026057191674
s(S'0221001221'
p1391
I1
tp1392
I1
s(S'2222100111'
p1393
I2
tp1394
F2.7609210370710313
s(S'1100122221'
p1395
I0
tp1396
F-0.616922547636543
s(S'1111022222'
p1397
I1
tp1398
F-98.66565254592679
s(S'1222210121'
p1399
I0
tp1400
I5
s(S'2221022221'
p1401
I0
tp1402
F9.276769724735521
s(S'1100222212'
p1403
I2
tp1404
F1.0
s(S'1100002222'
p1405
I1
tp1406
I-200
s(S'0021022222'
p1407
I0
tp1408
F6.308442415414645
s(S'0112100122'
p1409
I2
tp1410
I1
s(S'1001121222'
p1411
I2
tp1412
I1
s(S'1220000222'
p1413
I0
tp1414
I5
s(S'0222200222'
p1415
I1
tp1416
F4.018456153422607
s(S'0222201121'
p1417
I0
tp1418
F7.627883936095749
s(S'0022222200'
p1419
I2
tp1420
I-200
s(S'1222222100'
p1421
I2
tp1422
I-200
s(S'1210222222'
p1423
I2
tp1424
F7.567559399184138
s(S'1222011111'
p1425
I2
tp1426
I1
s(S'1221011122'
p1427
I0
tp1428
F10.498866463413943
s(S'1101222211'
p1429
I1
tp1430
F-0.07773776036709656
s(S'2001222220'
p1431
I1
tp1432
F-33.3719744502832
s(S'2200012210'
p1433
I1
tp1434
F1.941081203125
s(S'1222222210'
p1435
I2
tp1436
F-78.62724792453963
s(S'0122012222'
p1437
I0
tp1438
F10.4606585855935
s(S'2200012222'
p1439
I0
tp1440
F8.231673494665184
s(S'2222220022'
p1441
I2
tp1442
F-0.5838005794229759
s(S'1211012222'
p1443
I2
tp1444
F5.695135206955278
s(S'0222001110'
p1445
I0
tp1446
I5
s(S'1222012221'
p1447
I1
tp1448
F5.6106957166097375
s(S'1222001101'
p1449
I0
tp1450
F6.1931151295847044
s(S'1222122101'
p1451
I0
tp1452
I5
s(S'2221000022'
p1453
I1
tp1454
F3.4166879740425355
s(S'1101222221'
p1455
I2
tp1456
F-1.0672602446442303
s(S'2212211022'
p1457
I2
tp1458
F1.4375
s(S'2110222222'
p1459
I2
tp1460
F5.0194979541245495
s(S'2222011211'
p1461
I2
tp1462
F4.606921458400217
s(S'2220111122'
p1463
I0
tp1464
F8.84140406168249
s(S'1222000122'
p1465
I0
tp1466
F9.902487521173576
s(S'0122221001'
p1467
I0
tp1468
F-21.84848105692852
s(S'2211111022'
p1469
I1
tp1470
F1.875
s(S'0022222211'
p1471
I2
tp1472
F-165.32536163452258
s(S'2111022222'
p1473
I0
tp1474
I5
s(S'0222200112'
p1475
I2
tp1476
I1
s(S'2200011111'
p1477
I2
tp1478
I1
s(S'2222102201'
p1479
I0
tp1480
F7.860933518273519
s(S'1222222222'
p1481
I0
tp1482
I-200
s(S'0011022222'
p1483
I1
tp1484
F4.269384854612859
s(S'2100222221'
p1485
I0
tp1486
F-23.673633605867764
s(S'1222222220'
p1487
I1
tp1488
F-148.35512983815997
s(S'0011222221'
p1489
I0
tp1490
F5.0
s(S'2011112222'
p1491
I2
tp1492
F2.6679074638182207
s(S'0222222110'
p1493
I1
tp1494
I-200
s(S'1102222221'
p1495
I0
tp1496
F-200.0
s(S'1222201222'
p1497
I0
tp1498
F8.785292876203336
s(S'2222002200'
p1499
I1
tp1500
F7.21718684042177
s(S'0111002222'
p1501
I2
tp1502
F3.521610417528449
s(S'1222101222'
p1503
I2
tp1504
F4.238697526951323
s(S'1100022222'
p1505
I0
tp1506
F-99.64773220703124
s(S'0221102222'
p1507
I0
tp1508
F9.667859653252478
s(S'2000122210'
p1509
I1
tp1510
I1
s(S'2222222201'
p1511
I1
tp1512
F-200.0
s(S'1211000222'
p1513
I0
tp1514
F6.7256121154025115
s(S'2210012222'
p1515
I0
tp1516
F6.750463123338789
s(S'0122200222'
p1517
I0
tp1518
F9.577990402429133
s(S'2222000111'
p1519
I1
tp1520
F3.9314792222179777
s(S'2222101222'
p1521
I1
tp1522
F7.110202075498874
s(S'2222211011'
p1523
I1
tp1524
F2.0702918431002724
s(S'0022222101'
p1525
I0
tp1526
F-65.0
s(S'1222222101'
p1527
I1
tp1528
F1.35
s(S'2222100110'
p1529
I2
tp1530
F7.720972813261798
s(S'1001222221'
p1531
I1
tp1532
F-28.97683450134253
s(S'2211110122'
p1533
I1
tp1534
I1
s(S'1221011111'
p1535
I2
tp1536
F4.678791570187897
s(S'2222221102'
p1537
I1
tp1538
F-38.437977772139455
s(S'2222201210'
p1539
I1
tp1540
F5.274899482553364
s(S'0111100222'
p1541
I1
tp1542
F5.291973164510141
s(S'0222220011'
p1543
I2
tp1544
F-47.5
s(S'0012222222'
p1545
I2
tp1546
F-30.013586885569822
s(S'2212210122'
p1547
I0
tp1548
F7.625
s(S'1002222222'
p1549
I2
tp1550
F-108.67682240246094
s(S'2201111122'
p1551
I1
tp1552
F1.8844128068420118
s(S'1122002222'
p1553
I0
tp1554
I5
s(S'2221000222'
p1555
I0
tp1556
F8.238324813276051
s(S'2222000222'
p1557
I1
tp1558
F4.855362058116066
s(S'2210222221'
p1559
I2
tp1560
F6.203196904385829
s(S'2222211102'
p1561
I2
tp1562
F-8.147046090406736
s(S'1001112222'
p1563
I0
tp1564
F-16.893535893211308
s(S'1112221012'
p1565
I1
tp1566
F3.0399916058416174
s(S'2222222001'
p1567
I0
tp1568
F-200.0
s(S'2110122222'
p1569
I2
tp1570
F5.918348230182616
s(S'2221011210'
p1571
I2
tp1572
I1
s(S'2222222210'
p1573
I2
tp1574
F-187.3864144330139
s(S'2101221111'
p1575
I0
tp1576
I5
s(S'1012101112'
p1577
I2
tp1578
I1
s(S'0022222201'
p1579
I2
tp1580
I-200
s(S'1111100222'
p1581
I0
tp1582
F7.203022003559701
s(S'2222210221'
p1583
I0
tp1584
F7.439106801621325
s(S'2222210002'
p1585
I2
tp1586
F-0.3006834018340958
s(S'2221012210'
p1587
I0
tp1588
F12.79141227609141
s(S'2101122111'
p1589
I2
tp1590
I1
s(S'2222222002'
p1591
I1
tp1592
I1
s(S'2222011210'
p1593
I1
tp1594
F7.246518282125102
s(S'0121102222'
p1595
I0
tp1596
F8.227944395585348
s(S'2001122222'
p1597
I2
tp1598
F3.95457963488325
s(S'1120112222'
p1599
I0
tp1600
F8.07474826249163
s(S'0022222210'
p1601
I1
tp1602
F-69.0
s(S'2201122222'
p1603
I2
tp1604
F5.818058659595531
s(S'0210122222'
p1605
I2
tp1606
F9.037015988763994
s(S'0222222211'
p1607
I0
tp1608
F-44.74918231378253
s(S'1001222222'
p1609
I2
tp1610
F-91.06609770828872
s(S'2222200220'
p1611
I1
tp1612
F4.360763529545626
s(S'2220011221'
p1613
I1
tp1614
I1
s(S'1101222220'
p1615
I2
tp1616
F-1.5109612738182716
s(S'0100112222'
p1617
I2
tp1618
I1
s(S'0211012222'
p1619
I1
tp1620
F4.587514827999247
s(S'2210222210'
p1621
I2
tp1622
F3.8216753181668035
s(S'1210011122'
p1623
I0
tp1624
F6.139412286011504
s(S'0122001222'
p1625
I0
tp1626
F11.642940482968614
s(S'1000222222'
p1627
I2
tp1628
F-40.1082216786422
s(S'2001222222'
p1629
I1
tp1630
F-26.3421790292263
s(S'0100022222'
p1631
I0
tp1632
I-200
s(S'2210022222'
p1633
I0
tp1634
F-24.767160771976755
s(S'2222111012'
p1635
I1
tp1636
F3.588088373634971
s(S'1001222211'
p1637
I2
tp1638
F0.4710099835902757
s(S'1222211100'
p1639
I1
tp1640
F-0.8509721377070627
s(S'1022222211'
p1641
I1
tp1642
F-156.05749443490635
s(S'1110122221'
p1643
I1
tp1644
F2.096342038129117
s(S'2222011200'
p1645
I0
tp1646
I5
s(S'2211012222'
p1647
I0
tp1648
F12.765323135812094
s(S'0110011222'
p1649
I1
tp1650
I1
s(S'2200111111'
p1651
I0
tp1652
F8.317578363527081
s(S'0222222111'
p1653
I2
tp1654
I-200
s(S'0222100111'
p1655
I0
tp1656
I5
s(S'0222222100'
p1657
I0
tp1658
I-200
s(S'0022222222'
p1659
I1
tp1660
F-177.79649001170313
s(S'2222210120'
p1661
I0
tp1662
F-2.0572076682399265
s(S'2101111221'
p1663
I2
tp1664
F1.35
s(S'1222111022'
p1665
I2
tp1666
F3.8865623358910417
s(S'1222000112'
p1667
I1
tp1668
F3.894657002995327
s(S'0210022222'
p1669
I0
tp1670
F10.103147828603905
s(S'2222221001'
p1671
I0
tp1672
F-179.03969177491547
s(S'0222221001'
p1673
I2
tp1674
F-12.126740528464259
s(S'0221012221'
p1675
I2
tp1676
F2.0282651220218835
s(S'1222222201'
p1677
I1
tp1678
I-200
s(S'0222222001'
p1679
I1
tp1680
F-25.796540899474696
s(S'2201112222'
p1681
I2
tp1682
F5.337500474582614
s(S'1222222220'
p1683
I0
tp1684
I-200
s(S'2222222222'
p1685
I0
tp1686
I-200
s(S'2220011222'
p1687
I2
tp1688
F6.440398157389517
s(S'1001122221'
p1689
I1
tp1690
I1
s(S'1222221022'
p1691
I2
tp1692
F1.35
s(S'2222121002'
p1693
I2
tp1694
I1
s(S'2222011111'
p1695
I0
tp1696
F8.253861939801553
s(S'0222011111'
p1697
I2
tp1698
F-98.33413533666746
s(S'2220012220'
p1699
I1
tp1700
I1
s(S'2222220011'
p1701
I0
tp1702
F-200.0
s(S'0210012211'
p1703
I0
tp1704
I5
s(S'0222221012'
p1705
I2
tp1706
F-43.204970963784454
s(S'1220012222'
p1707
I2
tp1708
F7.382733752183766
s(S'1222001222'
p1709
I2
tp1710
F8.341873445452652
s(S'1100222221'
p1711
I0
tp1712
F-38.625523952300156
s(S'2222001112'
p1713
I1
tp1714
F5.53353672303296
s(S'0012222222'
p1715
I1
tp1716
F-103.00298388671875
s(S'1222000111'
p1717
I2
tp1718
F1.0
s(S'2101222121'
p1719
I0
tp1720
F5.842948571996567
s(S'0222222002'
p1721
I2
tp1722
F-51.412499999999994
s(S'2222211022'
p1723
I1
tp1724
F3.304098074495405
s(S'2222002222'
p1725
I2
tp1726
F4.280981278045657
s(S'1222222011'
p1727
I0
tp1728
I-200
s(S'0222221111'
p1729
I1
tp1730
I1
s(S'2221011211'
p1731
I2
tp1732
F4.8824852671553645
s(S'1222222110'
p1733
I1
tp1734
I1
s(S'2101112222'
p1735
I0
tp1736
F4.2755588926046
s(S'0122210022'
p1737
I0
tp1738
I5
s(S'0222201111'
p1739
I2
tp1740
I-200
s(S'0022201121'
p1741
I0
tp1742
I5
s(S'2222110111'
p1743
I1
tp1744
I1
s(S'2100112100'
p1745
I0
tp1746
I5
s(S'1222221012'
p1747
I1
tp1748
F2.284555156422231
s(S'1222220011'
p1749
I1
tp1750
F-98.13928732830271
s(S'1222221002'
p1751
I0
tp1752
I-200
s(S'2222222102'
p1753
I0
tp1754
F-30.185501643174742
s(S'1100112222'
p1755
I1
tp1756
F-2.711776461480654
s(S'1200122222'
p1757
I2
tp1758
F6.718381820764396
s(S'0222200011'
p1759
I2
tp1760
I-200
s(S'2210012211'
p1761
I1
tp1762
F3.9409673018253457
s(S'2222222011'
p1763
I2
tp1764
F-18.698643480083692
s(S'0120111222'
p1765
I2
tp1766
I1
s(S'2222101111'
p1767
I2
tp1768
F3.607901101309916
s(S'2222100121'
p1769
I1
tp1770
I1
s(S'1002222210'
p1771
I0
tp1772
I-200
s(S'1222000011'
p1773
I1
tp1774
F3.587284537131671
s(S'2200112211'
p1775
I0
tp1776
I5
s(S'1220011222'
p1777
I0
tp1778
F11.498593603678305
s(S'1222220121'
p1779
I1
tp1780
I1
s(S'1022222210'
p1781
I0
tp1782
I-200
s(S'1001222210'
p1783
I2
tp1784
F3.047040625
s(S'1111111022'
p1785
I1
tp1786
F1.0
s(S'0221022222'
p1787
I0
tp1788
F12.238863504199674
s(S'2222111102'
p1789
I0
tp1790
I5
s(S'0122001122'
p1791
I2
tp1792
I1
s(S'2221000011'
p1793
I0
tp1794
F5.658043780539559
s(S'2101222210'
p1795
I1
tp1796
F1.0
s(S'2222221012'
p1797
I1
tp1798
F2.8984896010296923
s(S'0222222222'
p1799
I1
tp1800
F-69.53266490771325
s(S'2222100021'
p1801
I0
tp1802
I5
s(S'2200110111'
p1803
I2
tp1804
I1
s(S'1210022222'
p1805
I2
tp1806
F9.438003340178984
s(S'1222200122'
p1807
I1
tp1808
F5.449894688876951
s(S'2210122212'
p1809
I1
tp1810
F5.639281387135979
s(S'0122220012'
p1811
I1
tp1812
I1
s(S'2201121222'
p1813
I1
tp1814
F-0.39789631394296476
s(S'2221221022'
p1815
I0
tp1816
F5.804031015188352
s(S'2222001211'
p1817
I0
tp1818
F6.147128545611837
s(S'2222100122'
p1819
I2
tp1820
F1.9678594789172694
s(S'1221101222'
p1821
I0
tp1822
F8.63395548983976
s(S'0002222220'
p1823
I1
tp1824
I-200
s(S'2011212222'
p1825
I1
tp1826
F-13.083230653346543
s(S'2222010022'
p1827
I2
tp1828
I1
s(S'2222110221'
p1829
I0
tp1830
I5
s(S'0122222221'
p1831
I1
tp1832
F-20.303588834016097
s(S'0222000222'
p1833
I0
tp1834
F9.588956835832253
s(S'0122222012'
p1835
I2
tp1836
F2.269897402923584
s(S'1221000112'
p1837
I1
tp1838
I1
s(S'2222222220'
p1839
I0
tp1840
I-200
s(S'2220001011'
p1841
I2
tp1842
F1.9597530839042157
s(S'2222011122'
p1843
I1
tp1844
F5.323890880566289
s(S'0222221110'
p1845
I2
tp1846
F-13.524999999999999
s(S'0110002222'
p1847
I0
tp1848
F7.654794135388935
s(S'1012222220'
p1849
I2
tp1850
F-98.8719744502832
s(S'1100122221'
p1851
I1
tp1852
F-1.0958781064317895
s(S'1111022222'
p1853
I2
tp1854
F6.763586605373927
s(S'2210121111'
p1855
I0
tp1856
F7.059302155600749
s(S'2222221022'
p1857
I2
tp1858
F-7.507717274847243
s(S'2201122222'
p1859
I1
tp1860
F-32.006468244917166
s(S'2221111012'
p1861
I1
tp1862
F2.9640398820781813
s(S'0222210111'
p1863
I2
tp1864
I1
s(S'0121001222'
p1865
I2
tp1866
I1
s(S'2211100222'
p1867
I1
tp1868
F3.2145641191406247
s(S'0222200111'
p1869
I0
tp1870
I5
s(S'2200111221'
p1871
I2
tp1872
F4.535890750469874
s(S'0022222012'
p1873
I0
tp1874
F-11.160921801613561
s(S'2222222001'
p1875
I2
tp1876
F-160.4041217522653
s(S'2220000111'
p1877
I2
tp1878
F-99.5
s(S'1000222220'
p1879
I1
tp1880
I1
s(S'2001222220'
p1881
I0
tp1882
F-10.312817183772486
s(S'2222220112'
p1883
I1
tp1884
F-14.071392632573735
s(S'2212110221'
p1885
I1
tp1886
I1
s(S'1022222111'
p1887
I2
tp1888
F-8.935592714987386
s(S'2221012200'
p1889
I2
tp1890
F7.903863884977959
s(S'2222001222'
p1891
I1
tp1892
F4.016438164230104
s(S'2011122221'
p1893
I1
tp1894
F5.452875
s(S'2100122210'
p1895
I2
tp1896
F2.2666836816539826
s(S'2210112122'
p1897
I0
tp1898
F9.525402193621698
s(S'2222111011'
p1899
I2
tp1900
F-48.86705870105519
s(S'2220010111'
p1901
I0
tp1902
F8.308373429445245
s(S'2222000221'
p1903
I2
tp1904
F4.020437553727928
s(S'1222221000'
p1905
I0
tp1906
I5
s(S'2222222100'
p1907
I0
tp1908
F-28.946539536024957
s(S'2222200210'
p1909
I0
tp1910
F6.064011521361934
s(S'2222211012'
p1911
I1
tp1912
F3.144405685454589
s(S'0222210022'
p1913
I0
tp1914
F9.633894467339132
s(S'2101222211'
p1915
I2
tp1916
F4.447237772518358
s(S'1221012211'
p1917
I0
tp1918
F9.635956224702355
s(S'0111222220'
p1919
I0
tp1920
I5
s(S'2220111111'
p1921
I2
tp1922
F3.0281534481916172
s(S'2221100222'
p1923
I2
tp1924
F2.838118262590962
s(S'2100222221'
p1925
I1
tp1926
F-20.321870948977388
s(S'0122222220'
p1927
I2
tp1928
F-11.563878418857893
s(S'2211221022'
p1929
I1
tp1930
I1
s(S'0100122221'
p1931
I2
tp1932
I1
s(S'1001122222'
p1933
I2
tp1934
F-127.00508813559536
s(S'0222222110'
p1935
I2
tp1936
F-8.969289904771225
s(S'1100012222'
p1937
I0
tp1938
F7.453508873049785
s(S'0222222011'
p1939
I1
tp1940
F-110.73875495194468
s(S'0110022221'
p1941
I1
tp1942
I1
s(S'1100022222'
p1943
I1
tp1944
F-99.26375
s(S'2222221102'
p1945
I0
tp1946
I-200
s(S'2222222201'
p1947
I0
tp1948
F-185.13920113243154
s(S'2001112222'
p1949
I1
tp1950
F-5.972690231249236
s(S'2222000111'
p1951
I0
tp1952
F-95.49959219174119
s(S'2222101222'
p1953
I2
tp1954
F-97.80050335182202
s(S'2222110121'
p1955
I1
tp1956
F2.75
s(S'0011122221'
p1957
I0
tp1958
F-14.181797779632308
s(S'2222211011'
p1959
I2
tp1960
F-57.24829906504119
s(S'0022222101'
p1961
I1
tp1962
F-7.060049460144297
s(S'1101111222'
p1963
I0
tp1964
I5
s(S'1012222221'
p1965
I2
tp1966
F-155.98260233176097
s(S'2200112222'
p1967
I0
tp1968
F9.872043307649108
s(S'1222222101'
p1969
I0
tp1970
F-97.5
s(S'1001222221'
p1971
I0
tp1972
I-200
s(S'2100222210'
p1973
I1
tp1974
I1
s(S'2210002222'
p1975
I1
tp1976
F2.5938555704045427
s(S'2210122122'
p1977
I1
tp1978
F6.5605015394367
s(S'2221110221'
p1979
I1
tp1980
I1
s(S'0122222201'
p1981
I0
tp1982
I-200
s(S'0122210122'
p1983
I0
tp1984
F7.990401782635249
s(S'2222211102'
p1985
I1
tp1986
F2.175326322461605
s(S'2222211021'
p1987
I2
tp1988
F-3.365094922718045
s(S'2000012222'
p1989
I1
tp1990
F1.0
s(S'2201222121'
p1991
I1
tp1992
I1
s(S'2222210021'
p1993
I1
tp1994
F3.040647763676608
s(S'2222222210'
p1995
I1
tp1996
F-84.983133660063
s(S'1022222110'
p1997
I1
tp1998
I1
s(S'1222221100'
p1999
I2
tp2000
F-28.181249999999995
s(S'1210112222'
p2001
I1
tp2002
F4.678078617654894
s(S'2002222222'
p2003
I0
tp2004
F-36.07108266126929
s(S'0222200011'
p2005
I1
tp2006
I1
s(S'2222110021'
p2007
I2
tp2008
F-0.03702790510717302
s(S'2001222210'
p2009
I1
tp2010
F1.0
s(S'2221012221'
p2011
I2
tp2012
F7.58962712477191
s(S'2200002222'
p2013
I2
tp2014
F3.921249352981911
s(S'0022222210'
p2015
I0
tp2016
I-200
s(S'0222011122'
p2017
I0
tp2018
F10.31665477316346
s(S'2222200121'
p2019
I0
tp2020
F6.276692147937913
s(S'0222222211'
p2021
I1
tp2022
F-106.40693583007831
s(S'2200000111'
p2023
I2
tp2024
F2.6272556035280195
s(S'2001111222'
p2025
I1
tp2026
F2.2253457101429497
s(S'0222210011'
p2027
I2
tp2028
F1.7191600975752257
s(S'1122222101'
p2029
I1
tp2030
I1
s(S'1201112222'
p2031
I0
tp2032
F-2.0409123483535803
s(S'1222110022'
p2033
I2
tp2034
F3.2796772678890758
s(S'2102222222'
p2035
I2
tp2036
F-7.449259250818528
s(S'0120011222'
p2037
I2
tp2038
F2.77812095726492
s(S'0220122221'
p2039
I0
tp2040
F9.161243687846348
s(S'2201222221'
p2041
I1
tp2042
F-4.2683268582784395
s(S'0122210222'
p2043
I0
tp2044
F8.613216212690261
s(S'1000222222'
p2045
I1
tp2046
F-156.80574095825978
s(S'2001222222'
p2047
I0
tp2048
F-14.079854786450543
s(S'2222111021'
p2049
I0
tp2050
F-0.909570487614288
s(S'0110122222'
p2051
I2
tp2052
F3.8816371266197187
s(S'1221012222'
p2053
I0
tp2054
F13.629742087626292
s(S'2210122210'
p2055
I0
tp2056
F5.447587478663248
s(S'2222220110'
p2057
I1
tp2058
F4.834133929946048
s(S'1022101112'
p2059
I1
tp2060
I1
s(S'2000222221'
p2061
I1
tp2062
F1.5588830930295177
s(S'2222210111'
p2063
I0
tp2064
I-200
s(S'2222000022'
p2065
I1
tp2066
F3.176943816850317
s(S'1111101222'
p2067
I1
tp2068
F7.88492217938199
s(S'2222001220'
p2069
I1
tp2070
F1.0
s(S'2101222210'
p2071
I2
tp2072
F4.936563830241516
s(S'1102222222'
p2073
I2
tp2074
F-12.43241899252882
s(S'2222210120'
p2075
I1
tp2076
F4.431241446436331
s(S'0122011112'
p2077
I1
tp2078
F3.694157417306274
s(S'0111022222'
p2079
I2
tp2080
F5.526007446923821
s(S'0122220011'
p2081
I2
tp2082
F1.433125
s(S'0222101221'
p2083
I1
tp2084
F5.853551185508195
s(S'2222221001'
p2085
I1
tp2086
I-200
s(S'0222222001'
p2087
I0
tp2088
I-200
s(S'2220000222'
p2089
I0
tp2090
I5
s(S'1011012222'
p2091
I1
tp2092
I1
s(S'2201112222'
p2093
I1
tp2094
F3.197189969104631
s(S'2222222222'
p2095
I1
tp2096
F-99.5
s(S'2220001222'
p2097
I1
tp2098
F5.0232122522961316
s(S'0111222222'
p2099
I0
tp2100
F-8.475682106572902
s(S'0221011122'
p2101
I0
tp2102
I5
s(S'2201122222'
p2103
I0
tp2104
F-43.25247824632315
s(S'0222011111'
p2105
I1
tp2106
F4.856530659047071
s(S'1222210011'
p2107
I2
tp2108
F-4.359530658737482
s(S'2222220011'
p2109
I1
tp2110
F3.1950806648354417
s(S'1210122221'
p2111
I1
tp2112
F5.876933372219433
s(S'2220122112'
p2113
I1
tp2114
F4.526843209873242
s(S'2210111111'
p2115
I0
tp2116
F10.441859668933358
s(S'2200122210'
p2117
I1
tp2118
F2.0311968515625
s(S'1101112222'
p2119
I2
tp2120
F3.5584391836133844
s(S'2222210220'
p2121
I2
tp2122
F2.174951389637148
s(S'2111110122'
p2123
I0
tp2124
I5
s(S'0122222001'
p2125
I2
tp2126
I1
s(S'2222102210'
p2127
I0
tp2128
F10.371049983022594
s(S'1110222222'
p2129
I0
tp2130
F-200.0
s(S'1220011112'
p2131
I1
tp2132
F6.948612886170154
s(S'0122222100'
p2133
I1
tp2134
I1
s(S'1222222110'
p2135
I0
tp2136
I5
s(S'2101112222'
p2137
I1
tp2138
F-36.841366318870705
s(S'2200101111'
p2139
I0
tp2140
I5
s(S'1212221012'
p2141
I2
tp2142
F2.75
s(S'2222221011'
p2143
I1
tp2144
F3.6264878414739172
s(S'1211022222'
p2145
I1
tp2146
F-8.89547589395615
s(S'0222222221'
p2147
I1
tp2148
F-81.86232024935215
s(S'2110122210'
p2149
I2
tp2150
F1.35
s(S'1222221012'
p2151
I0
tp2152
F-97.325
s(S'1222220011'
p2153
I0
tp2154
I-200
s(S'2222220111'
p2155
I2
tp2156
I-200
s(S'1222211101'
p2157
I1
tp2158
F1.1825267330371458
s(S'1222221002'
p2159
I1
tp2160
F0.6830398249535689
s(S'2200111011'
p2161
I1
tp2162
I1
s(S'0222001211'
p2163
I1
tp2164
I1
s(S'1022222221'
p2165
I0
tp2166
F-148.75
s(S'2222101111'
p2167
I1
tp2168
F-31.12691894181183
s(S'0110222222'
p2169
I0
tp2170
F-97.5
s(S'1002222210'
p2171
I1
tp2172
F1.30625
s(S'2222201221'
p2173
I0
tp2174
I5
s(S'2220122221'
p2175
I1
tp2176
F7.665231877336151
s(S'2000122222'
p2177
I1
tp2178
F2.192992161993939
s(S'1022222210'
p2179
I1
tp2180
I-200
s(S'1222210111'
p2181
I2
tp2182
F-0.22602034212907895
s(S'0122222210'
p2183
I0
tp2184
I-200
s(S'1222222200'
p2185
I1
tp2186
I-200
s(S'2222111102'
p2187
I1
tp2188
F-0.48221497475253283
s(S'0122222222'
p2189
I1
tp2190
F-154.2030517790564
s(S'2222221012'
p2191
I2
tp2192
F-51.81968752536844
s(S'2210111110'
p2193
I2
tp2194
I1
s(S'1222211110'
p2195
I2
tp2196
F-2.9386039969556164
s(S'0222222222'
p2197
I2
tp2198
F-157.26778351803475
s(S'2220011112'
p2199
I0
tp2200
F8.361353064990006
s(S'2100222222'
p2201
I2
tp2202
F-34.07349492540172
s(S'2002222211'
p2203
I0
tp2204
F-26.205442925621128
s(S'1111001222'
p2205
I0
tp2206
F9.724873796610062
s(S'0122002222'
p2207
I2
tp2208
F1.8607689539266739
s(S'2112221022'
p2209
I2
tp2210
I1
s(S'2222210122'
p2211
I1
tp2212
F6.429183672556521
s(S'1011122221'
p2213
I0
tp2214
F6.58375
s(S'1222011221'
p2215
I1
tp2216
I1
s(S'0222001221'
p2217
I2
tp2218
F3.588961665781147
s(S'2201222212'
p2219
I0
tp2220
F7.736005851312094
s(S'2221110121'
p2221
I1
tp2222
F2.0844192683357137
s(S'1220112212'
p2223
I0
tp2224
F9.231808509573348
s(S'0122222111'
p2225
I0
tp2226
F5.0
s(S'0122222221'
p2227
I2
tp2228
I-200
s(S'2222222220'
p2229
I1
tp2230
F-131.67555299475015
s(S'0222221110'
p2231
I1
tp2232
F-0.838592534157308
s(S'2201122122'
p2233
I2
tp2234
F4.715350795664346
s(S'2220112212'
p2235
I2
tp2236
I1
s(S'0121012212'
p2237
I1
tp2238
I1
s(S'2222100111'
p2239
I0
tp2240
F11.822609550741351
s(S'1122001222'
p2241
I1
tp2242
F6.52769679047104
s(S'2222221022'
p2243
I1
tp2244
F3.3865844259902445
s(S'2011122222'
p2245
I1
tp2246
F-0.7153509091026109
s(S'2221110222'
p2247
I2
tp2248
F3.5493422088691235
s(S'1222221110'
p2249
I2
tp2250
F-6.170972644295479
s(S'2222100220'
p2251
I2
tp2252
I1
s(S'0112222222'
p2253
I2
tp2254
F-39.38426304774253
s(S'2222210022'
p2255
I2
tp2256
F0.591045339425027
s(S'2222200221'
p2257
I1
tp2258
I1
s(S'2200122112'
p2259
I0
tp2260
F8.107134408681588
s(S'0022222200'
p2261
I0
tp2262
F-200.0
s(S'2222221002'
p2263
I1
tp2264
F-39.38130341689573
s(S'2222110011'
p2265
I2
tp2266
F2.690739733288854
s(S'2200222222'
p2267
I2
tp2268
F5.647444300595981
s(S'1222011111'
p2269
I0
tp2270
F10.148918816195373
s(S'2221012211'
p2271
I2
tp2272
F5.607864414772344
s(S'1122100222'
p2273
I2
tp2274
F3.8382864933893353
s(S'2222111002'
p2275
I1
tp2276
F2.88893759486698
s(S'2222222001'
p2277
I1
tp2278
F-115.39315458671541
s(S'0122001112'
p2279
I0
tp2280
F6.415607659552075
s(S'1002222211'
p2281
I2
tp2282
F-18.101027880210825
s(S'1220011122'
p2283
I2
tp2284
F6.760856503838566
s(S'2221001222'
p2285
I0
tp2286
F11.699720444918238
s(S'0221022221'
p2287
I2
tp2288
F10.381419121038274
s(S'2101221221'
p2289
I1
tp2290
I1
s(S'0012222200'
p2291
I2
tp2292
I1
s(S'1101222221'
p2293
I0
tp2294
I-200
s(S'0222222012'
p2295
I1
tp2296
F2.2150226331634215
s(S'0222220001'
p2297
I2
tp2298
I-200
s(S'2110222222'
p2299
I0
tp2300
F-45.675397965279984
s(S'0022011122'
p2301
I1
tp2302
I1
s(S'2222111011'
p2303
I1
tp2304
F2.2782120041101592
s(S'2200122222'
p2305
I2
tp2306
F6.889155543926464
s(S'0122200022'
p2307
I0
tp2308
I5
s(S'2222102220'
p2309
I2
tp2310
F5.173837411118301
s(S'1222200112'
p2311
I0
tp2312
F7.382358945161895
s(S'0222210122'
p2313
I2
tp2314
F3.8052645264340317
s(S'2101222220'
p2315
I2
tp2316
F5.812362808418317
s(S'2222101221'
p2317
I0
tp2318
F12.15045721977539
s(S'2210001222'
p2319
I2
tp2320
F2.244731613619633
s(S'2200101221'
p2321
I0
tp2322
I5
s(S'1222222222'
p2323
I2
tp2324
I-200
s(S'2222211012'
p2325
I0
tp2326
F-5.92796372765195
s(S'0222222101'
p2327
I2
tp2328
I-200
s(S'2210111122'
p2329
I0
tp2330
F8.924690328865253
s(S'0220022221'
p2331
I1
tp2332
F6.476653903879923
s(S'0022210012'
p2333
I1
tp2334
I1
s(S'0011222221'
p2335
I2
tp2336
F-0.553935643602844
s(S'1101222211'
p2337
I0
tp2338
F-15.151221811706261
s(S'2222222221'
p2339
I2
tp2340
F-200.0
s(S'1001122222'
p2341
I1
tp2342
F-128.7558019622276
s(S'2220122211'
p2343
I0
tp2344
F8.36859264544157
s(S'0122101221'
p2345
I1
tp2346
I1
s(S'2221222102'
p2347
I1
tp2348
I1
s(S'0222222011'
p2349
I2
tp2350
F-116.9125
s(S'2222011221'
p2351
I1
tp2352
F5.228796999094396
s(S'1011222222'
p2353
I1
tp2354
F-38.02838232438568
s(S'2001112222'
p2355
I0
tp2356
F-4.565257269660195
s(S'2220011111'
p2357
I1
tp2358
F6.047950690969893
s(S'1001222201'
p2359
I2
tp2360
I1
s(S'1210122222'
p2361
I2
tp2362
F7.950991414419425
s(S'1222221002'
p2363
I2
tp2364
F-39.67713045157235
s(S'0012222210'
p2365
I0
tp2366
I5
s(S'2222101100'
p2367
I0
tp2368
I5
s(S'0021012222'
p2369
I0
tp2370
F8.674470636540256
s(S'0222000122'
p2371
I1
tp2372
I1
s(S'0120122222'
p2373
I0
tp2374
F11.255360872666287
s(S'0222220011'
p2375
I0
tp2376
I-200
s(S'0122222201'
p2377
I1
tp2378
I-200
s(S'2222211102'
p2379
I0
tp2380
F-4.992217286356047
s(S'2222211021'
p2381
I1
tp2382
F1.5339537846910443
s(S'0222200122'
p2383
I0
tp2384
F5.606117362938246
s(S'2222222210'
p2385
I0
tp2386
F-102.55984149283233
s(S'1111100222'
p2387
I2
tp2388
F3.107987081533535
s(S'2200001221'
p2389
I1
tp2390
F1.0
s(S'2221012201'
p2391
I0
tp2392
F11.427261027371127
s(S'1222221100'
p2393
I1
tp2394
F-1.529193936655422
s(S'1002222221'
p2395
I0
tp2396
F-200.0
s(S'2002222222'
p2397
I1
tp2398
F-27.986260512050038
s(S'2000122220'
p2399
I0
tp2400
I5
s(S'2110122221'
p2401
I0
tp2402
F5.454861473076084
s(S'1222221001'
p2403
I2
tp2404
F-28.5531891543547
s(S'2222221101'
p2405
I0
tp2406
I-200
s(S'0121011222'
p2407
I2
tp2408
F3.654138339258854
s(S'1201112222'
p2409
I1
tp2410
F-0.44462030636277117
s(S'2222221100'
p2411
I0
tp2412
I-200
s(S'0222012221'
p2413
I0
tp2414
F9.52718057820536
s(S'2201222221'
p2415
I2
tp2416
F5.597126191310263
s(S'1000222222'
p2417
I0
tp2418
I-200
s(S'1201111222'
p2419
I2
tp2420
F3.5608551414358756
s(S'0110122222'
p2421
I1
tp2422
I-200
s(S'2210022222'
p2423
I2
tp2424
F10.085855750478913
s(S'1001222211'
p2425
I0
tp2426
F-13.17784139655214
s(S'2222210111'
p2427
I1
tp2428
F3.517844267176674
s(S'1122221012'
p2429
I1
tp2430
F2.185446068680316
s(S'2222220012'
p2431
I1
tp2432
F0.7942717456408717
s(S'2201111222'
p2433
I1
tp2434
F-0.48797716836436256
s(S'2101222221'
p2435
I2
tp2436
F5.371920717864203
s(S'0222222111'
p2437
I0
tp2438
I-200
s(S'0222222100'
p2439
I2
tp2440
F1.0
s(S'0011001222'
p2441
I1
tp2442
I1
s(S'2222100022'
p2443
I2
tp2444
F3.6916626677591533
s(S'2222221002'
p2445
I0
tp2446
F-6.442324499479053
s(S'1220122222'
p2447
I2
tp2448
F6.1790470867052605
s(S'0101112222'
p2449
I2
tp2450
I1
s(S'2222221001'
p2451
I2
tp2452
F-137.34118396145215
s(S'2222200110'
p2453
I1
tp2454
F3.919318092226689
s(S'1210122122'
p2455
I2
tp2456
F5.1606734693316705
s(S'0222221001'
p2457
I0
tp2458
F-13.278316103320158
s(S'2222200011'
p2459
I0
tp2460
I-200
s(S'2221211021'
p2461
I1
tp2462
F1.9446361626423245
s(S'1222011122'
p2463
I0
tp2464
F-95.22890188053918
s(S'2201112222'
p2465
I0
tp2466
F-11.30637140924767
s(S'0222221022'
p2467
I2
tp2468
F3.2077182336605183
s(S'0111102222'
p2469
I0
tp2470
F9.416806475239706
s(S'0022222100'
p2471
I1
tp2472
I1
s(S'0011100222'
p2473
I1
tp2474
F3.7399519273462394
s(S'1101122222'
p2475
I0
tp2476
F-19.994548985184075
s(S'1121001222'
p2477
I1
tp2478
F5.805354722226101
s(S'1100111222'
p2479
I2
tp2480
F0.3680874672746125
s(S'0222011111'
p2481
I0
tp2482
F10.85526049388286
s(S'2222220011'
p2483
I2
tp2484
F-117.85361481113938
s(S'2211022222'
p2485
I2
tp2486
F10.317416748555027
s(S'0222221012'
p2487
I0
tp2488
F-18.0660010081805
s(S'1100222221'
p2489
I2
tp2490
F-32.183515206864456
s(S'2221111021'
p2491
I2
tp2492
I1
s(S'0022201222'
p2493
I1
tp2494
F4.083231832924497
s(S'2222100210'
p2495
I2
tp2496
F1.5209732683963697
s(S'2100111222'
p2497
I2
tp2498
F3.996102380610381
s(S'1110111222'
p2499
I2
tp2500
I1
s(S'2200022221'
p2501
I2
tp2502
F3.9722757795496118
s(S'1200111222'
p2503
I2
tp2504
F7.232719605242456
s(S'0122210112'
p2505
I2
tp2506
F1.89069770609891
s(S'0010022222'
p2507
I2
tp2508
F2.48742667824299
s(S'0222222210'
p2509
I1
tp2510
F-111.6673997512654
s(S'2210222222'
p2511
I0
tp2512
F-31.607706604386692
s(S'1221002222'
p2513
I0
tp2514
F12.231289084416208
s(S'2222221011'
p2515
I0
tp2516
F-17.528078272410212
s(S'0222201111'
p2517
I0
tp2518
I-200
s(S'2200112111'
p2519
I1
tp2520
F2.8374006397243283
s(S'2222221110'
p2521
I1
tp2522
F-3.3197730452033687
s(S'1211022222'
p2523
I0
tp2524
F-0.5411065515279052
s(S'0211022222'
p2525
I0
tp2526
F11.582471744763515
s(S'0222222221'
p2527
I0
tp2528
F-174.375
s(S'2222100221'
p2529
I2
tp2530
F4.148988983140482
s(S'2001222221'
p2531
I2
tp2532
F-47.2820791775437
s(S'1221012221'
p2533
I2
tp2534
F6.559937879090304
s(S'2211110022'
p2535
I2
tp2536
F3.812057804154487
s(S'2222220111'
p2537
I1
tp2538
F3.6398358174522127
s(S'2222210011'
p2539
I1
tp2540
F4.035542340695867
s(S'1110122222'
p2541
I2
tp2542
F5.377677078131956
s(S'2222222102'
p2543
I2
tp2544
F-6.074288007768473
s(S'1200122222'
p2545
I0
tp2546
F-2.2916279632896916
s(S'2221011122'
p2547
I2
tp2548
F3.3458150363805492
s(S'2002222122'
p2549
I1
tp2550
I1
s(S'2101221222'
p2551
I2
tp2552
F2.966958022703765
s(S'2222222110'
p2553
I1
tp2554
F-0.3503309704005213
s(S'2222222011'
p2555
I0
tp2556
F-172.845501791241
s(S'1022222221'
p2557
I1
tp2558
I-200
s(S'2222101111'
p2559
I0
tp2560
F9.68252654877007
s(S'1222212100'
p2561
I1
tp2562
I1
s(S'0110222222'
p2563
I1
tp2564
F-99.68728394431271
s(S'2100122211'
p2565
I0
tp2566
F6.109317878798372
s(S'2002222220'
p2567
I1
tp2568
F1.35
s(S'1002222210'
p2569
I2
tp2570
F-11.023812500000002
s(S'1222222200'
p2571
I0
tp2572
I-200
s(S'0101222222'
p2573
I2
tp2574
F-98.11672675920529
s(S'1110022222'
p2575
I2
tp2576
F7.152299051314758
s(S'0122222222'
p2577
I0
tp2578
I-200
s(S'1222011112'
p2579
I2
tp2580
F-0.2004858677758492
s(S'1110002222'
p2581
I1
tp2582
F1.7634682645746733
s(S'1200222211'
p2583
I2
tp2584
I1
s(S'0022101222'
p2585
I2
tp2586
F2.944351603597212
s(S'0222101111'
p2587
I1
tp2588
F3.1852771940774964
s(S'2210222212'
p2589
I0
tp2590
F8.5227239984578
s(S'1222211110'
p2591
I1
tp2592
F-52.236729350290524
s(S'1210022222'
p2593
I0
tp2594
F-0.4683406001816337
s(S'2220012222'
p2595
I2
tp2596
F4.879454049717831
s(S'2100222222'
p2597
I1
tp2598
F-22.72296231259469
s(S'2002222211'
p2599
I1
tp2600
F-4.6752872980344975
s(S'2210000111'
p2601
I1
tp2602
I1
s(S'2221022222'
p2603
I0
tp2604
F12.87628738614782
s(S'2002222111'
p2605
I2
tp2606
F3.2077550563429647
s(S'0121011122'
p2607
I2
tp2608
I1
s(S'1022201222'
p2609
I1
tp2610
F1.7278844769633368
s(S'2222210122'
p2611
I2
tp2612
F-2.50651833556062
s(S'2011222222'
p2613
I2
tp2614
F-0.305613890809024
s(S'2222001111'
p2615
I2
tp2616
F-97.85297959117132
s(S'2201222212'
p2617
I1
tp2618
F-2.665165777546847
s(S'2222222200'
p2619
I2
tp2620
F-156.07666875398098
s(S'2222200112'
p2621
I1
tp2622
I1
s(S'1222111012'
p2623
I1
tp2624
F2.7972351192014253
s(S'2222000011'
p2625
I1
tp2626
F5.181653141272717
s(S'2222222220'
p2627
I2
tp2628
F-192.22986671946046
s(S'0122222101'
p2629
I1
tp2630
I1
s(S'1110222222'
p2631
I2
tp2632
F5.547611281778455
s(S'1012222220'
p2633
I0
tp2634
I-200
s(S'2222000122'
p2635
I2
tp2636
F5.196874400194171
s(S'1001222220'
p2637
I2
tp2638
F-26.313598036687438
s(S'2220022220'
p2639
I1
tp2640
F2.75
s(S'2222221022'
p2641
I0
tp2642
F-0.8831075099966172
s(S'2011122222'
p2643
I0
tp2644
F-1.9363941608030242
s(S'2200011122'
p2645
I0
tp2646
I5
s(S'1222221011'
p2647
I2
tp2648
F-56.00635891049744
s(S'0110012222'
p2649
I0
tp2650
F8.854984065350124
s(S'1222220012'
p2651
I2
tp2652
F-4.314755731566245
s(S'2222210022'
p2653
I1
tp2654
F3.8182370167698267
s(S'0222210222'
p2655
I1
tp2656
F4.035964132187576
s(S'2201222111'
p2657
I2
tp2658
F4.11484508539787
s(S'0022222200'
p2659
I1
tp2660
F-200.0
s(S'1122222201'
p2661
I0
tp2662
I-200
s(S'2221110021'
p2663
I2
tp2664
F2.671229306272843
s(S'0222210112'
p2665
I1
tp2666
I1
s(S'1222011111'
p2667
I1
tp2668
F-12.63758426874773
s(S'2222222101'
p2669
I1
tp2670
F-2.424583170011479
s(S'0011122221'
p2671
I1
tp2672
F1.616875
s(S'2002222221'
p2673
I2
tp2674
I1
s(S'1002222211'
p2675
I1
tp2676
F-49.83535120461242
s(S'2200112210'
p2677
I1
tp2678
I1
s(S'1222220122'
p2679
I2
tp2680
F-1.095051267108754
s(S'2001222220'
p2681
I2
tp2682
F2.171078392776796
s(S'2220122220'
p2683
I1
tp2684
F2.9295844244439184
s(S'2222002220'
p2685
I0
tp2686
F9.859278053693416
s(S'2100112222'
p2687
I1
tp2688
F3.6112822251740235
s(S'2221012220'
p2689
I0
tp2690
F13.83789564138867
s(S'0122222211'
p2691
I2
tp2692
I-200
s(S'2222220022'
p2693
I1
tp2694
F3.3288031256077533
s(S'1222002222'
p2695
I0
tp2696
F8.777677280236762
s(S'2001111221'
p2697
I1
tp2698
I1
s(S'2222201122'
p2699
I0
tp2700
F7.9578059329772755
s(S'1101222221'
p2701
I1
tp2702
F-34.972068736386696
s(S'2110222222'
p2703
I1
tp2704
F-72.28433286158297
s(S'2222221102'
p2705
I2
tp2706
F-13.851174097045181
s(S'0022110122'
p2707
I2
tp2708
I1
s(S'2210111222'
p2709
I0
tp2710
F9.068906099116523
s(S'2222111011'
p2711
I0
tp2712
F-41.1979099439535
s(S'2222001012'
p2713
I2
tp2714
F1.35
s(S'0022100111'
p2715
I0
tp2716
I5
s(S'2222220121'
p2717
I0
tp2718
F-3.266508537797093
s(S'0122222111'
p2719
I1
tp2720
F-28.487499999999997
s(S'0111001222'
p2721
I2
tp2722
F3.9353078113224402
s(S'2101222211'
p2723
I0
tp2724
F-5.992960637636772
s(S'0022222221'
p2725
I0
tp2726
F-2.5101110999360694
s(S'0111122221'
p2727
I2
tp2728
I1
s(S'1011122222'
p2729
I2
tp2730
F-49.94726843860874
s(S'2100122222'
p2731
I0
tp2732
F5.0
s(S'1111211022'
p2733
I0
tp2734
I5
s(S'2220111111'
p2735
I0
tp2736
F-95.89817230800085
s(S'0002222221'
p2737
I0
tp2738
I-200
s(S'1210012111'
p2739
I2
tp2740
I1
s(S'1221102222'
p2741
I2
tp2742
F4.675652425515224
s(S'0222222000'
p2743
I2
tp2744
F-162.225
s(S'2100122111'
p2745
I0
tp2746
F7.424824584015569
s(S'0122222220'
p2747
I0
tp2748
I5
s(S'2222222221'
p2749
I1
tp2750
F-193.6858152497867
s(S'1210111222'
p2751
I2
tp2752
F2.2434790999074634
s(S'1001122222'
p2753
I0
tp2754
F-130.32569392052955
s(S'2200222122'
p2755
I1
tp2756
F3.8370532150464536
s(S'1110000222'
p2757
I0
tp2758
I5
s(S'2100012222'
p2759
I0
tp2760
F7.267414809264688
s(S'1100122220'
p2761
I0
tp2762
I5
s(S'2222001110'
p2763
I2
tp2764
F3.537234108471596
s(S'2200001222'
p2765
I1
tp2766
F4.790250781153554
s(S'2220011110'
p2767
I1
tp2768
F1.8468230760593412
s(S'2001222200'
p2769
I0
tp2770
I5
s(S'2201121122'
p2771
I0
tp2772
I5
s(S'1011222222'
p2773
I0
tp2774
I-200
s(S'2222222201'
p2775
I2
tp2776
F-136.9709112734712
s(S'2220011011'
p2777
I0
tp2778
F8.088785431793028
s(S'1221110022'
p2779
I2
tp2780
I1
s(S'1210122222'
p2781
I1
tp2782
F0.20060929766886382
s(S'2220001221'
p2783
I0
tp2784
F9.14580389778429
s(S'0222012211'
p2785
I2
tp2786
F6.660144119149771
s(S'1110012222'
p2787
I2
tp2788
F4.245387228736923
s(S'0012222210'
p2789
I1
tp2790
F-69.0
s(S'0222222001'
p2791
I2
tp2792
F-187.4375
s(S'2200122111'
p2793
I2
tp2794
F3.9258310934813228
s(S'2011212222'
p2795
I2
tp2796
F-2.9425869824050146
s(S'1001222221'
p2797
I2
tp2798
F-55.05405211921706
s(S'0222101111'
p2799
I0
tp2800
F-95.39249374185988
s(S'2222220112'
p2801
I0
tp2802
F3.3517857470581913
s(S'0222220011'
p2803
I1
tp2804
F0.43411813592921655
s(S'2220111112'
p2805
I1
tp2806
F5.451850451406719
s(S'2201222210'
p2807
I1
tp2808
F2.8521496551944527
s(S'2222111022'
p2809
I1
tp2810
F3.8731259597094683
s(S'2222211021'
p2811
I0
tp2812
F6.9536683106782
s(S'1221001222'
p2813
I2
tp2814
F4.853737292365409
s(S'1221000012'
p2815
I0
tp2816
I5
s(S'1012222222'
p2817
I0
tp2818
F-123.34206347252143
s(S'0222011221'
p2819
I0
tp2820
F11.109224336817686
s(S'1222000222'
p2821
I0
tp2822
F10.212477908916943
s(S'0120012222'
p2823
I1
tp2824
I1
s(S'2222220002'
p2825
I0
tp2826
F-97.5
s(S'1222221100'
p2827
I0
tp2828
F-96.625
s(S'2100111122'
p2829
I1
tp2830
I1
s(S'1002222221'
p2831
I1
tp2832
I-200
s(S'1222111101'
p2833
I1
tp2834
F1.0
s(S'1220022222'
p2835
I0
tp2836
F11.033534453123412
s(S'1220011111'
p2837
I2
tp2838
F2.925
s(S'2101111222'
p2839
I2
tp2840
F1.76344686691716
s(S'1220122221'
p2841
I0
tp2842
F8.603254022249942
s(S'1101222210'
p2843
I0
tp2844
F5.17171875
s(S'1100002222'
p2845
I2
tp2846
I-200
s(S'1222221001'
p2847
I1
tp2848
F0.5861989258936182
s(S'1022101222'
p2849
I2
tp2850
I1
s(S'1222200111'
p2851
I2
tp2852
F0.6459823223198828
s(S'1201112222'
p2853
I2
tp2854
F3.4811643933871528
s(S'1112221022'
p2855
I1
tp2856
I1
s(S'1022222222'
p2857
I2
tp2858
F-39.25751998016615
s(S'2222221100'
p2859
I1
tp2860
F-21.273657853889866
s(S'1012222211'
p2861
I2
tp2862
F-27.589591920182926
s(S'2222111021'
p2863
I2
tp2864
F-3.4003027937871053
s(S'0110122222'
p2865
I0
tp2866
F-95.66964225257246
s(S'0222002222'
p2867
I2
tp2868
I1
s(S'1001222211'
p2869
I1
tp2870
F-9.890001350646878
s(S'2221012222'
p2871
I0
tp2872
F13.05182973806032
s(S'2100222220'
p2873
I0
tp2874
F6.7678450838036
s(S'0022210122'
p2875
I0
tp2876
F5.35
s(S'0220022222'
p2877
I2
tp2878
F9.37068942028048
s(S'2222200021'
p2879
I2
tp2880
F0.33753926141805035
s(S'2222220012'
p2881
I0
tp2882
F-3.282006850173522
s(S'2222201120'
p2883
I0
tp2884
F9.770675486780625
s(S'1222211002'
p2885
I2
tp2886
F0.792732566073636
s(S'1211001222'
p2887
I0
tp2888
F6.757247547565188
s(S'2102222221'
p2889
I0
tp2890
F-25.79875424456248
s(S'2221012111'
p2891
I0
tp2892
F9.3818747850462
s(S'2220002222'
p2893
I2
tp2894
F5.25701315505936
s(S'1220012221'
p2895
I2
tp2896
I1
s(S'2200011221'
p2897
I2
tp2898
I1
s(S'1102222222'
p2899
I0
tp2900
F-141.02167584507305
s(S'0110022222'
p2901
I2
tp2902
F7.332845498510206
s(S'2212221012'
p2903
I1
tp2904
F3.5042060562009705
s(S'2200222221'
p2905
I2
tp2906
F4.827274690810876
s(S'2220112211'
p2907
I2
tp2908
F5.374198851325588
s(S'0222221001'
p2909
I1
tp2910
F-1.4586754047232122
s(S'2222200011'
p2911
I1
tp2912
F5.092259089928719
s(S'1222011122'
p2913
I1
tp2914
F5.281066846139177
s(S'1220111222'
p2915
I0
tp2916
F10.737718605858202
s(S'1222200222'
p2917
I1
tp2918
F4.265710371578397
s(S'2200121122'
p2919
I1
tp2920
I1
s(S'2222102200'
p2921
I1
tp2922
F5.5809674860875145
s(S'1101122222'
p2923
I1
tp2924
F-104.53697531352665
s(S'2222201111'
p2925
I0
tp2926
F-95.14382027742593
s(S'1011112222'
p2927
I2
tp2928
I1
s(S'0222221100'
p2929
I0
tp2930
I5
s(S'2110022222'
p2931
I2
tp2932
F5.4240019104165675
s(S'1221011112'
p2933
I2
tp2934
F7.329846599747336
s(S'1201122122'
p2935
I1
tp2936
F1.0012285756332417
s(S'2100222211'
p2937
I0
tp2938
I5
s.