(dp0
(S'2201222211'
p1
I2
tp2
F5.341436001391482
s(S'2001212222'
p3
I2
tp4
F-1.7386864559709299
s(S'2212210121'
p5
I0
tp6
F7.431671934837631
s(S'2221110220'
p7
I0
tp8
I5
s(S'0022222001'
p9
I1
tp10
F-3.9333205800377122
s(S'0122222200'
p11
I1
tp12
I1
s(S'2211000222'
p13
I1
tp14
F1.35
s(S'0222001111'
p15
I1
tp16
F-4.009374613134058
s(S'2220011211'
p17
I1
tp18
F4.512947126049569
s(S'2222211101'
p19
I2
tp20
F-99.5
s(S'1222210011'
p21
I0
tp22
F-26.61202688136038
s(S'2000012221'
p23
I2
tp24
F1.0
s(S'0222221012'
p25
I1
tp26
F4.213606560884331
s(S'1201222222'
p27
I2
tp28
F4.463761866108433
s(S'0112110122'
p29
I1
tp30
F4.893610415642316
s(S'0222200012'
p31
I2
tp32
F1.0
s(S'1121100222'
p33
I2
tp34
I1
s(S'1100122222'
p35
I0
tp36
I-200
s(S'0011100122'
p37
I2
tp38
F3.8564850749917614
s(S'0122200122'
p39
I2
tp40
F1.0
s(S'0012222220'
p41
I2
tp42
F-111.46550038398574
s(S'0110222221'
p43
I1
tp44
I1
s(S'1002222220'
p45
I2
tp46
F-127.49164290475575
s(S'1222210122'
p47
I0
tp48
F7.823019622062759
s(S'1100222210'
p49
I2
tp50
F4.828240907566873
s(S'2201122112'
p51
I2
tp52
F2.748999176709189
s(S'2200111121'
p53
I0
tp54
F9.8463838565205
s(S'2222201200'
p55
I0
tp56
I5
s(S'0222222201'
p57
I2
tp58
F-200.0
s(S'1222222110'
p59
I2
tp60
F-99.08987938831149
s(S'2210122222'
p61
I0
tp62
F-26.182541182976436
s(S'0222222210'
p63
I0
tp64
F-104.07979882520628
s(S'1222210002'
p65
I0
tp66
F-1.8168659230743267
s(S'0222201111'
p67
I1
tp68
F-49.78276959323052
s(S'2222221101'
p69
I2
tp70
F-159.8405186770778
s(S'2100112111'
p71
I0
tp72
I5
s(S'2201222220'
p73
I0
tp74
F8.052962970686517
s(S'1000222221'
p75
I2
tp76
F-15.4886070082427
s(S'1122222001'
p77
I1
tp78
F-55.57352084786564
s(S'0122011122'
p79
I2
tp80
F2.805680597100781
s(S'2222220111'
p81
I0
tp82
I-200
s(S'2222210011'
p83
I0
tp84
I-200
s(S'2222220021'
p85
I2
tp86
F-3.69001039349835
s(S'0222001111'
p87
I0
tp88
F-97.5
s(S'0021100222'
p89
I2
tp90
F4.06432486076487
s(S'1200122222'
p91
I1
tp92
F-18.34762528648629
s(S'2211012221'
p93
I0
tp94
F7.196560636545691
s(S'2222111021'
p95
I1
tp96
F6.370359892761136
s(S'2200111110'
p97
I0
tp98
F7.1831598151915985
s(S'1211110022'
p99
I1
tp100
F4.0654500378249585
s(S'2222222011'
p101
I1
tp102
F-150.49026765403252
s(S'0022210112'
p103
I2
tp104
I1
s(S'1222210221'
p105
I0
tp106
F9.00371541312786
s(S'1101222222'
p107
I2
tp108
F-15.009679050267096
s(S'0222100110'
p109
I0
tp110
F6.674988413473247
s(S'1111012222'
p111
I0
tp112
F11.461221417896098
s(S'0110222222'
p113
I2
tp114
F5.44318133308977
s(S'0220122211'
p115
I1
tp116
F6.227534350046428
s(S'2200001121'
p117
I1
tp118
I1
s(S'2002222220'
p119
I2
tp120
I1
s(S'1012222210'
p121
I2
tp122
F-11.940675420582904
s(S'2100122220'
p123
I1
tp124
F3.9936691534161106
s(S'2101222111'
p125
I2
tp126
F4.7100117108901465
s(S'2210011222'
p127
I0
tp128
F9.393354884030062
s(S'0222101222'
p129
I2
tp130
F5.4560572123928095
s(S'2001222122'
p131
I1
tp132
I1
s(S'2222200111'
p133
I1
tp134
F10.600406363240673
s(S'0122222210'
p135
I2
tp136
I1
s(S'0122222111'
p137
I2
tp138
F-42.10750384538179
s(S'1110022222'
p139
I1
tp140
F-148.8893854163288
s(S'2222121102'
p141
I1
tp142
F1.8847710368029087
s(S'0111012222'
p143
I2
tp144
F4.374782654488756
s(S'1110002222'
p145
I0
tp146
F8.690714962979435
s(S'2222101200'
p147
I1
tp148
F6.821768935676749
s(S'0211002222'
p149
I1
tp150
F2.724902433916479
s(S'0022200001'
p151
I1
tp152
I1
s(S'2011211221'
p153
I0
tp154
I5
s(S'1222211110'
p155
I0
tp156
F-26.319856080321443
s(S'0222201222'
p157
I2
tp158
F6.058199595756871
s(S'0010012222'
p159
I1
tp160
F1.9270195356782422
s(S'1210022222'
p161
I1
tp162
F-1.8076079392407491
s(S'2220000011'
p163
I0
tp164
F-95.89812339436891
s(S'2200222211'
p165
I0
tp166
F8.973900621423887
s(S'1222001112'
p167
I1
tp168
F-12.312126185343615
s(S'2100222222'
p169
I0
tp170
I-200
s(S'2002222211'
p171
I2
tp172
F-59.30741941457352
s(S'0120111112'
p173
I2
tp174
I1
s(S'2220001121'
p175
I0
tp176
F8.616391350240093
s(S'0222220111'
p177
I1
tp178
F-11.54327270795409
s(S'2222220010'
p179
I0
tp180
F-96.63056427495536
s(S'0220012222'
p181
I2
tp182
F2.7750389430625333
s(S'0002222200'
p183
I1
tp184
F-35.862548588666186
s(S'2222000012'
p185
I2
tp186
F4.060546461141387
s(S'1000222210'
p187
I0
tp188
F3.7231203709288616
s(S'1221022222'
p189
I2
tp190
F10.196629594235429
s(S'0122101222'
p191
I1
tp192
F5.889147530451524
s(S'1102222220'
p193
I0
tp194
I-200
s(S'0221011111'
p195
I0
tp196
F6.489701170518773
s(S'2220011101'
p197
I1
tp198
F4.816531239111659
s(S'2200122211'
p199
I0
tp200
F9.049049227676585
s(S'1001222100'
p201
I1
tp202
F2.386197238708002
s(S'2222200112'
p203
I2
tp204
F-16.241014857871455
s(S'1222222001'
p205
I0
tp206
I-200
s(S'1222100112'
p207
I2
tp208
F4.208214120161919
s(S'2222211100'
p209
I2
tp210
F1.6791688563639218
s(S'0122210012'
p211
I1
tp212
F7.258506164263924
s(S'0122002221'
p213
I0
tp214
I5
s(S'1222220112'
p215
I1
tp216
F4.1154702901086795
s(S'2221001221'
p217
I1
tp218
F5.597688106738585
s(S'1222011211'
p219
I1
tp220
I1
s(S'1012222220'
p221
I1
tp222
F-200.0
s(S'0110111222'
p223
I1
tp224
F3.540746951926373
s(S'2210121122'
p225
I0
tp226
F9.042234276828328
s(S'0222220012'
p227
I2
tp228
F-35.875336115966796
s(S'1222221110'
p229
I0
tp230
F-28.292732326542634
s(S'0122100222'
p231
I0
tp232
F8.828783087096603
s(S'2220110111'
p233
I0
tp234
F12.378135241403665
s(S'2210222222'
p235
I2
tp236
F6.879111037541874
s(S'0222220112'
p237
I2
tp238
F-0.40080157578235887
s(S'2222001011'
p239
I0
tp240
I-200
s(S'0111222210'
p241
I1
tp242
F1.0
s(S'1001222210'
p243
I0
tp244
F-0.29723978915080806
s(S'2222210022'
p245
I0
tp246
F-28.009671462777696
s(S'0011112210'
p247
I1
tp248
F3.625
s(S'1222200011'
p249
I1
tp250
F3.4074058132585328
s(S'1222111102'
p251
I2
tp252
F2.16739179882224
s(S'2221211012'
p253
I2
tp254
F0.2684235439378402
s(S'1002222211'
p255
I0
tp256
F-45.46293623479341
s(S'0222102222'
p257
I2
tp258
F5.794453682629031
s(S'1220002222'
p259
I2
tp260
F7.1000699398161
s(S'1000222220'
p261
I2
tp262
F-1.6554902416298622
s(S'2222201220'
p263
I1
tp264
F7.264802800112706
s(S'1022222211'
p265
I0
tp266
I-200
s(S'1210121122'
p267
I2
tp268
I1
s(S'2222012221'
p269
I1
tp270
F5.393660639406342
s(S'0122222211'
p271
I1
tp272
I-200
s(S'1120012222'
p273
I1
tp274
F4.172613589885904
s(S'2222200122'
p275
I1
tp276
F5.196183468724882
s(S'1112110222'
p277
I1
tp278
F2.040589288882485
s(S'2222101201'
p279
I2
tp280
F5.390775303717458
s(S'2220000112'
p281
I1
tp282
F6.421997021963158
s(S'0222012222'
p283
I2
tp284
F4.39155679502054
s(S'2012222111'
p285
I0
tp286
F-0.2524459527065943
s(S'0012222100'
p287
I1
tp288
F1.0
s(S'1220112111'
p289
I1
tp290
I1
s(S'1212222101'
p291
I2
tp292
F-34.38144606081063
s(S'1220012211'
p293
I2
tp294
F3.735023041522431
s(S'0122000222'
p295
I1
tp296
F6.248606995037053
s(S'0022100222'
p297
I1
tp298
I1
s(S'2101222220'
p299
I0
tp300
F-26.658846696270455
s(S'2100111111'
p301
I2
tp302
F6.970981494515973
s(S'1201222211'
p303
I0
tp304
F3.80620437668696
s(S'2222220121'
p305
I1
tp306
F4.61836954868537
s(S'2222211012'
p307
I2
tp308
F0.2023627761804725
s(S'2221001110'
p309
I1
tp310
F3.4876158834134596
s(S'0222222101'
p311
I0
tp312
I-200
s(S'2101222211'
p313
I1
tp314
F-2.738883209339311
s(S'1200122111'
p315
I0
tp316
I5
s(S'2200112221'
p317
I0
tp318
F8.061103150488057
s(S'1222200012'
p319
I2
tp320
F1.35
s(S'2221102222'
p321
I2
tp322
I1
s(S'2210011011'
p323
I2
tp324
I1
s(S'2101222122'
p325
I1
tp326
F-6.859497469665157
s(S'2100122222'
p327
I1
tp328
F-43.45144807910419
s(S'1220112122'
p329
I1
tp330
F4.985751867615088
s(S'2221001101'
p331
I1
tp332
F3.452372940163726
s(S'2220111111'
p333
I1
tp334
F8.083692608195948
s(S'2200122221'
p335
I0
tp336
F10.222641512487776
s(S'2222200120'
p337
I1
tp338
F5.964871242591132
s(S'0222221002'
p339
I2
tp340
F-48.67613789255981
s(S'0121012222'
p341
I1
tp342
F7.388240624027071
s(S'0121100122'
p343
I1
tp344
F4.570006570787662
s(S'2221211022'
p345
I1
tp346
F4.380049513732612
s(S'2210112111'
p347
I1
tp348
F4.638528312453971
s(S'1222222221'
p349
I0
tp350
I-200
s(S'2222222221'
p351
I0
tp352
I-200
s(S'2220000012'
p353
I2
tp354
F1.35
s(S'2210000222'
p355
I2
tp356
I1
s(S'2222001011'
p357
I2
tp358
I1
s(S'1120011222'
p359
I1
tp360
F4.87959739419241
s(S'2220022221'
p361
I1
tp362
F6.219816450159318
s(S'1220000122'
p363
I2
tp364
F4.124347373948277
s(S'1101121222'
p365
I2
tp366
F3.5565318251295306
s(S'2222221021'
p367
I2
tp368
F-61.90538623897466
s(S'2200222220'
p369
I2
tp370
F5.765794856132523
s(S'1200022222'
p371
I2
tp372
F3.3382701320553387
s(S'1002222222'
p373
I1
tp374
F-133.53672456378
s(S'2001112222'
p375
I2
tp376
F3.9959256304190225
s(S'1022222201'
p377
I2
tp378
I1
s(S'0011222222'
p379
I0
tp380
I-200
s(S'1210122222'
p381
I0
tp382
F-5.0791937234835345
s(S'0222222011'
p383
I0
tp384
I-200
s(S'2221011111'
p385
I1
tp386
F4.696159664766709
s(S'2110122222'
p387
I1
tp388
F-1.0464902172916983
s(S'0222221011'
p389
I2
tp390
F-99.5
s(S'1220112222'
p391
I1
tp392
F4.959829340109002
s(S'2000111221'
p393
I2
tp394
I1
s(S'0012222210'
p395
I2
tp396
F-63.74998391339059
s(S'2210122220'
p397
I1
tp398
F4.487748399978383
s(S'0022222201'
p399
I1
tp400
F-99.5
s(S'2220012210'
p401
I0
tp402
F9.82616703343518
s(S'2222210002'
p403
I1
tp404
F4.0334013809261275
s(S'1222100222'
p405
I2
tp406
F5.412412406124135
s(S'1210121111'
p407
I0
tp408
I5
s(S'2222111022'
p409
I0
tp410
F-30.295843148980428
s(S'1110111122'
p411
I1
tp412
I1
s(S'2222212101'
p413
I1
tp414
I1
s(S'1200112122'
p415
I0
tp416
F6.715140553197231
s(S'2000222210'
p417
I2
tp418
F3.1485995015853394
s(S'1012222222'
p419
I1
tp420
F-120.95846013593763
s(S'2222220002'
p421
I1
tp422
F-25.334603775696188
s(S'2220002221'
p423
I0
tp424
F6.766327760045765
s(S'0012222221'
p425
I2
tp426
F-200.0
s(S'1002222221'
p427
I2
tp428
F-133.40514953313775
s(S'2122210022'
p429
I1
tp430
F3.6299071430010845
s(S'0222222220'
p431
I2
tp432
F-35.75176933124429
s(S'2222011011'
p433
I0
tp434
I-200
s(S'0112222220'
p435
I0
tp436
I-200
s(S'1012221222'
p437
I0
tp438
I5
s(S'1222211100'
p439
I2
tp440
F-13.076433295375729
s(S'1222221001'
p441
I0
tp442
I-200
s(S'2211002222'
p443
I1
tp444
F3.418602928182561
s(S'0122222110'
p445
I1
tp446
F-52.62939004973016
s(S'2210011112'
p447
I1
tp448
F5.068619584449545
s(S'2222222012'
p449
I2
tp450
F-3.6647376890410994
s(S'1022222222'
p451
I1
tp452
F-120.80860132354314
s(S'2222221100'
p453
I2
tp454
F-84.63415762969791
s(S'2221001111'
p455
I2
tp456
F-4.970720064125853
s(S'0022222222'
p457
I2
tp458
F-43.287307960998206
s(S'1222212110'
p459
I0
tp460
F-10.041137533202635
s(S'1011022222'
p461
I0
tp462
F9.215966139097873
s(S'1100122211'
p463
I2
tp464
F4.85708257311596
s(S'1210111122'
p465
I1
tp466
F3.0209416577375223
s(S'2222201222'
p467
I1
tp468
F5.570654861133358
s(S'2220122222'
p469
I0
tp470
F10.284681356544192
s(S'0122221012'
p471
I1
tp472
F2.837454372765893
s(S'0111110122'
p473
I1
tp474
F4.052003758770891
s(S'2000222221'
p475
I2
tp476
F-0.19679269994188875
s(S'1222222201'
p477
I2
tp478
F-23.137711988992706
s(S'0100122222'
p479
I2
tp480
F5.635018101591816
s(S'2102222221'
p481
I1
tp482
F-11.306532293270154
s(S'1111102222'
p483
I2
tp484
F6.025500337062658
s(S'1102222222'
p485
I1
tp486
F-157.01647027672033
s(S'2122222012'
p487
I1
tp488
I1
s(S'1212222012'
p489
I1
tp490
I1
s(S'2222002201'
p491
I2
tp492
F7.185413687513407
s(S'2212221012'
p493
I0
tp494
F5.977557980100075
s(S'0022220001'
p495
I0
tp496
I5
s(S'2221001211'
p497
I1
tp498
F4.275237253426511
s(S'1211002222'
p499
I2
tp500
F4.917244634414086
s(S'0222011211'
p501
I0
tp502
F10.059883426433514
s(S'2200222221'
p503
I1
tp504
F-1.143296964612417
s(S'2222210110'
p505
I1
tp506
F4.978178376234416
s(S'2211110222'
p507
I1
tp508
F1.0
s(S'2222011111'
p509
I2
tp510
F-123.42023842520919
s(S'2222001121'
p511
I0
tp512
F10.93822660198251
s(S'2101222222'
p513
I0
tp514
F-105.92326603853189
s(S'2222000112'
p515
I0
tp516
F-96.13431663911072
s(S'1222011122'
p517
I2
tp518
F4.580827788934057
s(S'2221011110'
p519
I2
tp520
F7.2708176005624345
s(S'2210011111'
p521
I2
tp522
F-12.431786475296288
s(S'2101121222'
p523
I0
tp524
F-16.663966196159322
s(S'1221000022'
p525
I1
tp526
I1
s(S'0122011221'
p527
I1
tp528
I1
s(S'0012222211'
p529
I1
tp530
I1
s(S'2222211002'
p531
I1
tp532
F3.5756514102573727
s(S'1101122222'
p533
I2
tp534
F2.9232843682212306
s(S'2222201111'
p535
I1
tp536
F8.741157145014304
s(S'1222222102'
p537
I0
tp538
F-28.103437500000002
s(S'0222221100'
p539
I1
tp540
F-14.075231454928549
s(S'0111022221'
p541
I1
tp542
I1
s(S'1201122122'
p543
I2
tp544
F3.0830325871829416
s(S'0022222001'
p545
I0
tp546
F-65.0
s(S'2000122221'
p547
I0
tp548
F4.79485448274868
s(S'0001222210'
p549
I0
tp550
F-27.246626456221385
s(S'2210222220'
p551
I1
tp552
F4.14410913647715
s(S'1222210011'
p553
I1
tp554
F-30.282430208876992
s(S'2220112222'
p555
I0
tp556
F10.272808193091729
s(S'2222211022'
p557
I2
tp558
F-12.530928576715112
s(S'0221001111'
p559
I2
tp560
F1.228884905022765
s(S'2222101210'
p561
I1
tp562
F7.702357970606194
s(S'2200000122'
p563
I0
tp564
I5
s(S'1001111221'
p565
I2
tp566
I1
s(S'1212222002'
p567
I1
tp568
F1.971981850571116
s(S'2100111222'
p569
I0
tp570
F-31.618704822675358
s(S'2111100222'
p571
I0
tp572
I5
s(S'0012222220'
p573
I1
tp574
F-110.73124999999999
s(S'2222011112'
p575
I0
tp576
F-25.71361094262024
s(S'0110222221'
p577
I0
tp578
F-16.798438133201124
s(S'1002222220'
p579
I1
tp580
F-65.36423275490003
s(S'1022221221'
p581
I1
tp582
I1
s(S'1121012222'
p583
I0
tp584
F13.692288658736487
s(S'2102222211'
p585
I2
tp586
F-15.643909529712401
s(S'2110122220'
p587
I1
tp588
F2.1591758310480773
s(S'2210111101'
p589
I2
tp590
F3.970938520810376
s(S'2200111222'
p591
I2
tp592
F7.472380191538603
s(S'0222222201'
p593
I1
tp594
I-200
s(S'1100112222'
p595
I2
tp596
F3.706794250850586
s(S'2210122222'
p597
I1
tp598
F-49.99550244411783
s(S'0011012222'
p599
I1
tp600
F6.093197070576558
s(S'1222210002'
p601
I1
tp602
F3.756845294847202
s(S'1100222222'
p603
I0
tp604
F-168.63200933539093
s(S'0222210012'
p605
I2
tp606
F1.7113304287929179
s(S'2201121111'
p607
I0
tp608
F9.121592582368134
s(S'0222100222'
p609
I2
tp610
F6.532871300324787
s(S'2222221011'
p611
I2
tp612
I-200
s(S'2222221101'
p613
I1
tp614
F-121.7908866596604
s(S'1220001222'
p615
I1
tp616
F5.072074129425893
s(S'1211022222'
p617
I2
tp618
F10.307988286760722
s(S'2200022222'
p619
I0
tp620
F9.335503782069308
s(S'2222001101'
p621
I2
tp622
F4.642206437735648
s(S'0011122222'
p623
I1
tp624
F1.525
s(S'1110001222'
p625
I1
tp626
I1
s(S'2210222211'
p627
I1
tp628
F4.507006457174436
s(S'0222222221'
p629
I2
tp630
F-160.15972138102165
s(S'2210011101'
p631
I0
tp632
I5
s(S'2100122100'
p633
I2
tp634
F3.1139619789580597
s(S'2001222221'
p635
I0
tp636
F-108.63493527340405
s(S'1122222220'
p637
I1
tp638
F-33.824999999999996
s(S'0110122221'
p639
I2
tp640
F4.390103655169541
s(S'1122222001'
p641
I0
tp642
F-7.525994961055627
s(S'1222001111'
p643
I1
tp644
F-13.662717830046406
s(S'1000022222'
p645
I1
tp646
F-1.0118139141472065
s(S'2222220021'
p647
I1
tp648
F4.673866948177577
s(S'1222211101'
p649
I2
tp650
F-0.8426676348866435
s(S'2222210110'
p651
I0
tp652
F-95.92914093750001
s(S'1110122222'
p653
I0
tp654
I-200
s(S'0010122222'
p655
I0
tp656
F10.118969125295465
s(S'2222210210'
p657
I1
tp658
F4.856627952975211
s(S'2222201121'
p659
I2
tp660
F-2.2089492687542007
s(S'2102222220'
p661
I2
tp662
F3.308754372128045
s(S'0221011221'
p663
I1
tp664
F5.8146416968379135
s(S'1101222222'
p665
I1
tp666
F-59.686471485379265
s(S'0112222210'
p667
I2
tp668
I1
s(S'2110222221'
p669
I1
tp670
F4.7993456546482145
s(S'2101222111'
p671
I1
tp672
F-0.5546874239201796
s(S'2222200111'
p673
I0
tp674
F-94.13456243726621
s(S'0222221000'
p675
I1
tp676
I1
s(S'1222222200'
p677
I2
tp678
F-76.31072819769858
s(S'2222222101'
p679
I0
tp680
F-165.02189468423984
s(S'0101222222'
p681
I0
tp682
F-97.93069174419362
s(S'1110022222'
p683
I0
tp684
F-147.65291310544472
s(S'0122222222'
p685
I2
tp686
F-18.575025968267926
s(S'2220112112'
p687
I1
tp688
F6.35802233169218
s(S'1222121101'
p689
I2
tp690
I1
s(S'0121002222'
p691
I1
tp692
F8.120286195967736
s(S'1201122222'
p693
I2
tp694
F3.8949474206657104
s(S'1122221022'
p695
I0
tp696
F7.042800396224019
s(S'0220012212'
p697
I1
tp698
F9.088024151711005
s(S'1100122222'
p699
I1
tp700
F-11.305771706819314
s(S'2222201110'
p701
I2
tp702
F4.889011483153355
s(S'2012222222'
p703
I2
tp704
F-41.44028439395957
s(S'2220000011'
p705
I1
tp706
F5.34328929150526
s(S'0002222220'
p707
I2
tp708
F-133.34814082873208
s(S'1222210112'
p709
I1
tp710
F8.666503336967246
s(S'1222001112'
p711
I2
tp712
F-2.0114309437411304
s(S'2210112210'
p713
I2
tp714
F4.9238797083115955
s(S'2200222111'
p715
I2
tp716
F4.317729497792453
s(S'2220011210'
p717
I1
tp718
F3.0903221050048466
s(S'1222220022'
p719
I2
tp720
F3.4097403113048275
s(S'0210012221'
p721
I0
tp722
F9.139849542018757
s(S'2210012110'
p723
I2
tp724
F3.279698175910137
s(S'0002222200'
p725
I2
tp726
F-1.8407080156026452
s(S'1102222220'
p727
I1
tp728
F-99.5
s(S'1100122122'
p729
I1
tp730
F-10.902895251711605
s(S'1022222200'
p731
I1
tp732
F1.35
s(S'2011222222'
p733
I0
tp734
F-103.03614252950919
s(S'2201221121'
p735
I2
tp736
I1
s(S'1100122221'
p737
I2
tp738
F5.860513951329645
s(S'2222001111'
p739
I0
tp740
F-95.00681742020228
s(S'2222222200'
p741
I0
tp742
I-200
s(S'0122001111'
p743
I0
tp744
I5
s(S'2220121111'
p745
I1
tp746
I1
s(S'0222222111'
p747
I1
tp748
F-87.02538686888602
s(S'1222222001'
p749
I1
tp750
F-135.8563846940836
s(S'1000122220'
p751
I0
tp752
F5.333792548611322
s(S'2222001120'
p753
I1
tp754
I1
s(S'2200111122'
p755
I2
tp756
F3.095582950797057
s(S'1222200220'
p757
I0
tp758
F9.258389444410673
s(S'2222012222'
p759
I1
tp760
F9.24449724085543
s(S'0022002222'
p761
I0
tp762
F5.35
s(S'0221011211'
p763
I2
tp764
I1
s(S'1222222100'
p765
I0
tp766
I-200
s(S'1001222220'
p767
I0
tp768
F-39.41748223532183
s(S'0120022222'
p769
I1
tp770
F7.2423672561999535
s(S'2222211001'
p771
I2
tp772
F-42.177132405301116
s(S'2220112122'
p773
I2
tp774
F8.662997263172947
s(S'0222220012'
p775
I1
tp776
F4.36609031896875
s(S'2200112112'
p777
I2
tp778
F4.845753662839254
s(S'1222221102'
p779
I2
tp780
F2.113758219587417
s(S'1222210022'
p781
I0
tp782
F-0.008122138220403308
s(S'2011122222'
p783
I2
tp784
F2.882300951160011
s(S'2220000111'
p785
I1
tp786
F-5.943426242974711
s(S'0122102222'
p787
I2
tp788
F6.275593742519396
s(S'0210122212'
p789
I0
tp790
I5
s(S'1222221110'
p791
I1
tp792
F-33.14241030104981
s(S'2210222222'
p793
I1
tp794
F-36.67609604811869
s(S'1121102222'
p795
I0
tp796
F10.864574421038364
s(S'0112222222'
p797
I1
tp798
F-5.508062104084328
s(S'2200012221'
p799
I2
tp800
F5.6040726676042825
s(S'1222220012'
p801
I0
tp802
F-53.23217907273583
s(S'0111122210'
p803
I2
tp804
I1
s(S'2222220112'
p805
I2
tp806
F-17.78553299953322
s(S'2210011110'
p807
I2
tp808
F4.696667249746334
s(S'1222001122'
p809
I1
tp810
F7.947514820052905
s(S'2210011122'
p811
I1
tp812
F5.063847441969072
s(S'1101222122'
p813
I0
tp814
F-5.277693294770172
s(S'0222000111'
p815
I2
tp816
I1
s(S'2222220122'
p817
I1
tp818
F4.804481173886025
s(S'2210012210'
p819
I2
tp820
F3.839276012170196
s(S'2000122100'
p821
I0
tp822
I5
s(S'1210012212'
p823
I2
tp824
F4.8751630400316275
s(S'1222200011'
p825
I0
tp826
I-200
s(S'0220112222'
p827
I2
tp828
F3.007542042006325
s(S'0110011122'
p829
I0
tp830
F9.415308480265335
s(S'2100122221'
p831
I1
tp832
F3.283831725208681
s(S'1222220122'
p833
I0
tp834
F-1.237860753780458
s(S'0122221001'
p835
I2
tp836
F-4.755439792034508
s(S'0210012222'
p837
I2
tp838
F4.08363217695265
s(S'0221002222'
p839
I0
tp840
F11.481078146832704
s(S'0022222211'
p841
I0
tp842
F-200.0
s(S'0210122221'
p843
I1
tp844
F2.474746474903916
s(S'1222222011'
p845
I2
tp846
F-166.84517217491543
s(S'1222220002'
p847
I1
tp848
F2.2072959152323333
s(S'1012222110'
p849
I0
tp850
F5.0
s(S'2201111111'
p851
I0
tp852
F8.995934062609118
s(S'1111102220'
p853
I1
tp854
F1.0
s(S'0220011112'
p855
I0
tp856
F5.35
s(S'0022221001'
p857
I2
tp858
F-6.708941378076427
s(S'1222221011'
p859
I0
tp860
I-200
s(S'2012222111'
p861
I1
tp862
F-14.427721462810563
s(S'1001222122'
p863
I2
tp864
I1
s(S'2222012200'
p865
I0
tp866
F13.780303181575022
s(S'2100222221'
p867
I2
tp868
F6.0311167126580125
s(S'1210012221'
p869
I0
tp870
I5
s(S'2222210112'
p871
I0
tp872
I5
s(S'1222222210'
p873
I0
tp874
F-137.34559308208907
s(S'1012221010'
p875
I1
tp876
I1
s(S'2200121111'
p877
I0
tp878
F8.852283637664513
s(S'2210012221'
p879
I2
tp880
F5.89204496875819
s(S'2011112222'
p881
I0
tp882
F-25.26563413346519
s(S'2221011112'
p883
I1
tp884
F5.628855849133698
s(S'0011122220'
p885
I2
tp886
F1.457953125
s(S'2220001211'
p887
I2
tp888
F2.3010288746987655
s(S'0022220122'
p889
I0
tp890
I5
s(S'0222222101'
p891
I1
tp892
I-200
s(S'1102222221'
p893
I2
tp894
F-145.22692385181495
s(S'2222001221'
p895
I0
tp896
F10.241947351764166
s(S'1011122222'
p897
I0
tp898
F-101.25487602488194
s(S'2200122212'
p899
I2
tp900
F6.03462217164438
s(S'2220001111'
p901
I2
tp902
F-2.1154846219074637
s(S'0002222221'
p903
I2
tp904
F-35.90268202626043
s(S'0222221002'
p905
I1
tp906
F1.2948458521856678
s(S'2012221221'
p907
I0
tp908
F5.0
s(S'0222222000'
p909
I0
tp910
I-200
s(S'0222220022'
p911
I0
tp912
F-7.2688532755168005
s(S'2222102222'
p913
I0
tp914
F9.386456446476314
s(S'2221110022'
p915
I2
tp916
F3.5400993432433663
s(S'0222001122'
p917
I0
tp918
F10.934819721032099
s(S'1222222221'
p919
I1
tp920
F-177.53024343705056
s(S'2210011210'
p921
I0
tp922
F8.676290089776963
s(S'1012222221'
p923
I1
tp924
F-34.35407743896018
s(S'0221001222'
p925
I1
tp926
F4.890056582604286
s(S'2210000122'
p927
I2
tp928
I1
s(S'2222210222'
p929
I2
tp930
F3.826560308086293
s(S'2222220001'
p931
I1
tp932
F-10.770830648988378
s(S'0012222222'
p933
I0
tp934
F-112.8163873531734
s(S'2222011110'
p935
I1
tp936
F4.860994831533554
s(S'1200022222'
p937
I1
tp938
F-0.683196074625289
s(S'1002222222'
p939
I0
tp940
F-148.75
s(S'2101222100'
p941
I0
tp942
I5
s(S'2220011122'
p943
I2
tp944
F-96.73070647411672
s(S'1100222211'
p945
I0
tp946
F-6.516071740049423
s(S'0011222222'
p947
I1
tp948
F-149.56625
s(S'1221100222'
p949
I1
tp950
F5.0276191230747
s(S'1001112222'
p951
I2
tp952
I1
s(S'2110122222'
p953
I0
tp954
F-10.25167161585617
s(S'0222221011'
p955
I1
tp956
F4.334713159165274
s(S'1121002222'
p957
I2
tp958
F5.9526692259192835
s(S'1201222212'
p959
I2
tp960
I1
s(S'2222210021'
p961
I2
tp962
F-0.044122380096825786
s(S'1100222220'
p963
I1
tp964
F2.399640374422468
s(S'1000012210'
p965
I1
tp966
I1
s(S'2001111110'
p967
I2
tp968
F1.9865761718750001
s(S'2011212222'
p969
I0
tp970
F-27.20379136462263
s(S'1122100122'
p971
I1
tp972
F8.009010907208404
s(S'2221001011'
p973
I2
tp974
F1.0
s(S'1221000222'
p975
I1
tp976
F6.978572460210179
s(S'2222210002'
p977
I0
tp978
F-3.942823907164307
s(S'0022222011'
p979
I1
tp980
I1
s(S'2220111011'
p981
I1
tp982
I1
s(S'1000122222'
p983
I0
tp984
F3.278460618861346
s(S'2201222222'
p985
I2
tp986
F5.159577461265911
s(S'2001122222'
p987
I0
tp988
F-36.17419544279538
s(S'1222200022'
p989
I0
tp990
F8.254195611894716
s(S'1222001111'
p991
I2
tp992
F-99.5
s(S'2222001122'
p993
I1
tp994
F8.614435507368809
s(S'1022201111'
p995
I1
tp996
I1
s(S'0222222211'
p997
I2
tp998
F-116.84095234375
s(S'1012222222'
p999
I2
tp1000
F-10.928085604401938
s(S'1001222222'
p1001
I0
tp1002
F-174.28063630160483
s(S'2200111112'
p1003
I2
tp1004
F6.275998741192938
s(S'1200012222'
p1005
I1
tp1006
F5.148331623823869
s(S'2102222222'
p1007
I1
tp1008
F-11.147143903851415
s(S'2222220002'
p1009
I2
tp1010
F-54.50363638227642
s(S'1101222220'
p1011
I0
tp1012
F4.12608451491891
s(S'1221111002'
p1013
I0
tp1014
I5
s(S'1012212221'
p1015
I0
tp1016
F5.0
s(S'2210122112'
p1017
I1
tp1018
F5.695481102635563
s(S'2201121222'
p1019
I2
tp1020
F4.909435985508753
s(S'2221000221'
p1021
I1
tp1022
F3.9864294320320357
s(S'0012222101'
p1023
I1
tp1024
I1
s(S'0112222220'
p1025
I1
tp1026
F-47.5
s(S'2200112122'
p1027
I2
tp1028
I1
s(S'1102222200'
p1029
I1
tp1030
I1
s(S'2102222210'
p1031
I2
tp1032
F2.774141846356155
s(S'2222221002'
p1033
I2
tp1034
F-44.428795973788155
s(S'0220122212'
p1035
I0
tp1036
F8.022523872953869
s(S'1222200111'
p1037
I0
tp1038
F10.019888325473856
s(S'0011102222'
p1039
I0
tp1040
I5
s(S'2222222012'
p1041
I1
tp1042
F3.39635354312541
s(S'1022222222'
p1043
I0
tp1044
F-160.89038087235724
s(S'2001111111'
p1045
I1
tp1046
F3.2726757812500002
s(S'1222111102'
p1047
I1
tp1048
F3.7502307209138297
s(S'0122011222'
p1049
I1
tp1050
F2.2260653671875
s(S'2222211001'
p1051
I1
tp1052
F-6.5840909051897984
s(S'2100122212'
p1053
I1
tp1054
F2.079763002699348
s(S'1012222211'
p1055
I0
tp1056
I-200
s(S'0111022222'
p1057
I1
tp1058
F-96.94297019121903
s(S'2220001110'
p1059
I1
tp1060
F3.61567409553784
s(S'1221221002'
p1061
I1
tp1062
I1
s(S'2222201100'
p1063
I2
tp1064
F4.261635067042299
s(S'2222110022'
p1065
I2
tp1066
F3.6373623344509527
s(S'2200122220'
p1067
I2
tp1068
F7.19877316587392
s(S'1120002222'
p1069
I0
tp1070
F8.41355638099229
s(S'1012222111'
p1071
I1
tp1072
F1.5986093749999999
s(S'2100111011'
p1073
I1
tp1074
I1
s(S'2220001112'
p1075
I1
tp1076
I1
s(S'0210022222'
p1077
I2
tp1078
F8.254855432963751
s(S'2222220012'
p1079
I2
tp1080
F-3.2198467773437502
s(S'2210112110'
p1081
I1
tp1082
F1.525
s(S'1222222220'
p1083
I2
tp1084
F-161.61475514154927
s(S'2102222221'
p1085
I2
tp1086
F-59.15058799990099
s(S'0210012212'
p1087
I2
tp1088
F5.0097274913377
s(S'2222222222'
p1089
I2
tp1090
I1
s(S'2000222222'
p1091
I2
tp1092
F-32.77665884150719
s(S'1102222211'
p1093
I0
tp1094
F-26.488600032537597
s(S'1210122212'
p1095
I2
tp1096
F3.7050934459403764
s(S'0110022222'
p1097
I0
tp1098
F6.244094915076386
s(S'1222222221'
p1099
I2
tp1100
F-171.27472770636547
s(S'1210022221'
p1101
I1
tp1102
F4.26426839012695
s(S'2210022221'
p1103
I1
tp1104
F1.9301491282661742
s(S'2220011111'
p1105
I0
tp1106
F-5.338732254652285
s(S'2101222122'
p1107
I2
tp1108
F3.9365374877758113
s(S'1211110222'
p1109
I0
tp1110
I5
s(S'2101222222'
p1111
I1
tp1112
F-9.649288179251663
s(S'1210222211'
p1113
I0
tp1114
F-7.085616598448883
s(S'2222000112'
p1115
I1
tp1116
F6.187927815466145
s(S'1221111022'
p1117
I2
tp1118
F3.179593713507078
s(S'2222002210'
p1119
I0
tp1120
F10.314754856542763
s(S'2201111222'
p1121
I2
tp1122
F4.981273280525652
s(S'1011221010'
p1123
I2
tp1124
I1
s(S'2222001210'
p1125
I1
tp1126
I1
s(S'0222211102'
p1127
I1
tp1128
I1
s(S'0221011112'
p1129
I2
tp1130
F5.078721469335046
s(S'2222201111'
p1131
I2
tp1132
F-99.5951329347691
s(S'1222222102'
p1133
I1
tp1134
I1
s(S'1002222200'
p1135
I2
tp1136
I1
s(S'1101112222'
p1137
I1
tp1138
F-46.872457028714706
s(S'2000022221'
p1139
I0
tp1140
I5
s(S'2200011210'
p1141
I0
tp1142
F8.027794041499039
s(S'2221002222'
p1143
I0
tp1144
F8.630917326506015
s(S'2222100222'
p1145
I2
tp1146
F4.058515993307653
s(S'2222110220'
p1147
I1
tp1148
F1.6161703219693648
s(S'2222211101'
p1149
I0
tp1150
F-97.5
s(S'1121102220'
p1151
I1
tp1152
I1
s(S'2011221221'
p1153
I0
tp1154
F-4.523357881758942
s(S'2101112222'
p1155
I2
tp1156
F4.095972540981844
s(S'2000101221'
p1157
I0
tp1158
I5
s(S'0122101111'
p1159
I0
tp1160
F5.0
s(S'2100111222'
p1161
I1
tp1162
F-34.85585219964881
s(S'1111012222'
p1163
I1
tp1164
F-15.422582608093188
s(S'0221011222'
p1165
I1
tp1166
I1
s(S'0012222220'
p1167
I0
tp1168
I-200
s(S'2222011112'
p1169
I1
tp1170
F7.208168257170637
s(S'1002222220'
p1171
I0
tp1172
I-200
s(S'1222102222'
p1173
I1
tp1174
F8.709452682046676
s(S'1122101222'
p1175
I1
tp1176
F5.250257779318609
s(S'0112222221'
p1177
I2
tp1178
F-3.433404354507557
s(S'2101111111'
p1179
I2
tp1180
F6.847233158447337
s(S'0000122210'
p1181
I1
tp1182
I1
s(S'2102222211'
p1183
I1
tp1184
F-15.330553739951638
s(S'1012221221'
p1185
I2
tp1186
I1
s(S'0122220022'
p1187
I1
tp1188
F1.961498646341413
s(S'0222222201'
p1189
I0
tp1190
I-200
s(S'2210122222'
p1191
I2
tp1192
F7.999298439977993
s(S'0222222210'
p1193
I2
tp1194
F-15.44112305937293
s(S'2210111112'
p1195
I0
tp1196
F9.833000737118638
s(S'1100222222'
p1197
I1
tp1198
F-123.91970928974308
s(S'2221111022'
p1199
I1
tp1200
F3.8308713564462926
s(S'2220112111'
p1201
I1
tp1202
F4.549056975550943
s(S'1222011112'
p1203
I0
tp1204
F-0.26809413300122387
s(S'1222000022'
p1205
I1
tp1206
F4.278985329418046
s(S'2220102222'
p1207
I1
tp1208
F6.614365960473184
s(S'1200112222'
p1209
I1
tp1210
F3.6974818103374947
s(S'1000222221'
p1211
I0
tp1212
F-19.946326727062015
s(S'2001222221'
p1213
I1
tp1214
F-53.855842156814695
s(S'1222210222'
p1215
I0
tp1216
F8.710037199188285
s(S'1022222210'
p1217
I2
tp1218
I-200
s(S'1222210111'
p1219
I1
tp1220
F9.014604483240078
s(S'1222001111'
p1221
I0
tp1222
I-200
s(S'2222210011'
p1223
I2
tp1224
F-98.37683215167492
s(S'1222222012'
p1225
I1
tp1226
F-10.001351209412569
s(S'0221012212'
p1227
I2
tp1228
I1
s(S'0222001111'
p1229
I2
tp1230
F-34.42897288006897
s(S'1110122222'
p1231
I1
tp1232
F2.844346667205539
s(S'2102222220'
p1233
I1
tp1234
F-27.169665784015514
s(S'0101122222'
p1235
I2
tp1236
I1
s(S'1101222222'
p1237
I0
tp1238
F-189.60472000299828
s(S'1101222212'
p1239
I0
tp1240
I5
s(S'1111012222'
p1241
I2
tp1242
F8.293237254825213
s(S'1100122222'
p1243
I2
tp1244
F4.078831274958004
s(S'2222210121'
p1245
I2
tp1246
F-4.465303580837168
s(S'2220000122'
p1247
I0
tp1248
F-3.526316859628542
s(S'2101222221'
p1249
I0
tp1250
F-38.61875
s(S'1222011222'
p1251
I2
tp1252
F6.651714667691753
s(S'2101222111'
p1253
I0
tp1254
F-0.28279732786855316
s(S'2212222002'
p1255
I0
tp1256
I5
s(S'0022221011'
p1257
I1
tp1258
F2.7701853070062983
s(S'0221012222'
p1259
I0
tp1260
F14.37872426247817
s(S'2222200010'
p1261
I0
tp1262
I-200
s(S'0101222222'
p1263
I1
tp1264
F-8.456392887118227
s(S'0022200222'
p1265
I2
tp1266
F5.401173026254606
s(S'1222111002'
p1267
I2
tp1268
F3.556796725112676
s(S'1110002222'
p1269
I2
tp1270
F1.0
s(S'2210112222'
p1271
I0
tp1272
F7.988386214616741
s(S'1101221222'
p1273
I0
tp1274
F-27.80581400372452
s(S'1200122211'
p1275
I0
tp1276
F6.954366507461954
s(S'0110012212'
p1277
I1
tp1278
I1
s(S'2101222212'
p1279
I1
tp1280
F-3.602087985919656
s(S'2222201110'
p1281
I1
tp1282
I1
s(S'1220111122'
p1283
I0
tp1284
F7.818429474497535
s(S'2222101120'
p1285
I2
tp1286
I1
s(S'2012222222'
p1287
I1
tp1288
F-47.35554889875658
s(S'0111222221'
p1289
I1
tp1290
F1.519415468853811
s(S'2200122122'
p1291
I2
tp1292
F6.390126650494192
s(S'2222012210'
p1293
I2
tp1294
F6.239109103126179
s(S'0022220112'
p1295
I1
tp1296
F2.850849720286175
s(S'0122222012'
p1297
I0
tp1298
F-0.7742585772395829
s(S'2210112112'
p1299
I1
tp1300
F3.9140037893713107
s(S'1201222122'
p1301
I2
tp1302
I1
s(S'1102222220'
p1303
I2
tp1304
F-4.163940601343587
s(S'2001111010'
p1305
I0
tp1306
I5
s(S'2011222222'
p1307
I1
tp1308
F-36.6029794809327
s(S'2222001111'
p1309
I1
tp1310
F3.8136235046006473
s(S'1111022222'
p1311
I0
tp1312
F-94.0068152178943
s(S'1210012211'
p1313
I0
tp1314
F9.551831541210998
s(S'1221222102'
p1315
I1
tp1316
I1
s(S'2222222200'
p1317
I1
tp1318
F-142.52515314760285
s(S'1012222200'
p1319
I0
tp1320
F-97.5
s(S'1222222001'
p1321
I2
tp1322
F-165.2433984375
s(S'2222000110'
p1323
I1
tp1324
F4.046337940679039
s(S'0012221012'
p1325
I0
tp1326
F5.164573560436635
s(S'1122210122'
p1327
I1
tp1328
F7.405547628344776
s(S'1222222100'
p1329
I1
tp1330
F-39.274231103945866
s(S'1001222220'
p1331
I1
tp1332
F-36.477236397711465
s(S'1111002222'
p1333
I2
tp1334
F5.7751298607858494
s(S'0222220012'
p1335
I0
tp1336
F-10.356439914412089
s(S'0022222012'
p1337
I2
tp1338
I1
s(S'0220011211'
p1339
I2
tp1340
I1
s(S'2220000111'
p1341
I0
tp1342
F-96.5085199719139
s(S'0011101222'
p1343
I0
tp1344
F8.042838901288691
s(S'1222221011'
p1345
I1
tp1346
F-8.300252669011002
s(S'1222222210'
p1347
I1
tp1348
F-119.15284758476035
s(S'1222220012'
p1349
I1
tp1350
F4.638870351966174
s(S'1110222221'
p1351
I1
tp1352
F-0.12995270445286788
s(S'1122220022'
p1353
I0
tp1354
F7.2362379366495855
s(S'2122220122'
p1355
I1
tp1356
F2.6063885035748964
s(S'2101222220'
p1357
I1
tp1358
F-18.098567307450804
s(S'0122221100'
p1359
I0
tp1360
I5
s(S'2221002101'
p1361
I2
tp1362
I1
s(S'0012222200'
p1363
I1
tp1364
F-57.95482534664876
s(S'2210122111'
p1365
I2
tp1366
F8.145929231894026
s(S'1222111102'
p1367
I0
tp1368
F-29.563863946643657
s(S'1222000012'
p1369
I1
tp1370
F5.423034646922382
s(S'1222220122'
p1371
I1
tp1372
F4.273151952170045
s(S'2211211022'
p1373
I0
tp1374
F7.108386519287439
s(S'1222100122'
p1375
I0
tp1376
F11.12325494916428
s(S'0122221001'
p1377
I1
tp1378
F-0.9641714932645584
s(S'1022222211'
p1379
I2
tp1380
F-186.72158109483826
s(S'1210012112'
p1381
I2
tp1382
I1
s(S'2101122222'
p1383
I2
tp1384
F3.7209875800081784
s(S'2220010111'
p1385
I2
tp1386
I-200
s(S'0022222211'
p1387
I1
tp1388
I-200
s(S'2222222100'
p1389
I2
tp1390
F-26.519536773588868
s(S'1110022221'
p1391
I2
tp1392
F6.128261858749738
s(S'0122220001'
p1393
I1
tp1394
F0.7063393203822336
s(S'1221001111'
p1395
I0
tp1396
I5
s(S'1222220002'
p1397
I0
tp1398
F-10.355354300576169
s(S'1222222222'
p1399
I1
tp1400
F-111.55369894057449
s(S'2222200011'
p1401
I2
tp1402
F-114.11503789237682
s(S'0222220122'
p1403
I1
tp1404
F4.998375568739611
s(S'2012222111'
p1405
I2
tp1406
F-3.1448653934053565
s(S'2212222012'
p1407
I2
tp1408
F-16.66529056838031
s(S'2200222210'
p1409
I1
tp1410
F3.5849487385042464
s(S'2210122211'
p1411
I1
tp1412
F5.5165699565886355
s(S'2002222222'
p1413
I2
tp1414
F-40.88957949231338
s(S'2201121121'
p1415
I0
tp1416
I5
s(S'2000222220'
p1417
I0
tp1418
I5
s(S'2210112211'
p1419
I0
tp1420
F7.542591641671066
s(S'1222001012'
p1421
I1
tp1422
F6.178956746771897
s(S'1111110222'
p1423
I1
tp1424
F6.561651794417209
s(S'0011222221'
p1425
I1
tp1426
F-14.513516841391942
s(S'2011112222'
p1427
I1
tp1428
F-24.617976442060467
s(S'2122221022'
p1429
I0
tp1430
F7.5475105117060455
s(S'2122210221'
p1431
I2
tp1432
I1
s(S'2220122122'
p1433
I2
tp1434
F9.051738357506597
s(S'0222222110'
p1435
I0
tp1436
F-200.0
s(S'1102222221'
p1437
I1
tp1438
F-103.05347500422796
s(S'0100222222'
p1439
I1
tp1440
F-104.25430055688672
s(S'2210010111'
p1441
I0
tp1442
I5
s(S'1011122222'
p1443
I1
tp1444
F-27.398086843817946
s(S'2222210012'
p1445
I2
tp1446
F2.128347714738185
s(S'1122110222'
p1447
I0
tp1448
I5
s(S'1210112122'
p1449
I1
tp1450
F4.449926582123761
s(S'1100022222'
p1451
I2
tp1452
F4.270233062590898
s(S'0100122222'
p1453
I1
tp1454
F-99.96743745902381
s(S'0222221002'
p1455
I0
tp1456
F-10.01620681624396
s(S'0222222000'
p1457
I1
tp1458
F-41.445182883602754
s(S'2220012111'
p1459
I0
tp1460
F12.477266799712758
s(S'2100122222'
p1461
I2
tp1462
I1
s(S'0011110122'
p1463
I0
tp1464
F6.961725662636907
s(S'2222000111'
p1465
I2
tp1466
F-99.03159062499999
s(S'2222101222'
p1467
I0
tp1468
F-94.19351864900155
s(S'1122210222'
p1469
I1
tp1470
F2.4641103108566087
s(S'2222211011'
p1471
I0
tp1472
F-49.42087244130933
s(S'2012222211'
p1473
I2
tp1474
F-0.7657585187588258
s(S'0121011112'
p1475
I2
tp1476
I1
s(S'1012222221'
p1477
I0
tp1478
F-174.375
s(S'1222222101'
p1479
I2
tp1480
F-53.516890609287
s(S'1211111022'
p1481
I0
tp1482
I5
s(S'2222220001'
p1483
I0
tp1484
I-200
s(S'2222221021'
p1485
I0
tp1486
F-96.26019034864291
s(S'1112222210'
p1487
I0
tp1488
F-97.5
s(S'0122222201'
p1489
I2
tp1490
F-200.0
s(S'1100222211'
p1491
I1
tp1492
F-3.5518390576617107
s(S'2220012221'
p1493
I1
tp1494
F4.786826229629424
s(S'0011222222'
p1495
I2
tp1496
F-64.44248345338374
s(S'1220122212'
p1497
I0
tp1498
F10.716987954774957
s(S'0222221011'
p1499
I0
tp1500
I-200
s(S'2220122212'
p1501
I0
tp1502
F9.201700590832456
s(S'2222200222'
p1503
I0
tp1504
F7.79687244876891
s(S'1112222220'
p1505
I1
tp1506
I-200
s(S'0000222210'
p1507
I2
tp1508
I1
s(S'1111100222'
p1509
I1
tp1510
F-99.325
s(S'1012201112'
p1511
I0
tp1512
I5
s(S'2222200121'
p1513
I2
tp1514
F5.23991702779619
s(S'2222222002'
p1515
I0
tp1516
F-4.248915438302664
s(S'1221011211'
p1517
I0
tp1518
I5
s(S'0220122222'
p1519
I2
tp1520
F5.178589202313845
s(S'2001112221'
p1521
I0
tp1522
F5.933767612336377
s(S'2001122222'
p1523
I1
tp1524
F-28.63528634593115
s(S'2222110021'
p1525
I0
tp1526
F8.40064612041732
s(S'2222111022'
p1527
I2
tp1528
F0.4086472916302015
s(S'1122102222'
p1529
I0
tp1530
F8.586811117713665
s(S'2222002221'
p1531
I0
tp1532
F9.331986405295863
s(S'1210112212'
p1533
I0
tp1534
F7.9634174585457504
s(S'1220112112'
p1535
I0
tp1536
I5
s(S'2222012220'
p1537
I0
tp1538
F13.823465538777576
s(S'0022222210'
p1539
I2
tp1540
F-62.57116276879001
s(S'2222001200'
p1541
I1
tp1542
F4.691502775070719
s(S'1001222222'
p1543
I1
tp1544
I-200
s(S'0122012221'
p1545
I2
tp1546
F3.7564964025747196
s(S'0122110122'
p1547
I0
tp1548
F10.081494007001403
s(S'1012222111'
p1549
I2
tp1550
F-1.4600003376617199
s(S'2222221010'
p1551
I0
tp1552
I5
s(S'1000022221'
p1553
I1
tp1554
I1
s(S'2012212222'
p1555
I2
tp1556
I1
s(S'1210122211'
p1557
I0
tp1558
F9.554110231118095
s(S'1012212221'
p1559
I1
tp1560
F-4.3488703120621235
s(S'2201111121'
p1561
I1
tp1562
F3.0999999999999996
s(S'0222222220'
p1563
I0
tp1564
F-31.541561851877965
s(S'2222220120'
p1565
I2
tp1566
I1
s(S'1122222012'
p1567
I1
tp1568
F2.48134757047103
s(S'2001222222'
p1569
I2
tp1570
F3.5214309046712664
s(S'0112222220'
p1571
I2
tp1572
F-2.1684997808496695
s(S'2210022222'
p1573
I1
tp1574
F-35.172448031331214
s(S'2102222222'
p1575
I0
tp1576
F-52.47120550945522
s(S'2201222122'
p1577
I0
tp1578
F8.92178266699873
s(S'1222211100'
p1579
I0
tp1580
F-18.225965631450862
s(S'2222210111'
p1581
I2
tp1582
F-21.3219261977274
s(S'1110122221'
p1583
I2
tp1584
F5.430080116850405
s(S'1001221222'
p1585
I0
tp1586
F-41.14705190587692
s(S'2101222221'
p1587
I1
tp1588
F-42.9445926450692
s(S'2222220120'
p1589
I0
tp1590
F-29.26986113598697
s(S'1011212222'
p1591
I1
tp1592
I1
s(S'1100112122'
p1593
I0
tp1594
I5
s(S'2222222012'
p1595
I0
tp1596
F-2.836519160051758
s(S'2000222222'
p1597
I1
tp1598
F-9.61448494719529
s(S'2012222211'
p1599
I1
tp1600
I1
s(S'2201111221'
p1601
I0
tp1602
F6.420025650203189
s(S'2221001111'
p1603
I0
tp1604
F7.998264968919402
s(S'0222222100'
p1605
I1
tp1606
F-159.15396886344084
s(S'2101222210'
p1607
I0
tp1608
F-35.39462293283876
s(S'0022222222'
p1609
I0
tp1610
F-180.41909571501427
s(S'2222211001'
p1611
I0
tp1612
I-200
s(S'0022222111'
p1613
I1
tp1614
I1
s(S'1012222211'
p1615
I1
tp1616
F-52.331520815547165
s(S'0111022222'
p1617
I0
tp1618
F12.058812706147446
s(S'2220122111'
p1619
I2
tp1620
F6.676231023316706
s(S'1211100222'
p1621
I2
tp1622
I1
s(S'0210022222'
p1623
I1
tp1624
F-31.135358554846967
s(S'1222222201'
p1625
I0
tp1626
F-44.51722011552927
s(S'2100122112'
p1627
I0
tp1628
F6.1362431988399635
s(S'1110222212'
p1629
I0
tp1630
I5
s(S'0100122222'
p1631
I0
tp1632
F-9.100733601250887
s(S'0111101222'
p1633
I2
tp1634
F6.129671662179798
s(S'0110022222'
p1635
I1
tp1636
I-200
s(S'2220022222'
p1637
I2
tp1638
F9.959494880037168
s(S'1200222222'
p1639
I2
tp1640
F5.542053216021511
s(S'1121101222'
p1641
I2
tp1642
F6.020639140157456
s(S'2222011111'
p1643
I1
tp1644
F4.249799954015756
s(S'2000222222'
p1645
I0
tp1646
F-8.309933813534988
s(S'0022001122'
p1647
I2
tp1648
I1
s(S'0210112212'
p1649
I1
tp1650
I1
s(S'0012110122'
p1651
I2
tp1652
F4.6430514926806765
s(S'2222200022'
p1653
I1
tp1654
F3.7285629431759215
s(S'1200121222'
p1655
I0
tp1656
F7.086094054081343
s(S'2101222222'
p1657
I2
tp1658
F6.623460076577856
s(S'2201122111'
p1659
I2
tp1660
F4.7811436264459015
s(S'2222001201'
p1661
I0
tp1662
I5
s(S'2210122221'
p1663
I0
tp1664
F9.77111539475365
s(S'1100222221'
p1665
I1
tp1666
F-25.423587383198686
s(S'2220012211'
p1667
I1
tp1668
F4.511765342758396
s(S'2011222221'
p1669
I2
tp1670
I1
s(S'2222101121'
p1671
I2
tp1672
F7.433756066754476
s(S'1101112222'
p1673
I0
tp1674
F-30.42407349968831
s(S'0122222001'
p1675
I0
tp1676
F-15.367404162943966
s(S'0222001222'
p1677
I1
tp1678
I1
s(S'2221210021'
p1679
I0
tp1680
F7.140186316623762
s(S'2001212222'
p1681
I1
tp1682
F-2.7609755448648383
s(S'0122222200'
p1683
I2
tp1684
I-200
s(S'0122221110'
p1685
I2
tp1686
I1
s(S'0222222002'
p1687
I1
tp1688
F1.2390639387337492
s(S'1100122220'
p1689
I2
tp1690
F5.047051400997441
s(S'1101222211'
p1691
I2
tp1692
F-2.1004724645167583
s(S'0012221100'
p1693
I1
tp1694
I1
s(S'2222211101'
p1695
I1
tp1696
F1.77651769538841
s(S'2222211022'
p1697
I0
tp1698
F-7.212589570470653
s(S'1222222011'
p1699
I1
tp1700
F-29.002416203147295
s(S'0121022222'
p1701
I1
tp1702
F7.770703663750295
s(S'0001122220'
p1703
I0
tp1704
I5
s(S'0222001112'
p1705
I0
tp1706
F7.693102651335696
s(S'0002222210'
p1707
I1
tp1708
F-19.372179649406633
s(S'1012222210'
p1709
I0
tp1710
I-200
s(S'2212210022'
p1711
I0
tp1712
F9.464955962967089
s(S'1110112222'
p1713
I2
tp1714
F3.1157257141750994
s(S'1222220002'
p1715
I2
tp1716
F-24.926092559124044
s(S'2100001221'
p1717
I2
tp1718
I1
s(S'2200111101'
p1719
I1
tp1720
F1.0
s(S'2222011112'
p1721
I2
tp1722
F2.7930647975033374
s(S'2200122110'
p1723
I1
tp1724
F1.175
s(S'1011222222'
p1725
I2
tp1726
F-29.669735376282187
s(S'2201101111'
p1727
I0
tp1728
I5
s(S'1222221012'
p1729
I2
tp1730
F1.032473482519372
s(S'0112222221'
p1731
I1
tp1732
F-33.681904687499994
s(S'1222220011'
p1733
I2
tp1734
F-36.80913924469904
s(S'2102222211'
p1735
I0
tp1736
F-36.62670708664952
s(S'2222222102'
p1737
I1
tp1738
F-3.892888207281583
s(S'1100112222'
p1739
I0
tp1740
F-28.18973646432856
s(S'2201222112'
p1741
I2
tp1742
F3.412663233729031
s(S'1100222222'
p1743
I2
tp1744
F4.130441981603316
s(S'2212221022'
p1745
I1
tp1746
F3.8124214277082262
s(S'2221111022'
p1747
I2
tp1748
F-1.2595846877453214
s(S'0210222222'
p1749
I2
tp1750
I1
s(S'2222222110'
p1751
I2
tp1752
F-99.5
s(S'0122011211'
p1753
I2
tp1754
I1
s(S'1022222221'
p1755
I2
tp1756
F-126.73600830351762
s(S'2112110122'
p1757
I0
tp1758
I5
s(S'0022221001'
p1759
I1
tp1760
F2.5514924333749915
s(S'2011111221'
p1761
I2
tp1762
F2.316875
s(S'0122100122'
p1763
I2
tp1764
F5.492177309729102
s(S'1200112222'
p1765
I0
tp1766
F-1.0774653590729688
s(S'1000122210'
p1767
I2
tp1768
F4.274507139765209
s(S'1000222221'
p1769
I1
tp1770
F-39.495910272098854
s(S'2200222212'
p1771
I0
tp1772
F8.894754803553806
s(S'0222221110'
p1773
I0
tp1774
F-11.407000651762095
s(S'1122222001'
p1775
I2
tp1776
F1.35
s(S'1222210111'
p1777
I0
tp1778
F-1.7227279505028008
s(S'1222222012'
p1779
I2
tp1780
F-6.425642418743967
s(S'2222210110'
p1781
I2
tp1782
F3.705688957732916
s(S'2002222200'
p1783
I1
tp1784
F2.56625
s(S'2222201121'
p1785
I0
tp1786
F9.368335170200018
s(S'2200011110'
p1787
I2
tp1788
F4.539101893267631
s(S'2102222220'
p1789
I0
tp1790
F-19.347016878203988
s(S'2222221012'
p1791
I0
tp1792
F-97.5
s(S'2200011222'
p1793
I2
tp1794
F5.5591845643245446
s(S'1222201220'
p1795
I0
tp1796
I5
s(S'0222222222'
p1797
I0
tp1798
F-148.75
s(S'0120012211'
p1799
I2
tp1800
I1
s(S'2222100111'
p1801
I1
tp1802
F-14.021834423548697
s(S'2222012201'
p1803
I2
tp1804
F6.3972094992834805
s(S'1210012222'
p1805
I2
tp1806
F1.9563578802759165
s(S'2222200111'
p1807
I2
tp1808
F-161.8400556466037
s(S'1222211102'
p1809
I0
tp1810
F-4.292482629901336
s(S'2222222101'
p1811
I2
tp1812
I-200
s(S'2002222111'
p1813
I1
tp1814
F1.7690265625
s(S'2221011221'
p1815
I1
tp1816
F4.8968132915272955
s(S'2000112222'
p1817
I0
tp1818
F7.991338647680281
s(S'2222101220'
p1819
I1
tp1820
F8.38026304225919
s(S'2222101110'
p1821
I0
tp1822
F11.742242672853813
s(S'2220111222'
p1823
I2
tp1824
F7.540830878170085
s(S'1222100022'
p1825
I1
tp1826
F3.87152183469556
s(S'1101221222'
p1827
I1
tp1828
I1
s(S'0122200012'
p1829
I2
tp1830
F1.35
s(S'2222221021'
p1831
I1
tp1832
F4.140327708223598
s(S'2101222212'
p1833
I0
tp1834
F7.17304444119239
s(S'1111110022'
p1835
I2
tp1836
F1.175
s(S'2222201110'
p1837
I0
tp1838
F-94.50849698142441
s(S'1011112221'
p1839
I2
tp1840
F2.28625
s(S'2012222222'
p1841
I0
tp1842
F-40.07311338222662
s(S'1210222221'
p1843
I1
tp1844
F-11.727606605852454
s(S'1220122122'
p1845
I1
tp1846
F4.936013739606585
s(S'2221221012'
p1847
I0
tp1848
F5.820238274377403
s(S'2000022222'
p1849
I2
tp1850
I1
s(S'0002222220'
p1851
I0
tp1852
F-148.75
s(S'0222011112'
p1853
I1
tp1854
F6.324495046073324
s(S'2200102222'
p1855
I2
tp1856
F6.046300525355431
s(S'2011111211'
p1857
I2
tp1858
F1.0
s(S'0122222221'
p1859
I0
tp1860
F-200.0
s(S'0111100122'
p1861
I2
tp1862
F4.057166272431097
s(S'0122222012'
p1863
I1
tp1864
F3.849803330697364
s(S'2100122122'
p1865
I1
tp1866
F-14.87915213780887
s(S'2221100022'
p1867
I0
tp1868
I5
s(S'2001111211'
p1869
I1
tp1870
I1
s(S'1210122112'
p1871
I1
tp1872
F1.0
s(S'1110222222'
p1873
I1
tp1874
F-188.83092052866525
s(S'2220122210'
p1875
I1
tp1876
F5.193029280257642
s(S'0221001221'
p1877
I1
tp1878
F4.368793133668022
s(S'2222100111'
p1879
I2
tp1880
F8.230356734420639
s(S'0222100122'
p1881
I2
tp1882
F5.7636076018137175
s(S'1100122221'
p1883
I0
tp1884
F-0.616922547636543
s(S'2000012211'
p1885
I1
tp1886
I1
s(S'1111022222'
p1887
I1
tp1888
F-98.66565254592679
s(S'1222210121'
p1889
I0
tp1890
F8.642340659021418
s(S'2221022221'
p1891
I0
tp1892
F11.045938699088186
s(S'1100222212'
p1893
I2
tp1894
F1.0
s(S'0122221111'
p1895
I2
tp1896
I1
s(S'1100002222'
p1897
I1
tp1898
I-200
s(S'0021022222'
p1899
I0
tp1900
F9.212013803158612
s(S'0112100122'
p1901
I2
tp1902
F3.5765348324562
s(S'2200001111'
p1903
I1
tp1904
F6.185323115179864
s(S'1001121222'
p1905
I2
tp1906
I1
s(S'1220000222'
p1907
I0
tp1908
F8.566077473385398
s(S'0222200222'
p1909
I1
tp1910
F6.4504067878585944
s(S'0222201121'
p1911
I0
tp1912
F7.627883936095749
s(S'0022222200'
p1913
I2
tp1914
I-200
s(S'1222222100'
p1915
I2
tp1916
I-200
s(S'1210222222'
p1917
I2
tp1918
F6.405369090470192
s(S'1222011111'
p1919
I2
tp1920
I1
s(S'0022222012'
p1921
I1
tp1922
F3.5518364876947457
s(S'1210011112'
p1923
I1
tp1924
F2.7796074675882485
s(S'1221011122'
p1925
I0
tp1926
F12.298565739306284
s(S'1122222200'
p1927
I0
tp1928
I-200
s(S'1101222211'
p1929
I1
tp1930
F-12.627209079147065
s(S'2001222220'
p1931
I1
tp1932
F-33.3719744502832
s(S'2200012210'
p1933
I1
tp1934
F3.7857922551961405
s(S'1222222210'
p1935
I2
tp1936
F-75.49611237188813
s(S'0122012222'
p1937
I0
tp1938
F9.838370986732535
s(S'2200012222'
p1939
I0
tp1940
F9.810282813102763
s(S'2222220022'
p1941
I2
tp1942
F-0.5838005794229759
s(S'1211012222'
p1943
I2
tp1944
F5.854070902421114
s(S'0222001110'
p1945
I0
tp1946
I5
s(S'1222012221'
p1947
I1
tp1948
F4.885380246021132
s(S'2002222121'
p1949
I0
tp1950
I5
s(S'0022221022'
p1951
I2
tp1952
I1
s(S'1222001101'
p1953
I0
tp1954
F8.435753662943256
s(S'1022222111'
p1955
I1
tp1956
F2.9425
s(S'1222122101'
p1957
I0
tp1958
I5
s(S'2221000022'
p1959
I1
tp1960
F3.9653369942101935
s(S'1101222221'
p1961
I2
tp1962
F2.533374821574455
s(S'2212211022'
p1963
I2
tp1964
F3.950377788965555
s(S'2222001011'
p1965
I1
tp1966
F4.605509466354631
s(S'2110222222'
p1967
I2
tp1968
F5.5461790993229805
s(S'2222011211'
p1969
I2
tp1970
F5.831646993298267
s(S'0222001101'
p1971
I2
tp1972
I1
s(S'1001221100'
p1973
I1
tp1974
I1
s(S'2220111122'
p1975
I0
tp1976
F10.838441885540009
s(S'1222000122'
p1977
I0
tp1978
F9.224385456523782
s(S'2101222112'
p1979
I2
tp1980
I1
s(S'0122221001'
p1981
I0
tp1982
F-21.84848105692852
s(S'2211111022'
p1983
I1
tp1984
F5.907626135699146
s(S'0022222211'
p1985
I2
tp1986
F-34.25663934733605
s(S'2111022222'
p1987
I0
tp1988
I5
s(S'0222200112'
p1989
I2
tp1990
F4.749788625060008
s(S'1001212222'
p1991
I2
tp1992
I1
s(S'2200011111'
p1993
I2
tp1994
F4.384916221609235
s(S'2222102201'
p1995
I0
tp1996
F11.83051074799642
s(S'1222222222'
p1997
I0
tp1998
I-200
s(S'0011022222'
p1999
I1
tp2000
F4.405236121559133
s(S'1022222200'
p2001
I0
tp2002
I-200
s(S'0111222220'
p2003
I1
tp2004
F0.3564842202595828
s(S'1222210220'
p2005
I1
tp2006
F5.526082940844189
s(S'2011111110'
p2007
I2
tp2008
F1.0
s(S'2100222221'
p2009
I0
tp2010
F-23.673633605867764
s(S'1222222220'
p2011
I1
tp2012
F-100.01169887323127
s(S'0011222221'
p2013
I0
tp2014
F-96.253125
s(S'2011112222'
p2015
I2
tp2016
F3.108487104451207
s(S'0222222110'
p2017
I1
tp2018
I-200
s(S'1102222221'
p2019
I0
tp2020
F-200.0
s(S'1222201222'
p2021
I0
tp2022
F10.297610902541217
s(S'0100222222'
p2023
I0
tp2024
F-46.214285537707184
s(S'2222002200'
p2025
I1
tp2026
F8.794908935270147
s(S'0111002222'
p2027
I2
tp2028
F3.8073400952068637
s(S'1222101222'
p2029
I2
tp2030
F5.934960731870075
s(S'1100022222'
p2031
I0
tp2032
F-99.64773220703124
s(S'0221102222'
p2033
I0
tp2034
F10.660914854828652
s(S'2000122210'
p2035
I1
tp2036
F2.0709777920818118
s(S'0120122221'
p2037
I2
tp2038
F2.481466213491753
s(S'2222222201'
p2039
I1
tp2040
F-200.0
s(S'0110111122'
p2041
I0
tp2042
F7.607006268403384
s(S'1211000222'
p2043
I0
tp2044
F6.7256121154025115
s(S'1000122221'
p2045
I1
tp2046
I1
s(S'0222220022'
p2047
I2
tp2048
F2.6791244980611153
s(S'2210012222'
p2049
I0
tp2050
F10.3202743566791
s(S'0122200222'
p2051
I0
tp2052
F9.220188289532416
s(S'2222000111'
p2053
I1
tp2054
F3.782994835688655
s(S'2222101222'
p2055
I1
tp2056
F6.535100015887879
s(S'2222211011'
p2057
I1
tp2058
F3.4839549295620587
s(S'0022222101'
p2059
I0
tp2060
F-65.0
s(S'1222222101'
p2061
I1
tp2062
F-117.89427851579376
s(S'2222100110'
p2063
I2
tp2064
F5.482392746142473
s(S'1001222221'
p2065
I1
tp2066
F-61.49330696877105
s(S'2211110122'
p2067
I1
tp2068
I1
s(S'1221011111'
p2069
I2
tp2070
F5.99471333840952
s(S'2222221102'
p2071
I1
tp2072
F-38.437977772139455
s(S'2222201210'
p2073
I1
tp2074
F6.7008008257693525
s(S'0111100222'
p2075
I1
tp2076
F5.213303408265485
s(S'0222220011'
p2077
I2
tp2078
F-3.8949271416706353
s(S'0002222222'
p2079
I0
tp2080
F-82.12181277169601
s(S'0012222222'
p2081
I2
tp2082
F-137.56017895956575
s(S'2212210122'
p2083
I0
tp2084
F7.262473391659496
s(S'1002222222'
p2085
I2
tp2086
F-62.1324877239234
s(S'2201111122'
p2087
I1
tp2088
F1.8844128068420118
s(S'1122002222'
p2089
I0
tp2090
I5
s(S'2221000222'
p2091
I0
tp2092
F8.107693063183614
s(S'2222000222'
p2093
I1
tp2094
F7.069208956773165
s(S'2210222221'
p2095
I2
tp2096
F7.208488828161228
s(S'2222211102'
p2097
I2
tp2098
F-8.147046090406736
s(S'2100111100'
p2099
I1
tp2100
I1
s(S'1001112222'
p2101
I0
tp2102
F-16.893535893211308
s(S'1112221012'
p2103
I1
tp2104
F3.0399916058416174
s(S'2222101211'
p2105
I2
tp2106
F4.692664318968276
s(S'2222222001'
p2107
I0
tp2108
F-200.0
s(S'2110122222'
p2109
I2
tp2110
F6.019037472873425
s(S'0121022221'
p2111
I2
tp2112
F5.48488623900184
s(S'0121001221'
p2113
I1
tp2114
F1.35
s(S'2221011210'
p2115
I2
tp2116
I1
s(S'1201222221'
p2117
I2
tp2118
I1
s(S'2222222210'
p2119
I2
tp2120
F-187.3864144330139
s(S'0111222222'
p2121
I2
tp2122
F-99.5
s(S'2101221111'
p2123
I0
tp2124
F6.369135810443883
s(S'1012101112'
p2125
I2
tp2126
I1
s(S'0022222201'
p2127
I2
tp2128
I-200
s(S'2102222111'
p2129
I0
tp2130
F-0.6656813873710061
s(S'1111100222'
p2131
I0
tp2132
F7.802558919624476
s(S'2222210221'
p2133
I0
tp2134
F9.324458588276325
s(S'2222210002'
p2135
I2
tp2136
F-0.3006834018340958
s(S'2221012210'
p2137
I0
tp2138
F11.962722351370607
s(S'1011222221'
p2139
I0
tp2140
I5
s(S'2101122111'
p2141
I2
tp2142
I1
s(S'2222222002'
p2143
I1
tp2144
F2.8061883114189223
s(S'2222011210'
p2145
I1
tp2146
F8.213030307694236
s(S'0121102222'
p2147
I0
tp2148
F10.455727506817803
s(S'2001122222'
p2149
I2
tp2150
F4.292516573946864
s(S'1120112222'
p2151
I0
tp2152
F8.07474826249163
s(S'0022222210'
p2153
I1
tp2154
F-152.0
s(S'2201122222'
p2155
I2
tp2156
F6.202283671153732
s(S'0210122222'
p2157
I2
tp2158
F8.716480607738308
s(S'0222222211'
p2159
I0
tp2160
F-122.37459115689126
s(S'0122220000'
p2161
I1
tp2162
I1
s(S'1001222222'
p2163
I2
tp2164
F-24.27276143860102
s(S'2222200220'
p2165
I1
tp2166
F7.19690019581565
s(S'2220011221'
p2167
I1
tp2168
F3.514917969991526
s(S'1101222220'
p2169
I2
tp2170
F-1.5109612738182716
s(S'0100112222'
p2171
I2
tp2172
F3.6091761866163368
s(S'0211012222'
p2173
I1
tp2174
F5.066575026059453
s(S'2210222210'
p2175
I2
tp2176
F4.205984355570889
s(S'1210011122'
p2177
I0
tp2178
F8.630165406947022
s(S'0222222220'
p2179
I1
tp2180
I1
s(S'0122001222'
p2181
I0
tp2182
F11.642940482968614
s(S'1000222222'
p2183
I2
tp2184
F3.567951312293312
s(S'2001222222'
p2185
I1
tp2186
F-26.3421790292263
s(S'0100022222'
p2187
I0
tp2188
I-200
s(S'2210022222'
p2189
I0
tp2190
F-24.767160771976755
s(S'2222111012'
p2191
I1
tp2192
F3.7760200864404
s(S'1001222211'
p2193
I2
tp2194
F-10.913393028219943
s(S'2210112212'
p2195
I2
tp2196
F3.992689245006309
s(S'1222211100'
p2197
I1
tp2198
F3.1326429157098783
s(S'1022222211'
p2199
I1
tp2200
F-71.05277335054541
s(S'1110122221'
p2201
I1
tp2202
F-2.5291011902423977
s(S'2222011200'
p2203
I0
tp2204
F9.731287215292166
s(S'2211012222'
p2205
I0
tp2206
F11.038758733825334
s(S'0110011222'
p2207
I1
tp2208
F2.701601240071789
s(S'2200111111'
p2209
I0
tp2210
F10.229761026975329
s(S'0122222110'
p2211
I2
tp2212
F-56.8638765720829
s(S'2100112122'
p2213
I2
tp2214
F2.75
s(S'0222222111'
p2215
I2
tp2216
I-200
s(S'0222100111'
p2217
I0
tp2218
I5
s(S'0222222100'
p2219
I0
tp2220
I-200
s(S'0022222222'
p2221
I1
tp2222
F-177.79649001170313
s(S'2222210120'
p2223
I0
tp2224
F-2.0572076682399265
s(S'2101111221'
p2225
I2
tp2226
F1.5967500000000001
s(S'1222111022'
p2227
I2
tp2228
F3.300107059296141
s(S'1222000112'
p2229
I1
tp2230
F6.447384760085361
s(S'0210022222'
p2231
I0
tp2232
F10.020063563082763
s(S'2222221001'
p2233
I0
tp2234
F-189.51984588745773
s(S'0222221001'
p2235
I2
tp2236
F-42.27115940321208
s(S'0221012221'
p2237
I2
tp2238
F5.228808617682319
s(S'1222222201'
p2239
I1
tp2240
I-200
s(S'0222222001'
p2241
I1
tp2242
F-47.005104977022995
s(S'2201112222'
p2243
I2
tp2244
F5.27313191787406
s(S'1222222220'
p2245
I0
tp2246
I-200
s(S'2222222222'
p2247
I0
tp2248
I-200
s(S'2220011222'
p2249
I2
tp2250
F7.6458006202390045
s(S'1001122221'
p2251
I1
tp2252
F2.5940312499999996
s(S'1102222211'
p2253
I2
tp2254
F-4.782543932003923
s(S'0100022222'
p2255
I2
tp2256
I1
s(S'1222221022'
p2257
I2
tp2258
F3.402897675684958
s(S'2221002221'
p2259
I0
tp2260
I5
s(S'2222121002'
p2261
I2
tp2262
I1
s(S'2222011222'
p2263
I1
tp2264
I1
s(S'2222011111'
p2265
I0
tp2266
F-147.4323545598268
s(S'0222011111'
p2267
I2
tp2268
F-98.33413533666746
s(S'2220012220'
p2269
I1
tp2270
F1.9715475688184387
s(S'2222220011'
p2271
I0
tp2272
F-133.43070351569077
s(S'0122000122'
p2273
I2
tp2274
I1
s(S'0210012211'
p2275
I0
tp2276
F6.949770964398928
s(S'0222221012'
p2277
I2
tp2278
F-43.204970963784454
s(S'1220012222'
p2279
I2
tp2280
F6.5971845097121475
s(S'1222001222'
p2281
I2
tp2282
F5.304817018253255
s(S'1100222221'
p2283
I0
tp2284
F-44.58232109029295
s(S'0222200000'
p2285
I2
tp2286
I-200
s(S'2222001112'
p2287
I1
tp2288
F5.53353672303296
s(S'0012222222'
p2289
I1
tp2290
F-103.00298388671875
s(S'1222000111'
p2291
I2
tp2292
F2.726028786421459
s(S'2101222121'
p2293
I0
tp2294
F4.859512262877876
s(S'2011112211'
p2295
I1
tp2296
F1.0
s(S'0222222002'
p2297
I2
tp2298
F-51.412499999999994
s(S'2222211022'
p2299
I1
tp2300
F3.628116387161162
s(S'2222002222'
p2301
I2
tp2302
F6.243566851693302
s(S'1222222011'
p2303
I0
tp2304
I-200
s(S'0222221111'
p2305
I1
tp2306
I1
s(S'2221011211'
p2307
I2
tp2308
F6.021826536332702
s(S'1222222110'
p2309
I1
tp2310
I1
s(S'2101112222'
p2311
I0
tp2312
F3.0275494980670308
s(S'0002222210'
p2313
I0
tp2314
F-25.198403086083225
s(S'0001222220'
p2315
I1
tp2316
F-8.928855104430344
s(S'0122210022'
p2317
I0
tp2318
F8.7740891775929
s(S'0101122222'
p2319
I0
tp2320
F-96.625
s(S'0222201111'
p2321
I2
tp2322
I-200
s(S'1210011111'
p2323
I2
tp2324
I1
s(S'0022201121'
p2325
I0
tp2326
I5
s(S'2222110111'
p2327
I1
tp2328
F2.5986373254908477
s(S'2100112100'
p2329
I0
tp2330
I5
s(S'1222221012'
p2331
I1
tp2332
F3.7900011631365835
s(S'0112222221'
p2333
I0
tp2334
I-200
s(S'1222220011'
p2335
I1
tp2336
F2.7354866400574713
s(S'1222221002'
p2337
I0
tp2338
I-200
s(S'2222222102'
p2339
I0
tp2340
F-30.185501643174742
s(S'0122222110'
p2341
I0
tp2342
I5
s(S'1100112222'
p2343
I1
tp2344
F2.3569949335740246
s(S'1200122222'
p2345
I2
tp2346
F5.749849326900868
s(S'0222200011'
p2347
I2
tp2348
I-200
s(S'1122222200'
p2349
I1
tp2350
I-200
s(S'2210012211'
p2351
I1
tp2352
F3.4880456150449244
s(S'2222222011'
p2353
I2
tp2354
F-38.689315192934586
s(S'0120111222'
p2355
I2
tp2356
F1.0
s(S'0110012221'
p2357
I2
tp2358
F6.773973055247389
s(S'2222101111'
p2359
I2
tp2360
F7.951214106868149
s(S'2222100121'
p2361
I1
tp2362
F4.724289216008202
s(S'2100122211'
p2363
I2
tp2364
F4.741384074721612
s(S'1002222210'
p2365
I0
tp2366
I-200
s(S'1222000011'
p2367
I1
tp2368
F4.00984990254297
s(S'2200112211'
p2369
I0
tp2370
F7.660234755921857
s(S'1220011222'
p2371
I0
tp2372
F10.854506436321731
s(S'1222220121'
p2373
I1
tp2374
F4.892657261981638
s(S'1022222210'
p2375
I0
tp2376
I-200
s(S'1001222210'
p2377
I2
tp2378
F-2.3776144381629374
s(S'1111111022'
p2379
I1
tp2380
F1.0
s(S'0221022222'
p2381
I0
tp2382
F14.318367486207908
s(S'2222111102'
p2383
I0
tp2384
F-37.19248174581232
s(S'2211221012'
p2385
I0
tp2386
I5
s(S'0122110222'
p2387
I1
tp2388
F2.4151716240148895
s(S'0122001122'
p2389
I2
tp2390
I1
s(S'2221000011'
p2391
I0
tp2392
F7.101113493018618
s(S'2101222210'
p2393
I1
tp2394
F1.83125
s(S'2222221012'
p2395
I1
tp2396
F3.5800763379070606
s(S'0022210022'
p2397
I0
tp2398
F5.586604213675706
s(S'0222222222'
p2399
I1
tp2400
F-90.17550703879908
s(S'2222100021'
p2401
I0
tp2402
F9.565996433076844
s(S'2200110111'
p2403
I2
tp2404
F4.045970637767834
s(S'1210022222'
p2405
I2
tp2406
F8.988856544094133
s(S'1222200122'
p2407
I1
tp2408
F5.705258638012445
s(S'2210122212'
p2409
I1
tp2410
F5.464467481362011
s(S'0122220012'
p2411
I1
tp2412
F1.0
s(S'1001222210'
p2413
I1
tp2414
F-1.061753539438515
s(S'1222211102'
p2415
I1
tp2416
F3.784611016849288
s(S'2112210022'
p2417
I2
tp2418
I1
s(S'2222011220'
p2419
I2
tp2420
F6.20454858366538
s(S'0220112112'
p2421
I2
tp2422
I1
s(S'2201121222'
p2423
I1
tp2424
F-0.39789631394296476
s(S'2221221022'
p2425
I0
tp2426
F7.8775327711014445
s(S'2222001211'
p2427
I0
tp2428
F11.897980678776461
s(S'2222100122'
p2429
I2
tp2430
F5.361988941725205
s(S'2200010111'
p2431
I1
tp2432
F7.757603141924815
s(S'1221101222'
p2433
I0
tp2434
F9.732498292780253
s(S'1011122221'
p2435
I1
tp2436
F1.8628543185312947
s(S'1210222221'
p2437
I0
tp2438
F-9.740839558758559
s(S'1222210022'
p2439
I1
tp2440
F6.822497540122912
s(S'0002222220'
p2441
I1
tp2442
I-200
s(S'2221210022'
p2443
I2
tp2444
F2.950572253225956
s(S'2011212222'
p2445
I1
tp2446
F-13.083230653346543
s(S'0012212221'
p2447
I0
tp2448
I5
s(S'2011111111'
p2449
I2
tp2450
I1
s(S'2222010022'
p2451
I2
tp2452
F2.1379252013144017
s(S'2100122110'
p2453
I1
tp2454
F1.8161667571299593
s(S'2222110221'
p2455
I0
tp2456
F10.33164150544669
s(S'0122222221'
p2457
I1
tp2458
F-37.95375506695056
s(S'0222000222'
p2459
I0
tp2460
F10.74196278743127
s(S'0122222012'
p2461
I2
tp2462
F-4.15806994561861
s(S'1221000112'
p2463
I1
tp2464
F4.130711131757522
s(S'1200002222'
p2465
I1
tp2466
I1
s(S'2222222220'
p2467
I0
tp2468
F-200.0
s(S'2220001011'
p2469
I2
tp2470
F6.057451756387573
s(S'2222011122'
p2471
I1
tp2472
F7.9225469869975615
s(S'0222221110'
p2473
I2
tp2474
F-13.524999999999999
s(S'1001221222'
p2475
I1
tp2476
F-7.198646330853332
s(S'0110002222'
p2477
I0
tp2478
F10.123468254090145
s(S'1012222220'
p2479
I2
tp2480
F-98.8719744502832
s(S'1001222200'
p2481
I1
tp2482
F1.8251099753208226
s(S'1100122221'
p2483
I1
tp2484
F-1.0958781064317895
s(S'1111022222'
p2485
I2
tp2486
F4.633474937534475
s(S'2210121111'
p2487
I0
tp2488
F9.596336087778077
s(S'2222221022'
p2489
I2
tp2490
F-7.507717274847243
s(S'2201122222'
p2491
I1
tp2492
F-14.489821279463392
s(S'2221111012'
p2493
I1
tp2494
F5.243705847462039
s(S'0220012221'
p2495
I2
tp2496
F2.751567985735731
s(S'0222210111'
p2497
I2
tp2498
F-0.8710466742289185
s(S'0121001222'
p2499
I2
tp2500
I1
s(S'2211100222'
p2501
I1
tp2502
F2.1072820595703123
s(S'0222200111'
p2503
I0
tp2504
I5
s(S'2200111221'
p2505
I2
tp2506
F5.61947645600683
s(S'1122222201'
p2507
I2
tp2508
F1.0
s(S'0022222012'
p2509
I0
tp2510
F-11.160921801613561
s(S'2222222001'
p2511
I2
tp2512
F-126.7144909187883
s(S'2220000111'
p2513
I2
tp2514
F-99.5
s(S'1000222220'
p2515
I1
tp2516
F-2.926258960134785
s(S'2001222220'
p2517
I0
tp2518
F-10.312817183772486
s(S'1221012220'
p2519
I0
tp2520
I5
s(S'2222220112'
p2521
I1
tp2522
F4.64663118617676
s(S'2221100221'
p2523
I1
tp2524
I1
s(S'2212110221'
p2525
I1
tp2526
I1
s(S'0120011122'
p2527
I0
tp2528
F7.625
s(S'0121100222'
p2529
I2
tp2530
F5.236143875940361
s(S'0011122210'
p2531
I0
tp2532
F5.35
s(S'2002222201'
p2533
I1
tp2534
I1
s(S'2011112221'
p2535
I0
tp2536
F6.8375
s(S'1022222111'
p2537
I2
tp2538
F-8.935592714987386
s(S'2221012200'
p2539
I2
tp2540
F9.255260368470324
s(S'2222001222'
p2541
I1
tp2542
F4.518506758370322
s(S'2011122221'
p2543
I1
tp2544
F5.452875
s(S'2100122210'
p2545
I2
tp2546
F6.9730062859831765
s(S'2210112122'
p2547
I0
tp2548
F10.408734781051415
s(S'2222111011'
p2549
I2
tp2550
F-48.86705870105519
s(S'2220010111'
p2551
I0
tp2552
F-93.82120456746756
s(S'2222000221'
p2553
I2
tp2554
F4.2088136873955975
s(S'1222221000'
p2555
I0
tp2556
I5
s(S'2222222100'
p2557
I0
tp2558
F-28.946539536024957
s(S'2220001111'
p2559
I0
tp2560
I5
s(S'2222200210'
p2561
I0
tp2562
F8.643681599781512
s(S'0222210111'
p2563
I0
tp2564
F8.675591636461302
s(S'2222211012'
p2565
I1
tp2566
F4.103152147266046
s(S'0222210022'
p2567
I0
tp2568
F8.125524005970929
s(S'0001222100'
p2569
I2
tp2570
F1.0
s(S'2101222211'
p2571
I2
tp2572
F5.2921901361695785
s(S'0022222221'
p2573
I2
tp2574
F-37.522874450104275
s(S'1120111122'
p2575
I2
tp2576
F4.008548551624685
s(S'1221012211'
p2577
I0
tp2578
F8.927809414328491
s(S'0111222220'
p2579
I0
tp2580
F-3.1763281092772075
s(S'2220111111'
p2581
I2
tp2582
F4.695789692007335
s(S'1210111111'
p2583
I2
tp2584
I1
s(S'2221100222'
p2585
I2
tp2586
F4.076330905772227
s(S'2100222221'
p2587
I1
tp2588
F-20.321870948977388
s(S'2122220022'
p2589
I0
tp2590
F7.572441874442679
s(S'0122222220'
p2591
I2
tp2592
F-11.563878418857893
s(S'2211221022'
p2593
I1
tp2594
F3.9508127137936238
s(S'0100122221'
p2595
I2
tp2596
F2.7293988326896725
s(S'1001122222'
p2597
I2
tp2598
F3.0973461537233224
s(S'0222222110'
p2599
I2
tp2600
F-184.51417679459468
s(S'1100012222'
p2601
I0
tp2602
F7.964704277534624
s(S'0222222011'
p2603
I1
tp2604
F-21.408086470952675
s(S'1221000122'
p2605
I1
tp2606
I1
s(S'0110022221'
p2607
I1
tp2608
F4.539719238938353
s(S'1100022222'
p2609
I1
tp2610
F-99.26375
s(S'2222221102'
p2611
I0
tp2612
I-200
s(S'2221022220'
p2613
I0
tp2614
F11.938325010060414
s(S'2222222201'
p2615
I0
tp2616
F-185.13920113243154
s(S'2001112222'
p2617
I1
tp2618
F-5.972690231249236
s(S'1000122221'
p2619
I0
tp2620
F2.3995329014430657
s(S'2222000111'
p2621
I0
tp2622
F-95.49959219174119
s(S'2222101222'
p2623
I2
tp2624
F-97.80050335182202
s(S'2200001110'
p2625
I1
tp2626
F2.0741700026854897
s(S'2222110121'
p2627
I1
tp2628
F1.875
s(S'0011122221'
p2629
I0
tp2630
F-14.181797779632308
s(S'2222211011'
p2631
I2
tp2632
F-57.24829906504119
s(S'0022222101'
p2633
I1
tp2634
F-10.261215403719829
s(S'1101111222'
p2635
I0
tp2636
F3.6053034627095304
s(S'2201122121'
p2637
I1
tp2638
I1
s(S'1012222221'
p2639
I2
tp2640
F-155.98260233176097
s(S'2200112222'
p2641
I0
tp2642
F9.083914760805136
s(S'0001222222'
p2643
I0
tp2644
I5
s(S'1222222101'
p2645
I0
tp2646
F-110.70181059820567
s(S'1001222221'
p2647
I0
tp2648
I-200
s(S'0110122212'
p2649
I1
tp2650
F-0.8770130276639847
s(S'2222220001'
p2651
I2
tp2652
I-200
s(S'1000022222'
p2653
I0
tp2654
I5
s(S'2100222210'
p2655
I1
tp2656
I1
s(S'0002222222'
p2657
I1
tp2658
I-200
s(S'2210002222'
p2659
I1
tp2660
F3.617612871038589
s(S'2210122122'
p2661
I1
tp2662
F6.134451466803255
s(S'2221110221'
p2663
I1
tp2664
I1
s(S'0122222201'
p2665
I0
tp2666
I-200
s(S'0122210122'
p2667
I0
tp2668
F8.261807481925597
s(S'2222211102'
p2669
I1
tp2670
F3.6672818229358635
s(S'2200012211'
p2671
I1
tp2672
F3.455434919661069
s(S'2222211021'
p2673
I2
tp2674
F-3.365094922718045
s(S'2000012222'
p2675
I1
tp2676
F3.416325643794165
s(S'1001112222'
p2677
I1
tp2678
F1.7521610934983276
s(S'2201222121'
p2679
I1
tp2680
I1
s(S'2222210021'
p2681
I1
tp2682
F4.615326921597037
s(S'2222222210'
p2683
I1
tp2684
F-36.064098708729354
s(S'1022222110'
p2685
I1
tp2686
I1
s(S'1222221100'
p2687
I2
tp2688
F-46.474598194740615
s(S'1210112222'
p2689
I1
tp2690
F4.382476752219292
s(S'2220011121'
p2691
I1
tp2692
I1
s(S'2002222222'
p2693
I0
tp2694
F-36.07108266126929
s(S'0222200011'
p2695
I1
tp2696
F3.4616219170377827
s(S'2222110021'
p2697
I2
tp2698
F-0.03702790510717302
s(S'2001222210'
p2699
I1
tp2700
F2.583376530082611
s(S'2201221111'
p2701
I0
tp2702
F6.7104988584354635
s(S'2221012221'
p2703
I2
tp2704
F4.678992147761157
s(S'2200002222'
p2705
I2
tp2706
F5.627644535884855
s(S'0022222210'
p2707
I0
tp2708
I-200
s(S'0222011122'
p2709
I0
tp2710
F-95.49185495480639
s(S'2222200121'
p2711
I0
tp2712
F-20.593736819802995
s(S'0222222211'
p2713
I1
tp2714
F-106.40693583007831
s(S'2200000111'
p2715
I2
tp2716
F-4.055463027020258
s(S'2001111222'
p2717
I1
tp2718
F-4.021019809467486
s(S'0222210011'
p2719
I2
tp2720
F-1.8697299730991035
s(S'1122222101'
p2721
I1
tp2722
I1
s(S'1201112222'
p2723
I0
tp2724
F-2.0409123483535803
s(S'1222110022'
p2725
I2
tp2726
F2.73603116441511
s(S'2102222222'
p2727
I2
tp2728
F-7.449259250818528
s(S'2200112110'
p2729
I1
tp2730
I1
s(S'2201111112'
p2731
I0
tp2732
I5
s(S'0120011222'
p2733
I2
tp2734
F2.77812095726492
s(S'0220122221'
p2735
I0
tp2736
F11.458934372256289
s(S'0022100122'
p2737
I1
tp2738
F5.766908772629636
s(S'2201222221'
p2739
I1
tp2740
F-4.2683268582784395
s(S'0122210222'
p2741
I0
tp2742
F7.204443973140711
s(S'1000222222'
p2743
I1
tp2744
F-156.80574095825978
s(S'2001222222'
p2745
I0
tp2746
F-14.079854786450543
s(S'2222111021'
p2747
I0
tp2748
F-0.909570487614288
s(S'0110122222'
p2749
I2
tp2750
F6.065832810763256
s(S'1221012222'
p2751
I0
tp2752
F13.291558240508987
s(S'2210122210'
p2753
I0
tp2754
F8.5259695248599
s(S'2222122101'
p2755
I2
tp2756
I1
s(S'2222220110'
p2757
I1
tp2758
F4.713492361684393
s(S'1022101112'
p2759
I1
tp2760
I1
s(S'2000222221'
p2761
I1
tp2762
F-10.693882369582646
s(S'2222210111'
p2763
I0
tp2764
I-200
s(S'1110122221'
p2765
I0
tp2766
F-9.08979158975733
s(S'0001222200'
p2767
I1
tp2768
F1.7848354944125684
s(S'0011112221'
p2769
I0
tp2770
F5.0
s(S'2222200021'
p2771
I0
tp2772
F7.39574405130646
s(S'2222000022'
p2773
I1
tp2774
F5.3142871807766365
s(S'1111101222'
p2775
I1
tp2776
F8.566815107120108
s(S'2222001220'
p2777
I1
tp2778
F10.403646785580385
s(S'0102222222'
p2779
I2
tp2780
F-99.2375
s(S'2101222210'
p2781
I2
tp2782
F2.8200658140505097
s(S'1102222222'
p2783
I2
tp2784
F-2.4823560798439233
s(S'2222210120'
p2785
I1
tp2786
F7.018798283477852
s(S'0122011112'
p2787
I1
tp2788
F3.694157417306274
s(S'0111022222'
p2789
I2
tp2790
F5.489452937252319
s(S'2101121222'
p2791
I1
tp2792
F1.0
s(S'0122220011'
p2793
I2
tp2794
F-0.1922954036778337
s(S'0222101221'
p2795
I1
tp2796
F7.681507837929676
s(S'2222221001'
p2797
I1
tp2798
F-200.0
s(S'0121012221'
p2799
I0
tp2800
F7.131709398448195
s(S'0222222001'
p2801
I0
tp2802
I-200
s(S'2220000222'
p2803
I0
tp2804
F8.382064765495556
s(S'1011012222'
p2805
I1
tp2806
F2.2590390713564847
s(S'2201112222'
p2807
I1
tp2808
F4.004443393627422
s(S'2222222222'
p2809
I1
tp2810
F-99.5
s(S'0121101222'
p2811
I2
tp2812
F5.52857163056795
s(S'0022222100'
p2813
I2
tp2814
F-11.347285833213522
s(S'1220111111'
p2815
I0
tp2816
F8.640911303717575
s(S'2000011221'
p2817
I1
tp2818
F1.35
s(S'0222221100'
p2819
I2
tp2820
I1
s(S'2122221012'
p2821
I1
tp2822
I1
s(S'2220001222'
p2823
I1
tp2824
F6.547280859241962
s(S'0111222222'
p2825
I0
tp2826
F-8.475682106572902
s(S'0221011122'
p2827
I0
tp2828
I5
s(S'2201122222'
p2829
I0
tp2830
F-43.25247824632315
s(S'0222011111'
p2831
I1
tp2832
F6.125158528713495
s(S'1222210011'
p2833
I2
tp2834
F3.652571528546943
s(S'2222220011'
p2835
I1
tp2836
F5.857308039559108
s(S'1210122221'
p2837
I1
tp2838
F5.180876519525511
s(S'1200122122'
p2839
I1
tp2840
I1
s(S'2220122112'
p2841
I1
tp2842
F5.80514901566324
s(S'2210111111'
p2843
I0
tp2844
F10.078307918167116
s(S'2200122210'
p2845
I1
tp2846
F3.3525162659644634
s(S'1101112222'
p2847
I2
tp2848
F2.1017805592433465
s(S'1200222221'
p2849
I0
tp2850
F0.976986503597596
s(S'2222210220'
p2851
I2
tp2852
F4.007670547016545
s(S'2111110122'
p2853
I0
tp2854
I5
s(S'0122222001'
p2855
I2
tp2856
F-7.287167704941012
s(S'2222102210'
p2857
I0
tp2858
F11.05606560617763
s(S'1110222222'
p2859
I0
tp2860
F-200.0
s(S'1220011112'
p2861
I1
tp2862
F7.005342102806489
s(S'0122222100'
p2863
I1
tp2864
F-8.028789314816143
s(S'1222222110'
p2865
I0
tp2866
F-97.5
s(S'2101112222'
p2867
I1
tp2868
F-36.841366318870705
s(S'1222210002'
p2869
I2
tp2870
F-1.5473599409421253
s(S'2200101111'
p2871
I0
tp2872
F9.403020779382503
s(S'1212221012'
p2873
I2
tp2874
F2.75
s(S'2222221011'
p2875
I1
tp2876
F-123.33001435006562
s(S'1211022222'
p2877
I1
tp2878
F-8.89547589395615
s(S'0222222221'
p2879
I1
tp2880
F-89.60919359359458
s(S'2110122210'
p2881
I2
tp2882
F1.35
s(S'1222221012'
p2883
I0
tp2884
F-97.325
s(S'1222220011'
p2885
I0
tp2886
I-200
s(S'2222220111'
p2887
I2
tp2888
I-200
s(S'1222211101'
p2889
I1
tp2890
F3.3886893881974647
s(S'1210002222'
p2891
I1
tp2892
I1
s(S'1222221002'
p2893
I1
tp2894
F-4.924754887151846
s(S'2200111011'
p2895
I1
tp2896
I1
s(S'0222001211'
p2897
I1
tp2898
I1
s(S'0012222201'
p2899
I2
tp2900
F-4.201874999999998
s(S'1022222221'
p2901
I0
tp2902
F-174.375
s(S'1200122212'
p2903
I0
tp2904
I5
s(S'2222101111'
p2905
I1
tp2906
F-31.12691894181183
s(S'0110222222'
p2907
I0
tp2908
F-124.23312723753938
s(S'2002222220'
p2909
I0
tp2910
I-200
s(S'1002222210'
p2911
I1
tp2912
F-68.846875
s(S'2222201221'
p2913
I0
tp2914
F10.639564095622466
s(S'2220122221'
p2915
I1
tp2916
F5.426127337593289
s(S'2000122222'
p2917
I1
tp2918
F1.5980204831585054
s(S'1022222210'
p2919
I1
tp2920
I-200
s(S'1222210111'
p2921
I2
tp2922
F-9.125915193953729
s(S'0210022221'
p2923
I2
tp2924
I1
s(S'0122222210'
p2925
I0
tp2926
I-200
s(S'1222222200'
p2927
I1
tp2928
I-200
s(S'2222111102'
p2929
I1
tp2930
F3.557255571350886
s(S'0122222222'
p2931
I1
tp2932
F-154.2030517790564
s(S'2222221012'
p2933
I2
tp2934
F-64.74862662472466
s(S'2210111110'
p2935
I2
tp2936
F3.3837862487609436
s(S'0120112222'
p2937
I2
tp2938
I1
s(S'1222211110'
p2939
I2
tp2940
F-2.9386039969556164
s(S'0222222222'
p2941
I2
tp2942
F-157.26778351803475
s(S'0011002222'
p2943
I1
tp2944
F4.054707101781005
s(S'2220000011'
p2945
I2
tp2946
F-98.5630300568764
s(S'2220011112'
p2947
I0
tp2948
F10.15106432899491
s(S'2212222012'
p2949
I1
tp2950
I1
s(S'0002222100'
p2951
I2
tp2952
F3.041854120061058
s(S'2100222222'
p2953
I2
tp2954
F-0.47994925156486534
s(S'2002222211'
p2955
I0
tp2956
F-26.205442925621128
s(S'1222222002'
p2957
I2
tp2958
F1.35
s(S'1100121222'
p2959
I0
tp2960
I5
s(S'1201121122'
p2961
I0
tp2962
I5
s(S'0011222220'
p2963
I2
tp2964
I1
s(S'1111001222'
p2965
I0
tp2966
F9.931405562681812
s(S'0122002222'
p2967
I2
tp2968
F3.0872934123298377
s(S'2112221022'
p2969
I2
tp2970
I1
s(S'2222210122'
p2971
I1
tp2972
F5.404029887258788
s(S'1011122221'
p2973
I0
tp2974
F-6.554279428843971
s(S'1222011221'
p2975
I1
tp2976
I1
s(S'0222001221'
p2977
I2
tp2978
F4.896868365851323
s(S'2201222212'
p2979
I0
tp2980
F8.916683964226861
s(S'2221110121'
p2981
I1
tp2982
F5.32614129989284
s(S'1220112212'
p2983
I0
tp2984
F11.619301346673168
s(S'0122222111'
p2985
I0
tp2986
F-46.385355174477276
s(S'0122222221'
p2987
I2
tp2988
F-107.55841407804175
s(S'0210122211'
p2989
I1
tp2990
I1
s(S'2100101111'
p2991
I1
tp2992
I1
s(S'2222222220'
p2993
I1
tp2994
F-171.58234670703274
s(S'0222221110'
p2995
I1
tp2996
F-4.7787426025129225
s(S'2201122122'
p2997
I2
tp2998
F6.971995831731965
s(S'2220112212'
p2999
I2
tp3000
I1
s(S'0121012212'
p3001
I1
tp3002
I1
s(S'2222100111'
p3003
I0
tp3004
F10.542122953842101
s(S'1122001222'
p3005
I1
tp3006
F6.52769679047104
s(S'2222221022'
p3007
I1
tp3008
F4.056472272596829
s(S'2011122222'
p3009
I1
tp3010
F-0.7153509091026109
s(S'2221110222'
p3011
I2
tp3012
F4.003377213679872
s(S'1222221110'
p3013
I2
tp3014
F-5.724737788817668
s(S'2110122211'
p3015
I1
tp3016
F4.089476062009095
s(S'2222100220'
p3017
I2
tp3018
F3.960247421848298
s(S'2201101110'
p3019
I1
tp3020
I1
s(S'0222220112'
p3021
I0
tp3022
F7.628358489025194
s(S'0112222222'
p3023
I2
tp3024
F-39.38426304774253
s(S'2222210022'
p3025
I2
tp3026
F-19.181790239878666
s(S'2222200221'
p3027
I1
tp3028
F3.496072130053127
s(S'2200122112'
p3029
I0
tp3030
F8.869383323277809
s(S'0022222200'
p3031
I0
tp3032
F-200.0
s(S'2222221002'
p3033
I1
tp3034
F-33.76583667373483
s(S'1122222201'
p3035
I1
tp3036
I-200
s(S'2211210022'
p3037
I2
tp3038
F3.059621650648058
s(S'2222110011'
p3039
I2
tp3040
F3.1028511266859233
s(S'2200222222'
p3041
I2
tp3042
F5.351066014086755
s(S'1222011111'
p3043
I0
tp3044
F7.580598758436356
s(S'2221012211'
p3045
I2
tp3046
F6.259814226699236
s(S'1122100222'
p3047
I2
tp3048
F4.920080739272465
s(S'2222111002'
p3049
I1
tp3050
F3.919120615434701
s(S'2222222001'
p3051
I1
tp3052
F-117.04310830172446
s(S'0122001112'
p3053
I0
tp3054
F6.415607659552075
s(S'1002222211'
p3055
I2
tp3056
F-53.90100963023751
s(S'1000222220'
p3057
I0
tp3058
F-4.80704287573454
s(S'1220011122'
p3059
I2
tp3060
F6.758641381259529
s(S'2221001222'
p3061
I0
tp3062
F10.5150609125478
s(S'0221022221'
p3063
I2
tp3064
F9.706223636085983
s(S'2101221221'
p3065
I1
tp3066
I1
s(S'0012222200'
p3067
I2
tp3068
F-25.026313546674423
s(S'1101222221'
p3069
I0
tp3070
I-200
s(S'0222222012'
p3071
I1
tp3072
F3.5139971040823674
s(S'0222220001'
p3073
I2
tp3074
I-200
s(S'2110222222'
p3075
I0
tp3076
F-45.675397965279984
s(S'0022011122'
p3077
I1
tp3078
I1
s(S'0110112222'
p3079
I2
tp3080
F3.8918911355832195
s(S'2222111011'
p3081
I1
tp3082
F2.4118549673128213
s(S'2200122222'
p3083
I2
tp3084
F5.891743483146376
s(S'0122200022'
p3085
I0
tp3086
I5
s(S'2222102220'
p3087
I2
tp3088
F5.459313426515397
s(S'2220010111'
p3089
I1
tp3090
F7.607951256299388
s(S'1222200112'
p3091
I0
tp3092
F9.656535233177395
s(S'2001112210'
p3093
I1
tp3094
I1
s(S'0222210122'
p3095
I2
tp3096
F2.970768473452922
s(S'2101222220'
p3097
I2
tp3098
F2.9995382429192596
s(S'2222101221'
p3099
I0
tp3100
F10.117949021237443
s(S'2210001222'
p3101
I2
tp3102
F6.3588664539376625
s(S'2200101221'
p3103
I0
tp3104
F6.75
s(S'1222222222'
p3105
I2
tp3106
I-200
s(S'2222211012'
p3107
I0
tp3108
F-5.92796372765195
s(S'0222222101'
p3109
I2
tp3110
I-200
s(S'1111012220'
p3111
I2
tp3112
I1
s(S'0022222221'
p3113
I1
tp3114
I1
s(S'2210111122'
p3115
I0
tp3116
F9.58787037420714
s(S'0002222221'
p3117
I1
tp3118
I-200
s(S'0221002221'
p3119
I0
tp3120
I5
s(S'0220022221'
p3121
I1
tp3122
F6.854538969205173
s(S'0022210012'
p3123
I1
tp3124
F6.304796108721778
s(S'0122222220'
p3125
I1
tp3126
I1
s(S'0011222221'
p3127
I2
tp3128
F-0.553935643602844
s(S'1101222211'
p3129
I0
tp3130
F-16.73413222942272
s(S'2222222221'
p3131
I2
tp3132
F-200.0
s(S'1001122222'
p3133
I1
tp3134
F-52.0558427038093
s(S'2220122211'
p3135
I0
tp3136
F11.03934384538844
s(S'0122101221'
p3137
I1
tp3138
I1
s(S'2221222102'
p3139
I1
tp3140
F1.4725
s(S'0222222011'
p3141
I2
tp3142
F-116.9125
s(S'0100222222'
p3143
I2
tp3144
F-99.5
s(S'2222011221'
p3145
I1
tp3146
F4.954850833721083
s(S'1011222222'
p3147
I1
tp3148
F-130.3517738952741
s(S'2220011122'
p3149
I1
tp3150
F7.864398492444526
s(S'2001112222'
p3151
I0
tp3152
F-4.565257269660195
s(S'2220011111'
p3153
I1
tp3154
F-96.94788128123875
s(S'1001222201'
p3155
I2
tp3156
I1
s(S'2200121112'
p3157
I0
tp3158
F7.695479771966693
s(S'1210122222'
p3159
I2
tp3160
F6.765058020812319
s(S'0122210011'
p3161
I1
tp3162
I1
s(S'1201222112'
p3163
I2
tp3164
I1
s(S'0022222101'
p3165
I2
tp3166
F-51.35124999999999
s(S'1222221002'
p3167
I2
tp3168
F-71.75106522578616
s(S'0012222210'
p3169
I0
tp3170
F-97.5
s(S'2222101100'
p3171
I0
tp3172
F8.34102642418184
s(S'0021012222'
p3173
I0
tp3174
F9.796230998351064
s(S'0222000122'
p3175
I1
tp3176
I1
s(S'0120122222'
p3177
I0
tp3178
F11.532293197468896
s(S'0222220011'
p3179
I0
tp3180
I-200
s(S'2210111121'
p3181
I2
tp3182
F5.022458924680199
s(S'0002222222'
p3183
I2
tp3184
I-200
s(S'0222211101'
p3185
I2
tp3186
I1
s(S'2221221002'
p3187
I1
tp3188
I1
s(S'0122222201'
p3189
I1
tp3190
I-200
s(S'2222211102'
p3191
I0
tp3192
F-4.992217286356047
s(S'2222211021'
p3193
I1
tp3194
F4.806334145537827
s(S'0022220011'
p3195
I0
tp3196
F5.579139296273075
s(S'1210022211'
p3197
I2
tp3198
I1
s(S'0222200122'
p3199
I0
tp3200
F9.88431860549953
s(S'2222222210'
p3201
I0
tp3202
F-140.08464452724326
s(S'1112222220'
p3203
I2
tp3204
I-200
s(S'1111100222'
p3205
I2
tp3206
F3.107987081533535
s(S'2200001221'
p3207
I1
tp3208
F4.207998049337797
s(S'2221012201'
p3209
I0
tp3210
F11.13274725011113
s(S'2200111100'
p3211
I2
tp3212
I1
s(S'1222221100'
p3213
I1
tp3214
F-48.334011354835965
s(S'0012222221'
p3215
I0
tp3216
F-200.0
s(S'1002222221'
p3217
I0
tp3218
F-200.0
s(S'2002222222'
p3219
I1
tp3220
F-22.689174866288475
s(S'2122210122'
p3221
I2
tp3222
F5.762484752945818
s(S'2000122220'
p3223
I0
tp3224
F6.335829455243888
s(S'2110122221'
p3225
I0
tp3226
F8.98628339325717
s(S'1222221001'
p3227
I2
tp3228
F-50.06968528571389
s(S'2222200121'
p3229
I1
tp3230
F4.319126425162618
s(S'0222210011'
p3231
I1
tp3232
F6.084149851384096
s(S'2222221101'
p3233
I0
tp3234
I-200
s(S'0121011222'
p3235
I2
tp3236
F3.654138339258854
s(S'1201112222'
p3237
I1
tp3238
F-0.44462030636277117
s(S'2222221100'
p3239
I0
tp3240
I-200
s(S'0222012221'
p3241
I0
tp3242
F9.223234977811469
s(S'2201222221'
p3243
I2
tp3244
F5.958957421226829
s(S'1000222222'
p3245
I0
tp3246
I-200
s(S'1201111222'
p3247
I2
tp3248
F5.308196938252836
s(S'0110122222'
p3249
I1
tp3250
I-200
s(S'2210022222'
p3251
I2
tp3252
F9.62835366329585
s(S'1001222211'
p3253
I0
tp3254
F-13.17784139655214
s(S'2000222221'
p3255
I0
tp3256
F5.188673667635383
s(S'2222210111'
p3257
I1
tp3258
F6.5298471380279155
s(S'0022102222'
p3259
I1
tp3260
I1
s(S'1122221012'
p3261
I1
tp3262
F2.712186935099413
s(S'2222220012'
p3263
I1
tp3264
F4.034669430158243
s(S'2201111222'
p3265
I1
tp3266
F-0.48797716836436256
s(S'2101222221'
p3267
I2
tp3268
F5.459228338500658
s(S'0222222111'
p3269
I0
tp3270
I-200
s(S'0102222222'
p3271
I1
tp3272
F-99.5
s(S'0222222100'
p3273
I2
tp3274
F-123.65992375621627
s(S'0011001222'
p3275
I1
tp3276
F3.6494034203198815
s(S'0022222111'
p3277
I2
tp3278
F-31.780015381527157
s(S'2222100022'
p3279
I2
tp3280
F4.065115244023235
s(S'2222221002'
p3281
I0
tp3282
F-100.25481222358965
s(S'2212221012'
p3283
I2
tp3284
F1.2497873180740882
s(S'2220101222'
p3285
I1
tp3286
I1
s(S'1220122222'
p3287
I2
tp3288
F5.329294596989884
s(S'0101112222'
p3289
I2
tp3290
F5.634276788670766
s(S'2222221001'
p3291
I2
tp3292
F-192.60659786231304
s(S'2222200110'
p3293
I1
tp3294
F4.973165644916236
s(S'1210122122'
p3295
I2
tp3296
F5.902504917329711
s(S'0222221001'
p3297
I0
tp3298
F-30.7000709331624
s(S'2222200011'
p3299
I0
tp3300
I-200
s(S'2221211021'
p3301
I1
tp3302
F3.8374782016669586
s(S'2222000112'
p3303
I2
tp3304
I1
s(S'0122200001'
p3305
I2
tp3306
I1
s(S'1222011122'
p3307
I0
tp3308
F-95.22890188053918
s(S'2201112222'
p3309
I0
tp3310
F-11.30637140924767
s(S'2210011111'
p3311
I0
tp3312
F8.40723404723873
s(S'0222221022'
p3313
I2
tp3314
F3.360851970996891
s(S'0111102222'
p3315
I0
tp3316
F10.152590895576678
s(S'0022222100'
p3317
I1
tp3318
F-12.096718244218518
s(S'0011100222'
p3319
I1
tp3320
F4.315541916751249
s(S'1101122222'
p3321
I0
tp3322
F-5.797628173640215
s(S'1222222102'
p3323
I2
tp3324
F-7.782156779784939
s(S'1222210120'
p3325
I1
tp3326
F5.499969242752515
s(S'1121001222'
p3327
I1
tp3328
F5.031354589560289
s(S'1100111222'
p3329
I2
tp3330
F5.208687809378731
s(S'0222011111'
p3331
I0
tp3332
F7.527779875858335
s(S'0022222001'
p3333
I2
tp3334
F-21.430977508599568
s(S'2222220011'
p3335
I2
tp3336
F-167.8521887761273
s(S'2112221012'
p3337
I2
tp3338
I1
s(S'1220122211'
p3339
I0
tp3340
F10.626412736806724
s(S'2211022222'
p3341
I2
tp3342
F10.203646474519978
s(S'0222221012'
p3343
I0
tp3344
F-53.324621026531055
s(S'0012222200'
p3345
I0
tp3346
F-101.03171875000001
s(S'1100222221'
p3347
I2
tp3348
F-5.004817624560991
s(S'2221111021'
p3349
I2
tp3350
F2.8502102785445267
s(S'0022201222'
p3351
I1
tp3352
F4.386918428062483
s(S'2000011110'
p3353
I2
tp3354
F2.5601383818452472
s(S'2222100210'
p3355
I2
tp3356
F4.211427027209319
s(S'2100111222'
p3357
I2
tp3358
F5.043571252307979
s(S'0120111122'
p3359
I0
tp3360
F8.384619388943836
s(S'1110111222'
p3361
I2
tp3362
F6.822746238454194
s(S'2200022221'
p3363
I2
tp3364
F5.632930843823909
s(S'2101111211'
p3365
I1
tp3366
I1
s(S'1200111222'
p3367
I2
tp3368
F7.6810371005271705
s(S'0122210112'
p3369
I2
tp3370
F3.645982636423437
s(S'0101122222'
p3371
I1
tp3372
F-19.48703070411788
s(S'0010022222'
p3373
I2
tp3374
F4.7000888899907025
s(S'1210011222'
p3375
I0
tp3376
I5
s(S'0122222100'
p3377
I2
tp3378
F-99.5
s(S'1220111112'
p3379
I0
tp3380
I5
s(S'0222222210'
p3381
I1
tp3382
F-111.6673997512654
s(S'0002222210'
p3383
I2
tp3384
F-21.438153876240076
s(S'2210222222'
p3385
I0
tp3386
F-31.607706604386692
s(S'1221002222'
p3387
I0
tp3388
F11.236205065095454
s(S'2222221011'
p3389
I0
tp3390
F-59.6948663821633
s(S'0222201111'
p3391
I0
tp3392
I-200
s(S'2200112111'
p3393
I1
tp3394
F6.2434828119790176
s(S'2222221110'
p3395
I1
tp3396
F-3.3197730452033687
s(S'1211022222'
p3397
I0
tp3398
F-0.5411065515279052
s(S'0211022222'
p3399
I0
tp3400
F12.1340126294426
s(S'0222222221'
p3401
I0
tp3402
F-163.6134952931714
s(S'2222100221'
p3403
I2
tp3404
F3.4908764551102367
s(S'0001222210'
p3405
I2
tp3406
F-0.8561898282101508
s(S'2212110022'
p3407
I2
tp3408
I1
s(S'2001222221'
p3409
I2
tp3410
F-22.679681925614812
s(S'1221012221'
p3411
I2
tp3412
F7.483873953850272
s(S'2211110022'
p3413
I2
tp3414
F3.8650097413594295
s(S'2222220111'
p3415
I1
tp3416
F-97.39536790490112
s(S'2222210011'
p3417
I1
tp3418
F7.703061626708516
s(S'1110122222'
p3419
I2
tp3420
F5.10332925174878
s(S'2222222102'
p3421
I2
tp3422
F-42.92881208927264
s(S'1200122222'
p3423
I0
tp3424
F-2.2916279632896916
s(S'2221011122'
p3425
I2
tp3426
F4.773616190983438
s(S'2002222122'
p3427
I1
tp3428
I1
s(S'2101221222'
p3429
I2
tp3430
F2.966958022703765
s(S'2222222110'
p3431
I1
tp3432
F-0.3503309704005213
s(S'2222222011'
p3433
I0
tp3434
F-172.845501791241
s(S'1022222221'
p3435
I1
tp3436
I-200
s(S'0122200011'
p3437
I2
tp3438
I1
s(S'2222101111'
p3439
I0
tp3440
F14.417582821995452
s(S'1222212100'
p3441
I1
tp3442
I1
s(S'0110222222'
p3443
I1
tp3444
F-111.8562919513832
s(S'2222210121'
p3445
I1
tp3446
F5.920435474877326
s(S'2100122211'
p3447
I0
tp3448
F-0.3542018204295134
s(S'2002222220'
p3449
I1
tp3450
F-25.306322950772017
s(S'1002222210'
p3451
I2
tp3452
F-16.411185351128054
s(S'0122221011'
p3453
I1
tp3454
F-2.3020726490065195
s(S'1222222200'
p3455
I0
tp3456
I-200
s(S'2222111102'
p3457
I2
tp3458
F-1.6999447275900348
s(S'0101222222'
p3459
I2
tp3460
F-52.61874315305999
s(S'1110022222'
p3461
I2
tp3462
F5.220954367728351
s(S'2211102221'
p3463
I2
tp3464
I1
s(S'0122222222'
p3465
I0
tp3466
I-200
s(S'1222011112'
p3467
I2
tp3468
F-0.2004858677758492
s(S'1110002222'
p3469
I1
tp3470
F-97.80082184075202
s(S'1200222211'
p3471
I2
tp3472
F5.21333084840849
s(S'0022101222'
p3473
I2
tp3474
F3.7185370267744524
s(S'0222101111'
p3475
I1
tp3476
F3.1852771940774964
s(S'2210222212'
p3477
I0
tp3478
F9.409762247975003
s(S'1222211110'
p3479
I1
tp3480
F-52.236729350290524
s(S'2221000112'
p3481
I2
tp3482
I1
s(S'1210022222'
p3483
I0
tp3484
F-0.4683406001816337
s(S'2220012222'
p3485
I2
tp3486
F4.314827518200216
s(S'1222001112'
p3487
I0
tp3488
I5
s(S'2100222222'
p3489
I1
tp3490
F-29.864699900895456
s(S'2002222211'
p3491
I1
tp3492
F-4.6752872980344975
s(S'2210000111'
p3493
I1
tp3494
F3.188903221262238
s(S'1100122212'
p3495
I0
tp3496
F8.760404052149052
s(S'2221022222'
p3497
I0
tp3498
F12.31362365984726
s(S'2002222111'
p3499
I2
tp3500
F-2.635583065428726
s(S'0002222200'
p3501
I0
tp3502
F-10.045764877208832
s(S'0121011122'
p3503
I2
tp3504
I1
s(S'1022201222'
p3505
I1
tp3506
F4.32422632761667
s(S'2222210122'
p3507
I2
tp3508
F-2.50651833556062
s(S'2011222222'
p3509
I2
tp3510
F2.4797955743379205
s(S'2222100211'
p3511
I1
tp3512
I1
s(S'1210222221'
p3513
I2
tp3514
F6.354559001370161
s(S'2222001111'
p3515
I2
tp3516
F-97.85297959117132
s(S'1120111222'
p3517
I1
tp3518
I1
s(S'0022001221'
p3519
I0
tp3520
I5
s(S'2201222212'
p3521
I1
tp3522
F-2.665165777546847
s(S'2222222200'
p3523
I2
tp3524
F-123.8832895300407
s(S'2222200112'
p3525
I1
tp3526
F4.462633453060885
s(S'1222111012'
p3527
I1
tp3528
F3.8291273813124995
s(S'2011112210'
p3529
I0
tp3530
F5.35
s(S'2222000011'
p3531
I1
tp3532
F4.3540299057409415
s(S'2100122122'
p3533
I2
tp3534
F4.885238330512704
s(S'2222222220'
p3535
I2
tp3536
F-192.22986671946046
s(S'0122222101'
p3537
I1
tp3538
I1
s(S'1110222222'
p3539
I2
tp3540
F-1.377897681449305
s(S'1210112112'
p3541
I0
tp3542
F9.610974766225556
s(S'1110112122'
p3543
I1
tp3544
I1
s(S'1012222220'
p3545
I0
tp3546
I-200
s(S'2222000122'
p3547
I2
tp3548
F5.211868156186922
s(S'1001222220'
p3549
I2
tp3550
F-6.423284077115788
s(S'2220022220'
p3551
I1
tp3552
F3.8248651713728776
s(S'2222221022'
p3553
I0
tp3554
F-4.934723616396309
s(S'2011122222'
p3555
I0
tp3556
F-1.9363941608030242
s(S'2200011122'
p3557
I0
tp3558
F8.856359777690644
s(S'1222221011'
p3559
I2
tp3560
F-55.0371642533845
s(S'0110012222'
p3561
I0
tp3562
F9.632122787544997
s(S'1001112221'
p3563
I1
tp3564
F2.75
s(S'1222220012'
p3565
I2
tp3566
F-23.29937003343507
s(S'1100022221'
p3567
I0
tp3568
F8.257855584992793
s(S'2222210022'
p3569
I1
tp3570
F4.599976247349593
s(S'0222210222'
p3571
I1
tp3572
F4.906877992335459
s(S'2201222111'
p3573
I2
tp3574
F5.218794476472687
s(S'0022222200'
p3575
I1
tp3576
F-56.26676544825236
s(S'1101222122'
p3577
I2
tp3578
F2.475374212330942
s(S'1122222201'
p3579
I0
tp3580
I-200
s(S'2221110021'
p3581
I2
tp3582
F4.324523530327787
s(S'0222210112'
p3583
I1
tp3584
F6.188975240230521
s(S'1222011111'
p3585
I1
tp3586
F-12.63758426874773
s(S'2222222101'
p3587
I1
tp3588
F-36.26634130700923
s(S'0011122221'
p3589
I1
tp3590
F1.638203125
s(S'1200111122'
p3591
I2
tp3592
F6.180929909745857
s(S'2002222221'
p3593
I2
tp3594
I1
s(S'1002222211'
p3595
I1
tp3596
F-49.83535120461242
s(S'1110011222'
p3597
I2
tp3598
F2.925
s(S'2200112210'
p3599
I1
tp3600
F3.2660255737457167
s(S'1222220122'
p3601
I2
tp3602
F-1.095051267108754
s(S'2001222220'
p3603
I2
tp3604
F2.326268742163576
s(S'2220122220'
p3605
I1
tp3606
F3.4610738658118225
s(S'2222002220'
p3607
I0
tp3608
F9.836514812164657
s(S'2100112222'
p3609
I1
tp3610
F3.69926023297438
s(S'2221012220'
p3611
I0
tp3612
F14.165923028770187
s(S'0122222211'
p3613
I2
tp3614
I-200
s(S'2222220022'
p3615
I1
tp3616
F4.837682655065942
s(S'1222002222'
p3617
I0
tp3618
F9.316297180434205
s(S'2001111221'
p3619
I1
tp3620
F2.976625
s(S'2222201122'
p3621
I0
tp3622
F10.258462319311484
s(S'1101222221'
p3623
I1
tp3624
F-75.54114485924131
s(S'0022221001'
p3625
I0
tp3626
F-27.06004514171957
s(S'2110222222'
p3627
I1
tp3628
F-72.28433286158297
s(S'2222221102'
p3629
I2
tp3630
F-8.233585804115581
s(S'0022110122'
p3631
I2
tp3632
F5.614661110138908
s(S'2210111222'
p3633
I0
tp3634
F10.047683645167067
s(S'0012222100'
p3635
I0
tp3636
F-21.000624999999996
s(S'2222111011'
p3637
I0
tp3638
F-41.1979099439535
s(S'2222001012'
p3639
I2
tp3640
F3.5212566519854622
s(S'2002222210'
p3641
I2
tp3642
F1.0
s(S'0022221111'
p3643
I0
tp3644
I5
s(S'0022100111'
p3645
I0
tp3646
I5
s(S'2222220121'
p3647
I0
tp3648
F-3.266508537797093
s(S'0122222111'
p3649
I1
tp3650
F-67.52669370835959
s(S'0111001222'
p3651
I2
tp3652
F3.9465510832127366
s(S'2200121121'
p3653
I2
tp3654
I1
s(S'2101222211'
p3655
I0
tp3656
F-5.992960637636772
s(S'0022222221'
p3657
I0
tp3658
F-2.5101110999360694
s(S'0111122221'
p3659
I2
tp3660
F3.3043125
s(S'2211101221'
p3661
I2
tp3662
I1
s(S'1011122222'
p3663
I2
tp3664
F-49.94726843860874
s(S'2100122222'
p3665
I0
tp3666
F5.0
s(S'1111211022'
p3667
I0
tp3668
I5
s(S'2220111111'
p3669
I0
tp3670
F-95.89817230800085
s(S'0002222221'
p3671
I0
tp3672
I-200
s(S'1210012111'
p3673
I2
tp3674
I1
s(S'1221102222'
p3675
I2
tp3676
F5.093486853973307
s(S'0222222000'
p3677
I2
tp3678
F-162.225
s(S'2100122111'
p3679
I0
tp3680
F6.272742170591787
s(S'0122222220'
p3681
I0
tp3682
F-21.773286339411698
s(S'1222222012'
p3683
I0
tp3684
F-6.05292271843641
s(S'1122000222'
p3685
I2
tp3686
I1
s(S'2222222221'
p3687
I1
tp3688
F-129.87072581584903
s(S'1210111222'
p3689
I2
tp3690
F4.760218332313856
s(S'0122221022'
p3691
I2
tp3692
I1
s(S'1001122222'
p3693
I0
tp3694
F-130.32569392052955
s(S'2200222122'
p3695
I1
tp3696
F3.518315960981151
s(S'1110000222'
p3697
I0
tp3698
I5
s(S'2100012222'
p3699
I0
tp3700
F10.083153416871383
s(S'0022210222'
p3701
I2
tp3702
I1
s(S'1100122220'
p3703
I0
tp3704
F-1.472342751357652
s(S'2222001110'
p3705
I2
tp3706
F3.8132374344876308
s(S'2200001222'
p3707
I1
tp3708
F6.1940690463802035
s(S'2220011110'
p3709
I1
tp3710
F3.9406638663822706
s(S'2001222200'
p3711
I0
tp3712
F5.525
s(S'2201121122'
p3713
I0
tp3714
F5.0
s(S'1011222222'
p3715
I0
tp3716
I-200
s(S'2222222201'
p3717
I2
tp3718
F-145.94853671393594
s(S'2220011011'
p3719
I0
tp3720
F9.001579277155873
s(S'2220011122'
p3721
I0
tp3722
F11.18808790272454
s(S'1000122221'
p3723
I2
tp3724
F-20.08410231545843
s(S'1100222211'
p3725
I2
tp3726
F3.7375393514616544
s(S'1221110022'
p3727
I2
tp3728
I1
s(S'1210122222'
p3729
I1
tp3730
F0.20060929766886382
s(S'2220001221'
p3731
I0
tp3732
F9.300109850049722
s(S'0222012211'
p3733
I2
tp3734
F6.660144119149771
s(S'1110012222'
p3735
I2
tp3736
F7.7666959328574725
s(S'2211100221'
p3737
I2
tp3738
I1
s(S'0222000110'
p3739
I2
tp3740
I-200
s(S'0012222210'
p3741
I1
tp3742
F-69.0
s(S'0222222001'
p3743
I2
tp3744
F-187.4375
s(S'2200122111'
p3745
I2
tp3746
F4.834455386069413
s(S'2011212222'
p3747
I2
tp3748
F-2.9425869824050146
s(S'1001222221'
p3749
I2
tp3750
F-2.6855372645606295
s(S'0222101111'
p3751
I0
tp3752
F-95.39249374185988
s(S'2222220112'
p3753
I0
tp3754
F-27.81791275125541
s(S'0222220011'
p3755
I1
tp3756
F4.60104670087624
s(S'0100111222'
p3757
I0
tp3758
F7.567629002922063
s(S'2220111112'
p3759
I1
tp3760
F6.758568826963505
s(S'2201222210'
p3761
I1
tp3762
F2.6968363152996204
s(S'2001222100'
p3763
I1
tp3764
I1
s(S'2222111022'
p3765
I1
tp3766
F3.8162861194386286
s(S'2222211021'
p3767
I0
tp3768
F-3.2522090422595493
s(S'1221001222'
p3769
I2
tp3770
F6.504606740916108
s(S'1221000012'
p3771
I0
tp3772
F6.201085146412993
s(S'1012222222'
p3773
I0
tp3774
F-123.34206347252143
s(S'0222011221'
p3775
I0
tp3776
F11.109224336817686
s(S'1222000222'
p3777
I0
tp3778
F11.340768870106832
s(S'2200121222'
p3779
I2
tp3780
F5.015202303836482
s(S'1222011112'
p3781
I1
tp3782
F8.615974281730322
s(S'0120012222'
p3783
I1
tp3784
F3.2538723136191154
s(S'2222220002'
p3785
I0
tp3786
F-97.5
s(S'1222221100'
p3787
I0
tp3788
F-96.625
s(S'0012222221'
p3789
I1
tp3790
I-200
s(S'2100111122'
p3791
I1
tp3792
F3.045471474752874
s(S'1002222221'
p3793
I1
tp3794
F-60.0706555428145
s(S'1222111101'
p3795
I1
tp3796
F1.0
s(S'1220022222'
p3797
I0
tp3798
F11.185718699521011
s(S'1220011111'
p3799
I2
tp3800
F4.903378575902641
s(S'2101111222'
p3801
I2
tp3802
F4.7648056972304085
s(S'2001221221'
p3803
I1
tp3804
I1
s(S'1220122221'
p3805
I0
tp3806
F10.587024789343838
s(S'1101222210'
p3807
I0
tp3808
F3.6262264631067995
s(S'1100002222'
p3809
I2
tp3810
I-200
s(S'1222221001'
p3811
I1
tp3812
F-9.085303549269153
s(S'1022101222'
p3813
I2
tp3814
I1
s(S'1222200111'
p3815
I2
tp3816
F-4.201249332990401
s(S'0222210011'
p3817
I0
tp3818
F1.4951542799398236
s(S'0012210012'
p3819
I2
tp3820
F4.746241244838356
s(S'1201112222'
p3821
I2
tp3822
F4.1249393077394485
s(S'1112221022'
p3823
I1
tp3824
I1
s(S'1022222222'
p3825
I2
tp3826
F-27.949930043834797
s(S'2222221100'
p3827
I1
tp3828
F-19.428420033740984
s(S'1012222211'
p3829
I2
tp3830
F-5.52967675906683
s(S'2110022221'
p3831
I1
tp3832
I1
s(S'2222111021'
p3833
I2
tp3834
F-3.4003027937871053
s(S'0110122222'
p3835
I0
tp3836
F-95.84391810606297
s(S'0222002222'
p3837
I2
tp3838
F2.431032464049644
s(S'1001222211'
p3839
I1
tp3840
F-16.050944546332225
s(S'2221012222'
p3841
I0
tp3842
F10.526554711139067
s(S'2100222220'
p3843
I0
tp3844
F6.7678450838036
s(S'2100002222'
p3845
I2
tp3846
I1
s(S'1100122210'
p3847
I1
tp3848
I1
s(S'0022210122'
p3849
I0
tp3850
F7.426308423024808
s(S'0220022222'
p3851
I2
tp3852
F10.66168916841714
s(S'2222200021'
p3853
I2
tp3854
F-6.276220351110217
s(S'2222220012'
p3855
I0
tp3856
F-3.282006850173522
s(S'2222201120'
p3857
I0
tp3858
F11.25574731203683
s(S'1222211002'
p3859
I2
tp3860
F3.19476494087606
s(S'1211001222'
p3861
I0
tp3862
F9.433821873004169
s(S'2102222221'
p3863
I0
tp3864
F-27.707210431580084
s(S'2221012111'
p3865
I0
tp3866
F10.026479853878108
s(S'2220002222'
p3867
I2
tp3868
F4.444241803501001
s(S'1220012221'
p3869
I2
tp3870
F3.0273968373173332
s(S'1222221101'
p3871
I0
tp3872
I5
s(S'2200011221'
p3873
I2
tp3874
F3.8392817842453786
s(S'1102222222'
p3875
I0
tp3876
F-72.05101089926802
s(S'0110022222'
p3877
I2
tp3878
F6.20657862678509
s(S'2212221012'
p3879
I1
tp3880
F-1.6634904759774143
s(S'2200012110'
p3881
I2
tp3882
F4.165112160571903
s(S'2220011111'
p3883
I2
tp3884
F-97.79128045578209
s(S'0122220011'
p3885
I0
tp3886
I5
s(S'2200222221'
p3887
I2
tp3888
F5.919139997111403
s(S'2220112211'
p3889
I2
tp3890
F7.197255869478426
s(S'0211001222'
p3891
I1
tp3892
I1
s(S'0222221001'
p3893
I1
tp3894
F-0.3440137518958091
s(S'2222200011'
p3895
I1
tp3896
F2.4756947255689554
s(S'1210222211'
p3897
I2
tp3898
F1.7296954953061088
s(S'2000112221'
p3899
I0
tp3900
I5
s(S'1222011122'
p3901
I1
tp3902
F8.12387790822793
s(S'1220111222'
p3903
I0
tp3904
F8.922942056188722
s(S'1222200222'
p3905
I1
tp3906
F4.628966038542911
s(S'2200121122'
p3907
I1
tp3908
F4.8525582777638485
s(S'0022222100'
p3909
I0
tp3910
I-200
s(S'2222102200'
p3911
I1
tp3912
F5.610988424400956
s(S'1101122222'
p3913
I1
tp3914
F-104.53697531352665
s(S'2222201111'
p3915
I0
tp3916
F-95.14382027742593
s(S'1011112222'
p3917
I2
tp3918
F1.0
s(S'0222221100'
p3919
I0
tp3920
F-21.06632979460332
s(S'2222201022'
p3921
I0
tp3922
I5
s(S'2110022222'
p3923
I2
tp3924
F5.121445002845338
s(S'1221011112'
p3925
I2
tp3926
F5.660157340947853
s(S'1201122122'
p3927
I1
tp3928
F-5.086265304374958
s(S'2100222211'
p3929
I0
tp3930
F0.06910208022386843
s.