(dp0
(S'2220111111'
p1
I2
tp2
F1.6160640165401623
s(S'2201222222'
p3
I2
tp4
F1.0
s(S'2221002222'
p5
I2
tp6
F7.878436899930663
s(S'1002222221'
p7
I2
tp8
I1
s(S'1101222222'
p9
I0
tp10
I-200
s(S'2222220111'
p11
I1
tp12
F2.1979420928539994
s(S'2221012211'
p13
I0
tp14
I5
s(S'0222220011'
p15
I0
tp16
I-200
s(S'2222101222'
p17
I0
tp18
F12.058793246313469
s(S'0012222222'
p19
I0
tp20
F5.960652281777343
s(S'2210111111'
p21
I1
tp22
I1
s(S'0022222222'
p23
I2
tp24
F1.8859492738769532
s(S'1012222222'
p25
I2
tp26
F-98.53008057250977
s(S'2101222111'
p27
I0
tp28
F6.3125
s(S'1012222221'
p29
I0
tp30
I-200
s(S'1022222211'
p31
I0
tp32
I-200
s(S'1102222222'
p33
I1
tp34
F1.5507987939453125
s(S'1222200012'
p35
I0
tp36
I5
s(S'1222220011'
p37
I2
tp38
F-99.5
s(S'2222220011'
p39
I0
tp40
I-200
s(S'2102222211'
p41
I0
tp42
F5.175
s(S'0112122221'
p43
I1
tp44
I1
s(S'2200001222'
p45
I2
tp46
I1
s(S'2222012222'
p47
I1
tp48
F4.071502176086838
s(S'0111222220'
p49
I1
tp50
F1.525
s(S'2200111111'
p51
I1
tp52
F2.984325006527216
s(S'2220011111'
p53
I1
tp54
F2.1181443752546545
s(S'2220001222'
p55
I1
tp56
F6.801172294499086
s(S'2220002222'
p57
I0
tp58
F9.772616323482268
s(S'1210122122'
p59
I0
tp60
I5
s(S'2200102222'
p61
I0
tp62
I5
s(S'2222001222'
p63
I2
tp64
F3.343087874626974
s(S'1102222222'
p65
I2
tp66
F-15.539626332031249
s(S'2222002222'
p67
I1
tp68
F3.6019330517634627
s(S'2222220112'
p69
I1
tp70
F2.5615462565040614
s(S'0222220012'
p71
I1
tp72
I1
s(S'0222220001'
p73
I0
tp74
I-200
s(S'0011222221'
p75
I0
tp76
I5
s(S'2012222222'
p77
I1
tp78
F2.182008447265625
s(S'0122222222'
p79
I0
tp80
I-200
s(S'2220000111'
p81
I1
tp82
F1.6272956725225547
s(S'2011112222'
p83
I2
tp84
I1
s(S'2222200222'
p85
I0
tp86
F6.466068580878931
s(S'2220101111'
p87
I1
tp88
I1
s(S'2200122111'
p89
I1
tp90
F4.543749999999999
s(S'2011222222'
p91
I0
tp92
F5.615774396972656
s(S'1022222222'
p93
I0
tp94
F-96.98391406249999
s(S'1102222221'
p95
I0
tp96
I-200
s(S'2222201111'
p97
I1
tp98
F1.35
s(S'2201122111'
p99
I0
tp100
F6.53125
s(S'1011112210'
p101
I2
tp102
F1.35
s(S'0222222001'
p103
I0
tp104
I-200
s(S'1222220012'
p105
I0
tp106
I5
s(S'2011122221'
p107
I1
tp108
F1.0
s(S'1110222221'
p109
I0
tp110
I5
s(S'2200122222'
p111
I1
tp112
I1
s(S'2201112222'
p113
I1
tp114
F5.618998794366455
s(S'2201222111'
p115
I0
tp116
I5
s(S'2222201222'
p117
I0
tp118
F9.032065853849593
s(S'2222000121'
p119
I0
tp120
I5
s(S'0022222222'
p121
I1
tp122
F-99.5
s(S'2222220122'
p123
I1
tp124
F2.043856368295992
s(S'2002222211'
p125
I1
tp126
F1.690375
s(S'2221012222'
p127
I2
tp128
F7.126942566305915
s(S'2222001111'
p129
I0
tp130
F6.214780137817202
s(S'1222200012'
p131
I2
tp132
F-10.725
s(S'2222000111'
p133
I1
tp134
F2.6096886534392087
s(S'0222220011'
p135
I1
tp136
F-99.5
s(S'1101222222'
p137
I1
tp138
F-23.7320454296875
s(S'2220111222'
p139
I1
tp140
I1
s(S'1222222220'
p141
I2
tp142
F1.0
s(S'2102222111'
p143
I0
tp144
F5.23625
s(S'2200222222'
p145
I2
tp146
F1.35
s(S'2210222221'
p147
I1
tp148
F1.0
s(S'1112222210'
p149
I2
tp150
F2.75
s(S'2222210122'
p151
I2
tp152
F2.458027936480634
s(S'2101222211'
p153
I2
tp154
F2.75
s(S'1101222222'
p155
I2
tp156
F-99.5
s(S'2222000112'
p157
I2
tp158
I1
s(S'2220011222'
p159
I0
tp160
I5
s(S'2222220011'
p161
I1
tp162
I-200
s(S'2222210111'
p163
I1
tp164
F2.6649153702585293
s(S'0222220011'
p165
I2
tp166
F-16.15
s(S'0011122221'
p167
I0
tp168
I5
s(S'1222222221'
p169
I0
tp170
I-200
s(S'1002222211'
p171
I2
tp172
I1
s(S'1012222222'
p173
I0
tp174
F-118.41927919232788
s(S'1002222222'
p175
I2
tp176
F-99.325
s(S'2222200112'
p177
I1
tp178
F2.6111280066823097
s(S'2222001211'
p179
I1
tp180
F1.35
s(S'2222200111'
p181
I1
tp182
F3.1600689179632218
s(S'1210222222'
p183
I1
tp184
F-33.727038281249996
s(S'0022222111'
p185
I2
tp186
I1
s(S'0011122210'
p187
I1
tp188
F2.75
s(S'2200222220'
p189
I2
tp190
I1
s(S'1100222222'
p191
I0
tp192
I-200
s(S'2201111222'
p193
I2
tp194
I1
s(S'1002222222'
p195
I1
tp196
F-99.5
s(S'2001112222'
p197
I2
tp198
F3.409547967285156
s(S'2011112221'
p199
I1
tp200
F1.35
s(S'2222000122'
p201
I2
tp202
F3.0606743382637074
s(S'2100222221'
p203
I2
tp204
I1
s(S'2222201111'
p205
I2
tp206
F-98.82242608731667
s(S'0022222222'
p207
I0
tp208
F-96.8704381015625
s(S'1210122222'
p209
I0
tp210
I5
s(S'0222220001'
p211
I2
tp212
F-99.5
s(S'0100222222'
p213
I0
tp214
I5
s(S'1012222211'
p215
I1
tp216
F1.23625
s(S'2220001221'
p217
I2
tp218
F3.9303053143310294
s(S'2001112211'
p219
I1
tp220
F1.35
s(S'0011122220'
p221
I2
tp222
I1
s(S'2222200011'
p223
I1
tp224
I-200
s(S'2001112221'
p225
I1
tp226
F1.35
s(S'2001212222'
p227
I0
tp228
F-28.43856685791016
s(S'1022222222'
p229
I2
tp230
F-11.306640297916868
s(S'2220012210'
p231
I0
tp232
I5
s(S'1102222221'
p233
I2
tp234
F-99.5
s(S'1222220012'
p235
I2
tp236
F-22.9859375
s(S'0111122210'
p237
I0
tp238
F5.35
s(S'0222222222'
p239
I1
tp240
I-200
s(S'2220001111'
p241
I2
tp242
F1.7945072552885883
s(S'2102222221'
p243
I0
tp244
I-200
s(S'2001111111'
p245
I1
tp246
F1.35
s(S'1012222221'
p247
I2
tp248
I-200
s(S'2200112222'
p249
I0
tp250
F7.7446140795159915
s(S'2220012222'
p251
I2
tp252
F6.61326885305693
s(S'1022222211'
p253
I2
tp254
F1.0875
s(S'2222200012'
p255
I1
tp256
F2.441349137011529
s(S'1222220011'
p257
I0
tp258
I-200
s(S'2101122222'
p259
I2
tp260
I1
s(S'2222102222'
p261
I0
tp262
F13.889094275316905
s(S'2220010111'
p263
I2
tp264
F1.7293273240608174
s(S'1200222222'
p265
I2
tp266
I1
s(S'2222220012'
p267
I0
tp268
I-200
s(S'2222001111'
p269
I2
tp270
F-99.0678674939917
s(S'1012222222'
p271
I1
tp272
F-98.87270614257812
s(S'0122222220'
p273
I0
tp274
F5.0
s(S'2201122222'
p275
I2
tp276
I1
s(S'2001222222'
p277
I1
tp278
F2.00493927734375
s(S'2222200011'
p279
I2
tp280
I1
s(S'1022222221'
p281
I0
tp282
I-200
s(S'2101111111'
p283
I2
tp284
F2.2560198191287024
s(S'2222200111'
p285
I0
tp286
I-200
s(S'1102222222'
p287
I0
tp288
I-200
s(S'2101222222'
p289
I2
tp290
F1.67375
s(S'0122222222'
p291
I2
tp292
F2.222360402539062
s(S'2222200122'
p293
I2
tp294
F2.3895717068792646
s(S'2200111222'
p295
I1
tp296
F3.7446507812499994
s(S'2201222211'
p297
I1
tp298
F2.915375
s(S'2101222221'
p299
I0
tp300
F6.225
s(S'1002222222'
p301
I0
tp302
F6.0289435992431635
s(S'0122222001'
p303
I1
tp304
I-200
s(S'2220122221'
p305
I1
tp306
I1
s(S'2200012221'
p307
I2
tp308
F1.35
s(S'2201111111'
p309
I2
tp310
F4.581751345444554
s(S'0222222001'
p311
I2
tp312
I-200
s(S'2101112222'
p313
I0
tp314
F8.673449386352539
s(S'0122222221'
p315
I1
tp316
I1
s(S'0222220001'
p317
I1
tp318
I-200
s(S'0111222221'
p319
I0
tp320
I5
s(S'1110222222'
p321
I0
tp322
I-200
s(S'2210222222'
p323
I0
tp324
I5
s(S'2210122220'
p325
I0
tp326
I5
s(S'2220110111'
p327
I0
tp328
I5
s(S'2222001221'
p329
I0
tp330
F7.28484375
s(S'1022222222'
p331
I1
tp332
F-99.325
s(S'1100222222'
p333
I2
tp334
I1
s(S'0222222001'
p335
I1
tp336
F-200.0
s(S'2222210112'
p337
I2
tp338
I1
s(S'0222222222'
p339
I2
tp340
F-99.5
s(S'2222011211'
p341
I2
tp342
F3.05625
s.