(dp0
(S'2201121122'
p1
I2
tp2
I1
s(S'1222222220'
p3
I0
tp4
I-200
s(S'2220111111'
p5
I2
tp6
F3.0580320082700814
s(S'2200101221'
p7
I2
tp8
I1
s(S'2201222222'
p9
I2
tp10
F3.372671875
s(S'2221002222'
p11
I2
tp12
F7.095783050235714
s(S'0022222001'
p13
I1
tp14
I1
s(S'1222220011'
p15
I1
tp16
F-83.9525
s(S'1100022222'
p17
I2
tp18
I1
s(S'0222222222'
p19
I0
tp20
I-200
s(S'1002222221'
p21
I2
tp22
F-33.64999999999999
s(S'1101222222'
p23
I0
tp24
I-200
s(S'2200222111'
p25
I0
tp26
I5
s(S'2222001122'
p27
I1
tp28
F3.005326449637515
s(S'2222220111'
p29
I1
tp30
F3.4146902491757274
s(S'1110122222'
p31
I0
tp32
F-97.5
s(S'2221012211'
p33
I0
tp34
I5
s(S'2200111122'
p35
I1
tp36
F1.5923203125
s(S'1022222211'
p37
I1
tp38
F1.0
s(S'0222220011'
p39
I0
tp40
I-200
s(S'2222101222'
p41
I0
tp42
F11.123304579989252
s(S'0012222222'
p43
I0
tp44
F-15.695502007680659
s(S'2210111111'
p45
I1
tp46
I1
s(S'2201222221'
p47
I1
tp48
I1
s(S'0022222222'
p49
I2
tp50
F-111.0524012198148
s(S'2210122122'
p51
I0
tp52
I5
s(S'1012222222'
p53
I2
tp54
F-102.65373575325184
s(S'2101222111'
p55
I0
tp56
F7.153669712988281
s(S'2102222221'
p57
I1
tp58
I1
s(S'0121012222'
p59
I0
tp60
I5
s(S'0110122222'
p61
I2
tp62
F-99.41250000000001
s(S'0222101222'
p63
I0
tp64
I5
s(S'1012222221'
p65
I0
tp66
I-200
s(S'2201111221'
p67
I2
tp68
F1.4952212158334757
s(S'1221102222'
p69
I2
tp70
I1
s(S'1022222211'
p71
I0
tp72
I-200
s(S'1102222222'
p73
I1
tp74
F-4.2669218393944925
s(S'1222200012'
p75
I0
tp76
F5.0
s(S'1222220011'
p77
I2
tp78
F-99.5
s(S'1111002222'
p79
I0
tp80
F5.642219421640639
s(S'2222220011'
p81
I0
tp82
I-200
s(S'2102222211'
p83
I0
tp84
F-14.925925565136719
s(S'0112122221'
p85
I1
tp86
I1
s(S'2200001222'
p87
I2
tp88
F2.4195421348142125
s(S'2222012222'
p89
I1
tp90
F5.32460382804083
s(S'1100112222'
p91
I0
tp92
I5
s(S'0111222220'
p93
I1
tp94
F2.3606249999999998
s(S'2200111111'
p95
I1
tp96
F3.7195356216492597
s(S'2220011111'
p97
I1
tp98
F3.2068845271298976
s(S'2200222221'
p99
I1
tp100
F2.8571875
s(S'2220001222'
p101
I1
tp102
F5.177227739564659
s(S'2220002222'
p103
I0
tp104
F11.088257574861348
s(S'1210122122'
p105
I0
tp106
I5
s(S'2200102222'
p107
I0
tp108
I5
s(S'0021012222'
p109
I0
tp110
I5
s(S'0222222211'
p111
I2
tp112
I-200
s(S'2222001222'
p113
I2
tp114
F3.7316723795284132
s(S'1102222222'
p115
I2
tp116
F-15.539626332031249
s(S'2222002222'
p117
I1
tp118
F4.153538608348702
s(S'2222220112'
p119
I1
tp120
F3.1469909640480678
s(S'0222220012'
p121
I1
tp122
I1
s(S'0222220001'
p123
I0
tp124
I-200
s(S'0011222221'
p125
I0
tp126
I5
s(S'2012222222'
p127
I1
tp128
F-15.209463841766356
s(S'0122222222'
p129
I0
tp130
I-200
s(S'2220000111'
p131
I1
tp132
F2.684898550093296
s(S'2101111221'
p133
I0
tp134
I5
s(S'2011112222'
p135
I2
tp136
F1.6339703124999998
s(S'2002222222'
p137
I1
tp138
F-5.278276618613935
s(S'2222200222'
p139
I0
tp140
F6.096324051634447
s(S'0222210122'
p141
I2
tp142
I1
s(S'2220101111'
p143
I1
tp144
F2.034657101966775
s(S'0110122222'
p145
I0
tp146
F-96.58125
s(S'2200122111'
p147
I1
tp148
F5.5891365625
s(S'2011222222'
p149
I0
tp150
F5.615774396972656
s(S'1221002222'
p151
I1
tp152
F1.7674563166294837
s(S'1222221011'
p153
I0
tp154
I-200
s(S'1022222222'
p155
I0
tp156
F-26.339729184352546
s(S'1101122222'
p157
I2
tp158
F1.175
s(S'1102222221'
p159
I0
tp160
I-200
s(S'0022222221'
p161
I1
tp162
I1
s(S'2222201111'
p163
I1
tp164
F8.13898679455612
s(S'2201122111'
p165
I0
tp166
F7.495878006835937
s(S'1011112210'
p167
I2
tp168
F1.35
s(S'0222222001'
p169
I0
tp170
I-200
s(S'1222220012'
p171
I0
tp172
F-65.0
s(S'2011122221'
p173
I1
tp174
F2.75
s(S'2222001121'
p175
I0
tp176
I5
s(S'1110222221'
p177
I0
tp178
I5
s(S'1022222221'
p179
I2
tp180
I1
s(S'2200122222'
p181
I1
tp182
I1
s(S'2201112222'
p183
I1
tp184
F3.679658611675986
s(S'2201222111'
p185
I0
tp186
I5
s(S'2222201222'
p187
I0
tp188
F9.790089086496994
s(S'2222000121'
p189
I0
tp190
F5.78799025851375
s(S'0022222222'
p191
I1
tp192
F-99.5
s(S'2222220122'
p193
I1
tp194
F3.124007832087785
s(S'2102222211'
p195
I1
tp196
F1.6859726562499997
s(S'2012222222'
p197
I0
tp198
F-5.521738523210752
s(S'2200001221'
p199
I0
tp200
F6.248456827634581
s(S'2002222211'
p201
I1
tp202
F1.8940312499999998
s(S'2221012222'
p203
I2
tp204
F5.557850077030998
s(S'2222001111'
p205
I0
tp206
F10.673728225934902
s(S'0222210222'
p207
I2
tp208
I1
s(S'1222200012'
p209
I2
tp210
F-10.725
s(S'1111012222'
p211
I1
tp212
F3.1229140625
s(S'2222000111'
p213
I1
tp214
F3.108019069254893
s(S'0222220011'
p215
I1
tp216
F-99.5
s(S'2210122221'
p217
I1
tp218
I1
s(S'0220122221'
p219
I1
tp220
I1
s(S'2222220012'
p221
I2
tp222
I1
s(S'1101222222'
p223
I1
tp224
F-111.86602271484375
s(S'2220111222'
p225
I1
tp226
F3.8486457016774023
s(S'2222200121'
p227
I2
tp228
I1
s(S'1222222220'
p229
I2
tp230
F-99.30554346477784
s(S'2102222111'
p231
I0
tp232
F6.407259765625
s(S'2200122112'
p233
I0
tp234
I5
s(S'0110122222'
p235
I1
tp236
F-1.5063281249999991
s(S'2200222222'
p237
I2
tp238
F1.35
s(S'2210222221'
p239
I1
tp240
F1.0
s(S'1112222210'
p241
I2
tp242
F3.625
s(S'2222000222'
p243
I1
tp244
I1
s(S'2222210122'
p245
I2
tp246
F3.02574003683333
s(S'2101222211'
p247
I2
tp248
F1.8736461470214842
s(S'1101222222'
p249
I2
tp250
F-3.0804687499999988
s(S'2222000112'
p251
I2
tp252
I1
s(S'0221012222'
p253
I1
tp254
F1.4633712890625001
s(S'2220011222'
p255
I0
tp256
F6.75
s(S'2222220011'
p257
I1
tp258
I-200
s(S'0110222222'
p259
I2
tp260
F4.2681249999999995
s(S'2222210111'
p261
I1
tp262
F3.2174357328584544
s(S'0022222211'
p263
I0
tp264
I-200
s(S'0222220011'
p265
I2
tp266
F-16.15
s(S'0011122221'
p267
I0
tp268
F6.75
s(S'2222200122'
p269
I0
tp270
F6.517007343863536
s(S'1210222222'
p271
I2
tp272
F1.9150312499999997
s(S'2210111222'
p273
I0
tp274
F6.214708144980544
s(S'1222222221'
p275
I0
tp276
I-200
s(S'1002222211'
p277
I2
tp278
F1.905625
s(S'2201222122'
p279
I2
tp280
I1
s(S'1012222222'
p281
I0
tp282
F-118.41927919232788
s(S'1002222222'
p283
I2
tp284
F-99.325
s(S'2222200112'
p285
I1
tp286
F3.068138489986125
s(S'0111012222'
p287
I0
tp288
I5
s(S'2222200011'
p289
I0
tp290
I-200
s(S'2222001211'
p291
I1
tp292
F1.35
s(S'0111022222'
p293
I1
tp294
I-200
s(S'2200111121'
p295
I0
tp296
I5
s(S'2222200111'
p297
I1
tp298
F5.603367916050422
s(S'1210222222'
p299
I1
tp300
F-33.727038281249996
s(S'1101112222'
p301
I1
tp302
I1
s(S'1011122221'
p303
I2
tp304
I1
s(S'0022222111'
p305
I2
tp306
I1
s(S'1210122221'
p307
I2
tp308
F1.4725
s(S'0011122210'
p309
I1
tp310
F3.7474999999999996
s(S'2012221221'
p311
I1
tp312
I1
s(S'0222222012'
p313
I1
tp314
F1.0
s(S'2200222220'
p315
I2
tp316
I1
s(S'1110222222'
p317
I2
tp318
F1.77415625
s(S'1100222222'
p319
I0
tp320
I-200
s(S'2201111222'
p321
I2
tp322
F1.346171875
s(S'1002222222'
p323
I1
tp324
F-99.5
s(S'2201121111'
p325
I0
tp326
I5
s(S'2001112222'
p327
I2
tp328
F4.772559292880535
s(S'2011112221'
p329
I1
tp330
F3.31875
s(S'0122221012'
p331
I2
tp332
I1
s(S'2222000122'
p333
I2
tp334
F2.9265486458911987
s(S'2100222221'
p335
I2
tp336
I1
s(S'2222201111'
p337
I2
tp338
F-98.82242608731667
s(S'0022222222'
p339
I0
tp340
F-45.58521905078125
s(S'1210122222'
p341
I0
tp342
F6.010625
s(S'2220001121'
p343
I1
tp344
I1
s(S'1222102222'
p345
I0
tp346
I5
s(S'0222220001'
p347
I2
tp348
F-99.5
s(S'0100222222'
p349
I0
tp350
I5
s(S'1012222211'
p351
I1
tp352
F1.5524804687499998
s(S'2220001221'
p353
I2
tp354
F4.211774196483129
s(S'0111022222'
p355
I0
tp356
F5.35
s(S'2001112211'
p357
I1
tp358
F1.35
s(S'0011122220'
p359
I2
tp360
I1
s(S'2222200011'
p361
I1
tp362
I-200
s(S'0211022222'
p363
I2
tp364
F1.9849459374999998
s(S'2001112221'
p365
I1
tp366
F1.8859374999999998
s(S'2001212222'
p367
I0
tp368
F-28.43856685791016
s(S'0222221022'
p369
I2
tp370
I1
s(S'2200222211'
p371
I0
tp372
I5
s(S'0210122222'
p373
I1
tp374
F3.2421874999999996
s(S'1022222222'
p375
I2
tp376
F-106.26089301136041
s(S'2220012210'
p377
I0
tp378
I5
s(S'1110112222'
p379
I0
tp380
I5
s(S'1222220012'
p381
I1
tp382
F2.858007385461949
s(S'1102222221'
p383
I2
tp384
F-28.418195878833004
s(S'2001111211'
p385
I1
tp386
I1
s(S'1222220012'
p387
I2
tp388
F-22.9859375
s(S'0111122210'
p389
I0
tp390
F5.70875
s(S'1211022222'
p391
I1
tp392
F1.0
s(S'0222222222'
p393
I1
tp394
I-200
s(S'2220001111'
p395
I2
tp396
F2.895959891831719
s(S'0222222110'
p397
I2
tp398
I-200
s(S'2102222221'
p399
I0
tp400
I-200
s(S'1222101222'
p401
I2
tp402
I1
s(S'2201121222'
p403
I2
tp404
F1.0
s(S'0222222221'
p405
I1
tp406
F1.0
s(S'0122222111'
p407
I0
tp408
F5.0
s(S'1222222222'
p409
I2
tp410
I1
s(S'2001111111'
p411
I1
tp412
F1.35
s(S'1012222221'
p413
I2
tp414
F-200.0
s(S'2200112222'
p415
I0
tp416
F8.835143858584685
s(S'2220012222'
p417
I2
tp418
F6.318515887641705
s(S'2201111121'
p419
I1
tp420
I1
s(S'1022222211'
p421
I2
tp422
F-68.7878125
s(S'2222200012'
p423
I1
tp424
F3.015390217664435
s(S'1222220011'
p425
I0
tp426
I-200
s(S'2101122222'
p427
I2
tp428
I1
s(S'2222220011'
p429
I2
tp430
F-149.575
s(S'2222102222'
p431
I0
tp432
F10.096725625545869
s(S'2220010111'
p433
I2
tp434
F2.1060141933695373
s(S'0022222211'
p435
I1
tp436
I1
s(S'1200222222'
p437
I2
tp438
F4.346
s(S'2211022222'
p439
I2
tp440
F2.7996505330358694
s(S'2222220012'
p441
I0
tp442
I-200
s(S'2222001111'
p443
I2
tp444
F-99.0678674939917
s(S'1012222221'
p445
I1
tp446
F-99.5
s(S'1012222222'
p447
I1
tp448
F-4.471309057111155
s(S'0122222220'
p449
I0
tp450
F5.35
s(S'2201122222'
p451
I2
tp452
I1
s(S'2201111122'
p453
I0
tp454
I5
s(S'2001222222'
p455
I1
tp456
F-7.152203879639357
s(S'1221012222'
p457
I1
tp458
F2.3779062499999997
s(S'2222200011'
p459
I2
tp460
F-114.125625
s(S'0112222221'
p461
I2
tp462
I1
s(S'1022222221'
p463
I0
tp464
I-200
s(S'2101111111'
p465
I2
tp466
F2.821915333862604
s(S'2222200111'
p467
I0
tp468
I-200
s(S'1102222222'
p469
I0
tp470
I-200
s(S'0110022222'
p471
I2
tp472
F1.0
s(S'0122222211'
p473
I2
tp474
I-200
s(S'2101222222'
p475
I2
tp476
F2.74413490234375
s(S'1110022222'
p477
I0
tp478
F7.788296875
s(S'1012221221'
p479
I2
tp480
F-69.0
s(S'0122222222'
p481
I2
tp482
F-98.88881979873047
s(S'2222200122'
p483
I2
tp484
F-9.820294153617022
s(S'2200111222'
p485
I1
tp486
F2.6159223499722053
s(S'2201222211'
p487
I1
tp488
F3.2907570751953124
s(S'2101222221'
p489
I0
tp490
F-15.3346121151831
s(S'2220111121'
p491
I0
tp492
I5
s(S'1002222222'
p493
I0
tp494
F3.6568567723452947
s(S'0122222001'
p495
I1
tp496
I-200
s(S'2220122221'
p497
I1
tp498
I1
s(S'1100222221'
p499
I1
tp500
I1
s(S'0222222111'
p501
I2
tp502
I-200
s(S'2200012221'
p503
I2
tp504
F1.525
s(S'2201111111'
p505
I2
tp506
F4.295141427606291
s(S'0221002222'
p507
I1
tp508
I1
s(S'0222222001'
p509
I2
tp510
I-200
s(S'2101112222'
p511
I0
tp512
F6.431932292716264
s(S'0122222221'
p513
I1
tp514
F1.5930597873277588
s(S'2210222212'
p515
I2
tp516
I1
s(S'0222220001'
p517
I1
tp518
I-200
s(S'2012222222'
p519
I2
tp520
F-16.115
s(S'0122222222'
p521
I1
tp522
F-60.88095423991283
s(S'0111222221'
p523
I0
tp524
F-6.838749999999997
s(S'1111022222'
p525
I2
tp526
F2.17650859375
s(S'2200122122'
p527
I1
tp528
I1
s(S'2001212222'
p529
I1
tp530
I1
s(S'1101222221'
p531
I2
tp532
F1.35
s(S'1110222222'
p533
I0
tp534
I-200
s(S'2210222222'
p535
I0
tp536
F5.7301874999999995
s(S'2210122220'
p537
I0
tp538
I5
s(S'2220110111'
p539
I0
tp540
F5.914050413712677
s(S'2222001221'
p541
I0
tp542
F8.219176513651156
s(S'1022222222'
p543
I1
tp544
F-99.325
s(S'1100222222'
p545
I2
tp546
F1.58625
s(S'1022222111'
p547
I1
tp548
F2.75
s(S'1102222221'
p549
I1
tp550
F-149.75
s(S'2011112211'
p551
I2
tp552
I1
s(S'2011221221'
p553
I1
tp554
I1
s(S'0222222001'
p555
I1
tp556
F-200.0
s(S'2222210112'
p557
I2
tp558
I1
s(S'2200002222'
p559
I2
tp560
I1
s(S'0221022222'
p561
I2
tp562
F1.5087198046874999
s(S'0222222222'
p563
I2
tp564
F-130.60565038793615
s(S'0121022222'
p565
I2
tp566
I1
s(S'2110222222'
p567
I2
tp568
I1
s(S'2222011211'
p569
I2
tp570
F3.05625
s.