(dp0
(S'2201222211'
p1
I2
tp2
F6.2423660315963865
s(S'2220111122'
p3
I0
tp4
F10.94704158647941
s(S'1222000122'
p5
I0
tp6
F8.754994704597177
s(S'2201222222'
p7
I2
tp8
F5.196846228762443
s(S'2001122222'
p9
I0
tp10
F-36.17419544279538
s(S'2221110220'
p11
I0
tp12
I5
s(S'2221001110'
p13
I1
tp14
F2.315611190448612
s(S'1222200022'
p15
I0
tp16
F9.885170631829315
s(S'2100222222'
p17
I2
tp18
F4.005797454225443
s(S'2211000222'
p19
I1
tp20
F1.35
s(S'2002222211'
p21
I0
tp22
F-26.205442925621128
s(S'2222210110'
p23
I0
tp24
F-95.92914093750001
s(S'2220011211'
p25
I1
tp26
F3.3951000741158066
s(S'2222211101'
p27
I2
tp28
F-99.5
s(S'2222001122'
p29
I1
tp30
F6.746090328011255
s(S'2101222211'
p31
I1
tp32
F-0.48775224966959785
s(S'1022201111'
p33
I1
tp34
I1
s(S'0022222211'
p35
I2
tp36
F-130.65072326904516
s(S'2000012221'
p37
I2
tp38
I1
s(S'1111001222'
p39
I0
tp40
F9.353982748846683
s(S'2111022222'
p41
I0
tp42
I5
s(S'2220011112'
p43
I0
tp44
F9.328708809828374
s(S'0222221012'
p45
I1
tp46
F2.890290334991332
s(S'0222222211'
p47
I2
tp48
F-33.681904687499994
s(S'1012222222'
p49
I2
tp50
F-75.49681667501025
s(S'1111111022'
p51
I1
tp52
F1.0
s(S'1201222222'
p53
I2
tp54
F4.4618906768067355
s(S'2222222200'
p55
I2
tp56
F-112.15333750796196
s(S'1001222222'
p57
I0
tp58
F-163.57217707471452
s(S'1222222222'
p59
I0
tp60
I-200
s(S'0222200012'
p61
I2
tp62
F1.0
s(S'2222001011'
p63
I0
tp64
I-200
s(S'2211110122'
p65
I1
tp66
I1
s(S'2102222222'
p67
I1
tp68
F-13.332885316913304
s(S'2222210122'
p69
I1
tp70
F6.769656854904769
s(S'2222220002'
p71
I2
tp72
F2.342821683935164
s(S'2101222220'
p73
I2
tp74
F5.537247284389977
s(S'1011122221'
p75
I0
tp76
F6.58375
s(S'1222200012'
p77
I2
tp78
F1.0
s(S'1222011221'
p79
I1
tp80
I1
s(S'0122200122'
p81
I2
tp82
F1.0
s(S'2222210022'
p83
I1
tp84
F2.7034230125434124
s(S'2210122112'
p85
I1
tp86
F2.6046600718697785
s(S'2222000012'
p87
I2
tp88
F2.0596578125
s(S'0222001221'
p89
I2
tp90
F1.35
s(S'1002222220'
p91
I2
tp92
F-21.868128547008343
s(S'1222210122'
p93
I0
tp94
F7.7289092371201376
s(S'1221101222'
p95
I0
tp96
F8.542790944147704
s(S'1100222210'
p97
I2
tp98
I1
s(S'0011122221'
p99
I1
tp100
F1.616875
s(S'0112222220'
p101
I1
tp102
I1
s(S'2222201121'
p103
I2
tp104
F3.068969288822643
s(S'2100222221'
p105
I0
tp106
F-23.673633605867764
s(S'0222210222'
p107
I1
tp108
F5.43453585247031
s(S'1222222001'
p109
I2
tp110
F-149.7171875
s(S'0122222221'
p111
I2
tp112
I-200
s(S'2222221002'
p113
I2
tp114
F-34.08855724778732
s(S'2222101201'
p115
I2
tp116
F4.706096136824732
s(S'0220122212'
p117
I0
tp118
F5.0
s(S'2222201200'
p119
I0
tp120
I5
s(S'2101112222'
p121
I2
tp122
F4.247701569062295
s(S'0011222221'
p123
I0
tp124
F5.0
s(S'0222222000'
p125
I1
tp126
F-149.75
s(S'1100111222'
p127
I2
tp128
I1
s(S'2222222220'
p129
I1
tp130
F-114.51948275902474
s(S'2011112222'
p131
I2
tp132
F2.6679074638182207
s(S'1222222110'
p133
I2
tp134
F-99.08987938831149
s(S'2210122222'
p135
I0
tp136
F-8.839896521200583
s(S'0222222210'
p137
I0
tp138
F-104.07979882520628
s(S'1222210002'
p139
I0
tp140
F5.60439545192683
s(S'2201122122'
p141
I2
tp142
F5.118105238264104
s(S'1022222210'
p143
I0
tp144
I-200
s(S'2110122222'
p145
I1
tp146
F-1.0464902172916983
s(S'0121012212'
p147
I1
tp148
I1
s(S'2201222210'
p149
I1
tp150
I1
s(S'1022222222'
p151
I0
tp152
F-121.7807617447145
s(S'2201222112'
p153
I2
tp154
I1
s(S'2222100111'
p155
I0
tp156
F10.081361353030097
s(S'1102222221'
p157
I0
tp158
F-200.0
s(S'1222201222'
p159
I0
tp160
F8.945055886724678
s(S'0222201111'
p161
I1
tp162
F-2.5310783729220763
s(S'0122011222'
p163
I1
tp164
F2.2260653671875
s(S'0111002222'
p165
I2
tp166
F2.9680976971564292
s(S'1122210222'
p167
I1
tp168
I1
s(S'2222211001'
p169
I1
tp170
F-4.036146848267293
s(S'1222101222'
p171
I2
tp172
F5.3370411245256815
s(S'1100022222'
p173
I0
tp174
F-99.64773220703124
s(S'2210112222'
p175
I0
tp176
I5
s(S'1122001222'
p177
I1
tp178
F6.52769679047104
s(S'2000122210'
p179
I1
tp180
I1
s(S'0111022222'
p181
I1
tp182
F-96.94297019121903
s(S'2222221022'
p183
I1
tp184
F2.234713053115864
s(S'2011122222'
p185
I1
tp186
F-0.7153509091026109
s(S'2210012210'
p187
I2
tp188
F5.091206361011102
s(S'2201222220'
p189
I0
tp190
F7.801354187914749
s(S'2222201100'
p191
I2
tp192
F3.5228553878149964
s(S'2221110222'
p193
I2
tp194
F3.135304964955078
s(S'2222110022'
p195
I2
tp196
F4.684755975913669
s(S'2222222201'
p197
I1
tp198
F-200.0
s(S'2200122220'
p199
I2
tp200
F6.027415766065088
s(S'1120002222'
p201
I0
tp202
F8.41355638099229
s(S'0221011111'
p203
I0
tp204
I5
s(S'2222100220'
p205
I2
tp206
I1
s(S'1211000222'
p207
I0
tp208
F5.35
s(S'2100112100'
p209
I0
tp210
I5
s(S'0210022222'
p211
I2
tp212
F10.039159805696476
s(S'2222210120'
p213
I1
tp214
F3.148237852654674
s(S'0112222222'
p215
I2
tp216
F-39.38426304774253
s(S'0122011122'
p217
I2
tp218
F2.805680597100781
s(S'2222220111'
p219
I0
tp220
I-200
s(S'0122101111'
p221
I0
tp222
F5.0
s(S'2222210011'
p223
I0
tp224
I-200
s(S'0122200222'
p225
I0
tp226
F10.04261777711461
s(S'2222000111'
p227
I1
tp228
F4.606868592683568
s(S'1122222201'
p229
I0
tp230
I-200
s(S'1110122222'
p231
I2
tp232
F5.78974390850434
s(S'2222101222'
p233
I1
tp234
F4.392389603230891
s(S'2222220012'
p235
I2
tp236
F-3.2198467773437502
s(S'1200122222'
p237
I1
tp238
F-18.34762528648629
s(S'2222211011'
p239
I1
tp240
F-1.2704272403666694
s(S'2211012221'
p241
I0
tp242
I5
s(S'0122012222'
p243
I0
tp244
F6.024953553726303
s(S'0022222101'
p245
I0
tp246
F5.0
s(S'1222222220'
p247
I2
tp248
F-96.56484019527804
s(S'2102222221'
p249
I2
tp250
F-59.15058799990099
s(S'2200122112'
p251
I0
tp252
F7.753712830030279
s(S'2222222222'
p253
I2
tp254
I1
s(S'0022222200'
p255
I0
tp256
F-200.0
s(S'0222011111'
p257
I1
tp258
F-3.1585491802610877
s(S'2222222011'
p259
I1
tp260
F-150.49026765403252
s(S'2222110011'
p261
I2
tp262
F1.4725
s(S'1222222101'
p263
I1
tp264
F1.35
s(S'2222100110'
p265
I2
tp266
F7.720972813261798
s(S'1001222221'
p267
I1
tp268
F-64.73475588425906
s(S'1101222222'
p269
I2
tp270
F-40.65771946030908
s(S'2222012201'
p271
I2
tp272
F4.6337781685382655
s(S'1221011111'
p273
I2
tp274
F5.8874606468408395
s(S'1222011111'
p275
I1
tp276
F-12.63758426874773
s(S'2222201210'
p277
I1
tp278
F5.268812337928525
s(S'1222222221'
p279
I2
tp280
F-171.27472770636547
s(S'1101222221'
p281
I0
tp282
I-200
s(S'2222111002'
p283
I1
tp284
F3.1932186442513504
s(S'1222221011'
p285
I1
tp286
F-37.966003425086754
s(S'0222220011'
p287
I2
tp288
F-99.5
s(S'2222222001'
p289
I1
tp290
F-102.3348485367784
s(S'1012222210'
p291
I2
tp292
F-11.940675420582904
s(S'0122001112'
p293
I0
tp294
F6.415607659552075
s(S'0012222222'
p295
I2
tp296
F-23.77893004990158
s(S'2222211011'
p297
I0
tp298
F-49.42087244130933
s(S'1002222211'
p299
I2
tp300
F-31.488698059435038
s(S'0011100222'
p301
I1
tp302
F3.3236406444429134
s(S'2212210122'
p303
I0
tp304
F6.75
s(S'0011101222'
p305
I0
tp306
I5
s(S'1002222222'
p307
I2
tp308
F-108.67682240246094
s(S'2222001120'
p309
I1
tp310
I1
s(S'1122002222'
p311
I0
tp312
I5
s(S'2221000222'
p313
I0
tp314
F8.883214838221756
s(S'0222221002'
p315
I2
tp316
F-48.67613789255981
s(S'2210222221'
p317
I2
tp318
F6.281451091976461
s(S'2222211102'
p319
I2
tp320
F-8.147046090406736
s(S'2222211021'
p321
I1
tp322
F1.5339537846910443
s(S'2220122112'
p323
I1
tp324
F4.011959572360138
s(S'2222200111'
p325
I1
tp326
F5.01367490542479
s(S'1100122221'
p327
I1
tp328
F2.789841148049856
s(S'0122222110'
p329
I1
tp330
I1
s(S'2210011112'
p331
I1
tp332
F2.8352753444256
s(S'1001112222'
p333
I0
tp334
F3.5009877432655703
s(S'2221001222'
p335
I0
tp336
F12.243834215822288
s(S'2101222222'
p337
I1
tp338
F-11.577807407425688
s(S'2102222221'
p339
I1
tp340
F-21.11279314131696
s(S'0221022221'
p341
I2
tp342
F8.823217670572468
s(S'2222222001'
p343
I0
tp344
F-200.0
s(S'2110122222'
p345
I2
tp346
F5.7915175828004015
s(S'0111012222'
p347
I2
tp348
F7.167755455063375
s(S'2210222210'
p349
I2
tp350
F3.303721730626193
s(S'1221111022'
p351
I2
tp352
F4.608798131663432
s(S'2222222210'
p353
I2
tp354
F-187.3864144330139
s(S'2201111222'
p355
I2
tp356
F6.18374010023106
s(S'2101221111'
p357
I0
tp358
I5
s(S'1012101112'
p359
I2
tp360
I1
s(S'0022222201'
p361
I2
tp362
I-200
s(S'0221011112'
p363
I2
tp364
F5.029339565831471
s(S'2011211221'
p365
I0
tp366
I5
s(S'0012222200'
p367
I2
tp368
I1
s(S'1111100222'
p369
I0
tp370
F8.094668133493546
s(S'2222201111'
p371
I2
tp372
F-7.084634520199156
s(S'2222220011'
p373
I1
tp374
F-8.220007874679556
s(S'0122221001'
p375
I0
tp376
F-21.84848105692852
s(S'1101112222'
p377
I1
tp378
F-46.872457028714706
s(S'2221111012'
p379
I1
tp380
F2.699097720286657
s(S'2200111112'
p381
I2
tp382
F5.266333146036998
s(S'1222211110'
p383
I0
tp384
F-10.359033951419333
s(S'0222222012'
p385
I1
tp386
F2.182720959941383
s(S'0222220001'
p387
I2
tp388
I-200
s(S'2110222222'
p389
I0
tp390
F-45.675397965279984
s(S'0222201222'
p391
I2
tp392
F4.276451419327531
s(S'2210002222'
p393
I1
tp394
F2.5938555704045427
s(S'1111102222'
p395
I2
tp396
F5.026559430824863
s(S'1210022222'
p397
I1
tp398
F-1.8076079392407491
s(S'0121102222'
p399
I0
tp400
F8.51885814840305
s(S'0022011122'
p401
I1
tp402
I1
s(S'2200222211'
p403
I0
tp404
F8.440660580668638
s(S'2001122222'
p405
I2
tp406
F3.95457963488325
s(S'2221002222'
p407
I0
tp408
F10.915233718820426
s(S'2221211021'
p409
I1
tp410
F1.9446361626423245
s(S'1222001112'
p411
I1
tp412
F3.955247098314638
s(S'2222111011'
p413
I1
tp414
F-7.019394140624998
s(S'2200122222'
p415
I2
tp416
F6.515829376027801
s(S'1120112222'
p417
I0
tp418
F8.07474826249163
s(S'2002222211'
p419
I2
tp420
I1
s(S'2222100222'
p421
I2
tp422
F4.683967199964485
s(S'2220122122'
p423
I2
tp424
F6.275215080101503
s(S'2222211101'
p425
I0
tp426
F-97.5
s(S'2101222111'
p427
I1
tp428
F2.1219936095957896
s(S'2222220010'
p429
I0
tp430
F-96.63056427495536
s(S'0022222210'
p431
I1
tp432
F-69.0
s(S'0222210122'
p433
I2
tp434
F3.5047535810276536
s(S'0210122222'
p435
I2
tp436
F9.723680773330123
s(S'0222222211'
p437
I0
tp438
F-44.74918231378253
s(S'2201121222'
p439
I2
tp440
I1
s(S'2222101221'
p441
I0
tp442
F12.828928270014153
s(S'2210001222'
p443
I2
tp444
I1
s(S'2001222222'
p445
I1
tp446
F-26.3421790292263
s(S'2200101221'
p447
I0
tp448
I5
s(S'1001222222'
p449
I2
tp450
F-65.23147605303167
s(S'1222222222'
p451
I2
tp452
I-200
s(S'2222220012'
p453
I1
tp454
F2.4487347116498963
s(S'2222211012'
p455
I0
tp456
F-5.92796372765195
s(S'0122101222'
p457
I1
tp458
F5.925782474036117
s(S'1102222220'
p459
I0
tp460
I-200
s(S'2221011221'
p461
I1
tp462
F1.8253012578410193
s(S'2222221101'
p463
I2
tp464
F-119.68103735415559
s(S'0222222101'
p465
I2
tp466
I-200
s(S'0011022222'
p467
I1
tp468
F4.269384854612859
s(S'2220011221'
p469
I1
tp470
I1
s(S'2200122211'
p471
I0
tp472
F8.807944006056125
s(S'1222212100'
p473
I1
tp474
I1
s(S'0122200022'
p475
I0
tp476
I5
s(S'1100112222'
p477
I1
tp478
F-2.711776461480654
s(S'2222222102'
p479
I1
tp480
F-4.7680759252371185
s(S'0211012222'
p481
I1
tp482
F2.3339987550023484
s(S'1200122222'
p483
I2
tp484
F5.6721671863742715
s(S'1210011122'
p485
I0
tp486
F5.0
s(S'0122001222'
p487
I0
tp488
F11.642940482968614
s(S'1002222220'
p489
I0
tp490
I-200
s(S'1222102222'
p491
I1
tp492
F8.54609579652837
s(S'0022222012'
p493
I0
tp494
F-11.160921801613561
s(S'1122101222'
p495
I1
tp496
F6.275527212401146
s(S'1000222222'
p497
I2
tp498
F-37.49454080964741
s(S'2222200112'
p499
I2
tp500
F-16.241014857871455
s(S'0100022222'
p501
I0
tp502
I-200
s(S'1222222001'
p503
I0
tp504
I-200
s(S'2210022222'
p505
I0
tp506
F-24.767160771976755
s(S'2222111012'
p507
I1
tp508
F3.3809983631953546
s(S'1012222222'
p509
I0
tp510
F-123.34206347252143
s(S'2110122221'
p511
I0
tp512
F5.454861473076084
s(S'2222111011'
p513
I0
tp514
F-41.1979099439535
s(S'2222211100'
p515
I2
tp516
F1.6791688563639218
s(S'2101111111'
p517
I2
tp518
F4.040286803138228
s(S'0122210012'
p519
I1
tp520
F2.544850588854029
s(S'1222211100'
p521
I1
tp522
F-6.277719160924932
s(S'0122002221'
p523
I0
tp524
I5
s(S'2200122212'
p525
I2
tp526
F3.5674890253246203
s(S'2102222211'
p527
I1
tp528
F-8.285789648649565
s(S'0011222221'
p529
I2
tp530
F-0.553935643602844
s(S'0122222111'
p531
I0
tp532
F5.0
s(S'2221001111'
p533
I2
tp534
F3.3249238660360882
s(S'0122220022'
p535
I1
tp536
F1.961498646341413
s(S'2222102210'
p537
I0
tp538
F7.983983871753733
s(S'2211012222'
p539
I0
tp540
F9.939399542522775
s(S'2221001221'
p541
I1
tp542
F3.195755281578347
s(S'0110011222'
p543
I1
tp544
I1
s(S'2210122222'
p545
I2
tp546
F9.058978774474367
s(S'0222222210'
p547
I2
tp548
F-15.44112305937293
s(S'2210111112'
p549
I0
tp550
F7.359530268691051
s(S'1100222222'
p551
I1
tp552
F-119.44968217580146
s(S'1002222210'
p553
I2
tp554
F-11.023812500000002
s(S'2221111022'
p555
I1
tp556
F2.154524433706421
s(S'1001122222'
p557
I1
tp558
F-128.7558019622276
s(S'1012222220'
p559
I1
tp560
F-200.0
s(S'2220112111'
p561
I1
tp562
F5.567512483843389
s(S'2220122211'
p563
I0
tp564
F10.654086407912999
s(S'2221001211'
p565
I1
tp566
F1.35
s(S'0122101221'
p567
I1
tp568
I1
s(S'1222220002'
p569
I1
tp570
I1
s(S'2221222102'
p571
I1
tp572
I1
s(S'0222222011'
p573
I2
tp574
F-116.9125
s(S'0222222100'
p575
I0
tp576
I-200
s(S'2210121122'
p577
I0
tp578
F6.681641234207748
s(S'0022222222'
p579
I1
tp580
F-177.79649001170313
s(S'2000012222'
p581
I1
tp582
F1.0
s(S'2222210120'
p583
I0
tp584
F-2.0572076682399265
s(S'1012222110'
p585
I0
tp586
I5
s(S'0222220012'
p587
I2
tp588
F-35.875336115966796
s(S'1111211022'
p589
I0
tp590
I5
s(S'0120012222'
p591
I1
tp592
I1
s(S'2222222101'
p593
I0
tp594
F-121.13410931290048
s(S'1111012222'
p595
I0
tp596
F11.133333913737996
s(S'2222011221'
p597
I1
tp598
F6.89965976166998
s(S'2211221022'
p599
I1
tp600
I1
s(S'1222222001'
p601
I1
tp602
F-51.622958751607044
s(S'1200121222'
p603
I0
tp604
I5
s(S'1011222222'
p605
I1
tp606
F-60.41151361384026
s(S'1001222220'
p607
I1
tp608
F1.9625
s(S'1222111022'
p609
I2
tp610
F4.366908159735923
s(S'0122100222'
p611
I0
tp612
F10.59150447706358
s(S'2001222221'
p613
I1
tp614
F-53.855842156814695
s(S'1222000112'
p615
I1
tp616
I1
s(S'2210222222'
p617
I2
tp618
F6.2754090596866305
s(S'1222210222'
p619
I0
tp620
F10.546746957868184
s(S'0210022222'
p621
I0
tp622
F11.050015724734696
s(S'2222221001'
p623
I0
tp624
F-179.03969177491547
s(S'1001222201'
p625
I2
tp626
I1
s(S'0222221001'
p627
I2
tp628
F-12.126740528464259
s(S'0221012221'
p629
I2
tp630
F4.674799739361413
s(S'0222001222'
p631
I1
tp632
I1
s(S'0222222001'
p633
I1
tp634
F-119.53074183691234
s(S'1210122222'
p635
I2
tp636
F6.182635028737826
s(S'0221012212'
p637
I2
tp638
I1
s(S'0222001111'
p639
I2
tp640
F0.6539568714936148
s(S'1110122222'
p641
I1
tp642
F-9.066210376181848
s(S'1222221110'
p643
I0
tp644
F-28.292732326542634
s(S'2222210022'
p645
I0
tp646
F-28.009671462777696
s(S'2201112222'
p647
I2
tp648
F5.5003947704896055
s(S'1222222220'
p649
I0
tp650
I-200
s(S'1222221002'
p651
I2
tp652
F-10.704260903144704
s(S'2222222222'
p653
I0
tp654
I-200
s(S'0012222210'
p655
I0
tp656
I5
s(S'2222101100'
p657
I0
tp658
I5
s(S'2220011222'
p659
I2
tp660
F5.198781384352644
s(S'1001122221'
p661
I1
tp662
I1
s(S'1220122221'
p663
I0
tp664
F7.50157177786384
s(S'2222201110'
p665
I0
tp666
F7.278253367120799
s(S'0222222111'
p667
I0
tp668
I-200
s(S'1101222222'
p669
I0
tp670
F-189.60472000299828
s(S'0222222201'
p671
I0
tp672
I-200
s(S'1111012222'
p673
I2
tp674
F4.529153973991134
s(S'0021012222'
p675
I0
tp676
F8.674470636540256
s(S'2222210220'
p677
I2
tp678
I1
s(S'2222210121'
p679
I2
tp680
F4.1091716857607254
s(S'0120122222'
p681
I0
tp682
F11.255360872666287
s(S'0222220011'
p683
I0
tp684
I-200
s(S'2101222221'
p685
I0
tp686
F-38.61875
s(S'1222011222'
p687
I2
tp688
F7.382999571601683
s(S'1222200011'
p689
I1
tp690
F2.0131082058796155
s(S'2221211012'
p691
I2
tp692
I1
s(S'1002222211'
p693
I0
tp694
F-34.18782163223268
s(S'0222102222'
p695
I2
tp696
F5.638583403773763
s(S'2222011111'
p697
I0
tp698
F2.2528403990854553
s(S'0122222201'
p699
I1
tp700
I-200
s(S'1220112212'
p701
I0
tp702
F9.231808509573348
s(S'0222011111'
p703
I2
tp704
F-98.33413533666746
s(S'2200111111'
p705
I0
tp706
F9.42878256821847
s(S'0111101222'
p707
I2
tp708
F2.531226184998159
s(S'2222211102'
p709
I0
tp710
F-4.992217286356047
s(S'1022222211'
p711
I0
tp712
I-200
s(S'2222222221'
p713
I2
tp714
F-200.0
s(S'1210121122'
p715
I2
tp716
I1
s(S'2220012220'
p717
I1
tp718
I1
s(S'0221012222'
p719
I0
tp720
F13.766276517678005
s(S'2222222210'
p721
I1
tp722
I-200
s(S'2222012221'
p723
I1
tp724
F5.932989369840907
s(S'2101222111'
p725
I0
tp726
F-0.28279732786855316
s(S'2222011110'
p727
I1
tp728
F3.285503471067173
s(S'1120012222'
p729
I1
tp730
F4.172613589885904
s(S'2222200122'
p731
I1
tp732
F4.592561807106796
s(S'2200011221'
p733
I2
tp734
I1
s(S'0222221012'
p735
I2
tp736
F-43.204970963784454
s(S'1112110222'
p737
I1
tp738
F2.040589288882485
s(S'2222222210'
p739
I0
tp740
F-165.67174873247234
s(S'1220122222'
p741
I2
tp742
F6.358871429739255
s(S'1220012222'
p743
I2
tp744
F6.864108934410265
s(S'1222011211'
p745
I1
tp746
I1
s(S'1222220002'
p747
I2
tp748
F2.690083750355564
s(S'1002222210'
p749
I0
tp750
I-200
s(S'1100222221'
p751
I0
tp752
F-38.625523952300156
s(S'2101222212'
p753
I1
tp754
F1.12884375
s(S'1111100222'
p755
I2
tp756
F3.107987081533535
s(S'2102222210'
p757
I2
tp758
I1
s(S'2012222111'
p759
I1
tp760
F-14.427721462810563
s(S'2200001221'
p761
I1
tp762
F1.0
s(S'2200111121'
p763
I0
tp764
I5
s(S'1220111122'
p765
I0
tp766
F11.2776626500793
s(S'2220000112'
p767
I1
tp768
F3.955786557494323
s(S'2222001112'
p769
I1
tp770
F5.53353672303296
s(S'2220010111'
p771
I0
tp772
I5
s(S'0222012222'
p773
I2
tp774
F1.964219362466147
s(S'2012222222'
p775
I1
tp776
F-47.35554889875658
s(S'1222222200'
p777
I0
tp778
I-200
s(S'0111222221'
p779
I1
tp780
F1.065625
s(S'1002222221'
p781
I0
tp782
F-200.0
s(S'2200122122'
p783
I2
tp784
F7.101913967091431
s(S'2002222222'
p785
I1
tp786
F-27.986260512050038
s(S'2101222121'
p787
I0
tp788
F5.842948571996567
s(S'2222012210'
p789
I2
tp790
F2.537124235379519
s(S'1220122212'
p791
I0
tp792
F12.052404342634318
s(S'1221002222'
p793
I0
tp794
F10.956698941955146
s(S'0222222002'
p795
I2
tp796
F-51.412499999999994
s(S'0101222222'
p797
I2
tp798
F-98.11672675920529
s(S'1220012211'
p799
I2
tp800
F3.900029191041967
s(S'2000122220'
p801
I0
tp802
I5
s(S'0122222221'
p803
I0
tp804
F-200.0
s(S'2222110111'
p805
I1
tp806
I1
s(S'2222211021'
p807
I2
tp808
F-3.365094922718045
s(S'2222211022'
p809
I1
tp810
F2.64135376751992
s(S'2222002222'
p811
I2
tp812
F4.179332194046413
s(S'1200022222'
p813
I2
tp814
I1
s(S'1222221001'
p815
I2
tp816
I1
s(S'0122000222'
p817
I1
tp818
F7.435060690719961
s(S'0022100222'
p819
I1
tp820
I1
s(S'1222222011'
p821
I0
tp822
I-200
s(S'1122221022'
p823
I0
tp824
F6.426660086047031
s(S'0220022221'
p825
I1
tp826
F7.125529345973706
s(S'1221110022'
p827
I2
tp828
I1
s(S'0111022222'
p829
I2
tp830
F8.440885956468655
s(S'2221011211'
p831
I2
tp832
I1
s(S'1222122101'
p833
I0
tp834
I5
s(S'2101112222'
p835
I0
tp836
F0.8372964485900232
s(S'2222221101'
p837
I0
tp838
I-200
s(S'2222211012'
p839
I2
tp840
F0.917389783369924
s(S'1201112222'
p841
I1
tp842
F-0.44462030636277117
s(S'1102222220'
p843
I2
tp844
I1
s(S'2000222222'
p845
I0
tp846
I5
s(S'0222222101'
p847
I0
tp848
I-200
s(S'2220012210'
p849
I0
tp850
F8.101549889585735
s(S'2222221100'
p851
I0
tp852
I-200
s(S'2011222222'
p853
I1
tp854
F-36.6029794809327
s(S'0222201111'
p855
I2
tp856
I-200
s(S'2210222222'
p857
I0
tp858
F-31.607706604386692
s(S'2221102222'
p859
I2
tp860
I1
s(S'0222222201'
p861
I2
tp862
I-200
s(S'2222001111'
p863
I1
tp864
F1.0951322944029807
s(S'2100122222'
p865
I1
tp866
F-43.45144807910419
s(S'0222012221'
p867
I0
tp868
F9.006215227771495
s(S'1222011111'
p869
I2
tp870
I1
s(S'1111022222'
p871
I0
tp872
F-94.0068152178943
s(S'2201222221'
p873
I2
tp874
F5.6020771515812715
s(S'0022201121'
p875
I0
tp876
I5
s(S'0221102222'
p877
I0
tp878
F10.016516512652986
s(S'1220112122'
p879
I1
tp880
F4.101590025915442
s(S'2221001101'
p881
I1
tp882
I1
s(S'2220111111'
p883
I1
tp884
F7.746390617286798
s(S'2200122221'
p885
I0
tp886
F9.350588926510454
s(S'2221011210'
p887
I2
tp888
I1
s(S'1000222222'
p889
I0
tp890
I-200
s(S'2101121222'
p891
I0
tp892
F6.028862213589356
s(S'1201111222'
p893
I2
tp894
F1.0
s(S'0110122222'
p895
I1
tp896
I-200
s(S'2210022222'
p897
I2
tp898
F8.943704589264648
s(S'2222011011'
p899
I0
tp900
I-200
s(S'2222000222'
p901
I1
tp902
F7.528783738467705
s(S'0121012222'
p903
I1
tp904
F6.168185233068981
s(S'0222221111'
p905
I1
tp906
I1
s(S'0222221110'
p907
I1
tp908
F-2.32237374195758
s(S'1222222201'
p909
I2
tp910
I1
s(S'1222220011'
p911
I1
tp912
F-98.13928732830271
s(S'2221211022'
p913
I1
tp914
F2.0349061028340802
s(S'2222210111'
p915
I1
tp916
F4.685577231577063
s(S'1001222211'
p917
I0
tp918
F-13.17784139655214
s(S'0002222200'
p919
I2
tp920
I1
s(S'1222221002'
p921
I0
tp922
I-200
s(S'2210112111'
p923
I1
tp924
F4.117449479698869
s(S'1221022222'
p925
I2
tp926
F10.521171641338851
s(S'2222222102'
p927
I0
tp928
F-30.185501643174742
s(S'1221000022'
p929
I1
tp930
I1
s(S'2101222221'
p931
I2
tp932
F5.663139119633639
s(S'1222222221'
p933
I0
tp934
I-200
s(S'0222200011'
p935
I2
tp936
I-200
s(S'2222222221'
p937
I0
tp938
I-200
s(S'2222221021'
p939
I2
tp940
F-4.151597972342314
s(S'1122210122'
p941
I1
tp942
F4.648515555550988
s(S'1100222211'
p943
I1
tp944
F1.5379046775648897
s(S'2210000222'
p945
I2
tp946
I1
s(S'1222222100'
p947
I1
tp948
F-146.50686991104436
s(S'2012222211'
p949
I2
tp950
F-0.7657585187588258
s(S'2222222011'
p951
I2
tp952
F-21.62632050119003
s(S'1210122222'
p953
I0
tp954
F-5.0791937234835345
s(S'0222222100'
p955
I2
tp956
I1
s(S'0120111222'
p957
I2
tp958
I1
s(S'0222222110'
p959
I1
tp960
I-200
s(S'1111002222'
p961
I2
tp962
F7.096648266907405
s(S'2220022221'
p963
I1
tp964
F4.701698269024366
s(S'0222220012'
p965
I0
tp966
F1.3102277440233507
s(S'2222100022'
p967
I2
tp968
F3.929818794388487
s(S'1220000122'
p969
I2
tp970
I1
s(S'2222100021'
p971
I0
tp972
I5
s(S'1222001222'
p973
I2
tp974
F6.211371889152671
s(S'2220000111'
p975
I0
tp976
F5.65625
s(S'1222000011'
p977
I1
tp978
F3.64009375
s(S'2222002220'
p979
I0
tp980
F8.83052079771818
s(S'0012222222'
p981
I1
tp982
F-103.00298388671875
s(S'2222200010'
p983
I0
tp984
I-200
s(S'2200222220'
p985
I2
tp986
F7.461328049175091
s(S'1220011222'
p987
I0
tp988
F10.468162862554422
s(S'2221221022'
p989
I0
tp990
I5
s(S'1002222222'
p991
I1
tp992
F-133.53672456378
s(S'1222220112'
p993
I1
tp994
F2.3175675751010107
s(S'2001112222'
p995
I2
tp996
F2.9928596975098274
s(S'2222221001'
p997
I2
tp998
F-47.75893158330813
s(S'2222200110'
p999
I1
tp1000
F4.881100034131061
s(S'1210122122'
p1001
I2
tp1002
F6.6083010100216875
s(S'1222222210'
p1003
I1
tp1004
F-67.54382601317651
s(S'1001222210'
p1005
I2
tp1006
F1.59408125
s(S'0011222222'
p1007
I0
tp1008
I-200
s(S'2222200011'
p1009
I0
tp1010
I-200
s(S'1222220012'
p1011
I1
tp1012
F4.856202499619256
s(S'0222222011'
p1013
I0
tp1014
I-200
s(S'1222221100'
p1015
I1
tp1016
F0.351657995799065
s(S'0221022222'
p1017
I0
tp1018
F12.725460137261933
s(S'2000222220'
p1019
I0
tp1020
I5
s(S'2222102200'
p1021
I1
tp1022
F5.3665090933364095
s(S'2221011111'
p1023
I1
tp1024
F4.931663815925278
s(S'1222011122'
p1025
I0
tp1026
F10.514948633516024
s(S'1222222102'
p1027
I0
tp1028
I5
s(S'2222210011'
p1029
I2
tp1030
F-22.83997334028815
s(S'2201112222'
p1031
I0
tp1032
F-11.30637140924767
s(S'1220112222'
p1033
I1
tp1034
F6.5582869251922205
s(S'0122001122'
p1035
I2
tp1036
I1
s(S'2222221102'
p1037
I1
tp1038
F-1.9220593206300265
s(S'0222221022'
p1039
I2
tp1040
F3.8887983408081057
s(S'2221100022'
p1041
I0
tp1042
I5
s(S'2221000011'
p1043
I0
tp1044
F5.658043780539559
s(S'2210122220'
p1045
I1
tp1046
F5.075049827890156
s(S'2101222210'
p1047
I1
tp1048
I1
s(S'2222221012'
p1049
I1
tp1050
F3.37526052251212
s(S'0022222201'
p1051
I1
tp1052
I1
s(S'1222011112'
p1053
I2
tp1054
F0.810012690631063
s(S'1101122222'
p1055
I0
tp1056
F-19.994548985184075
s(S'2222101222'
p1057
I2
tp1058
F-97.80050335182202
s(S'2220110111'
p1059
I0
tp1060
F8.588092422354022
s(S'0222221100'
p1061
I1
tp1062
F-0.15675251176940241
s(S'2222210002'
p1063
I1
tp1064
F3.7984480348328393
s(S'0222222222'
p1065
I1
tp1066
F-69.53266490771325
s(S'2001112222'
p1067
I0
tp1068
F-4.565257269660195
s(S'1121001222'
p1069
I1
tp1070
F5.227658617088581
s(S'2220122212'
p1071
I0
tp1072
F8.321127778247916
s(S'2210122111'
p1073
I2
tp1074
F5.995018505713409
s(S'1222111102'
p1075
I0
tp1076
F6.498945246195883
s(S'0222220112'
p1077
I2
tp1078
F1.0
s(S'2211111022'
p1079
I1
tp1080
F2.75
s(S'1222000012'
p1081
I1
tp1082
F5.375356226912955
s(S'1210022222'
p1083
I2
tp1084
F4.977123900424379
s(S'1222200122'
p1085
I1
tp1086
F4.997765512592839
s(S'2222110021'
p1087
I2
tp1088
F-0.03702790510717302
s(S'2222011111'
p1089
I2
tp1090
F-123.42023842520919
s(S'1222100222'
p1091
I2
tp1092
F6.683958119323303
s(S'2210122212'
p1093
I1
tp1094
F4.30132920756631
s(S'0222011111'
p1095
I0
tp1096
F-27.14801833661171
s(S'1022222210'
p1097
I2
tp1098
I-200
s(S'0222221110'
p1099
I2
tp1100
F-13.524999999999999
s(S'1222100122'
p1101
I0
tp1102
F6.840263045683017
s(S'2000111221'
p1103
I2
tp1104
I1
s(S'2220112212'
p1105
I2
tp1106
I1
s(S'2000122221'
p1107
I0
tp1108
F6.274360635357186
s(S'1022222211'
p1109
I2
tp1110
F-139.80576194131072
s(S'2222111022'
p1111
I0
tp1112
F-30.295843148980428
s(S'2101122222'
p1113
I2
tp1114
F3.204817122792292
s(S'2222220011'
p1115
I2
tp1116
F-116.9573996795622
s(S'1110222222'
p1117
I1
tp1118
F-177.6618410573305
s(S'0022222211'
p1119
I1
tp1120
I-200
s(S'2001222210'
p1121
I1
tp1122
F1.0
s(S'1012222211'
p1123
I0
tp1124
I-200
s(S'2222222100'
p1125
I2
tp1126
I1
s(S'2211022222'
p1127
I2
tp1128
F9.862109224583413
s(S'2100122210'
p1129
I2
tp1130
F1.875
s(S'0122220001'
p1131
I1
tp1132
F0.7063393203822336
s(S'2222212101'
p1133
I1
tp1134
I1
s(S'0222101111'
p1135
I1
tp1136
F3.1852771940774964
s(S'0222221012'
p1137
I0
tp1138
F-18.0660010081805
s(S'2000222210'
p1139
I2
tp1140
F1.53375
s(S'2201121222'
p1141
I1
tp1142
F-0.39789631394296476
s(S'1012222222'
p1143
I1
tp1144
F-73.35567903436048
s(S'2220122210'
p1145
I1
tp1146
I1
s(S'2222102201'
p1147
I0
tp1148
F7.671111627471772
s(S'1222220002'
p1149
I0
tp1150
F-10.355354300576169
s(S'1222222222'
p1151
I1
tp1152
F-111.55369894057449
s(S'1222222201'
p1153
I1
tp1154
I-200
s(S'2222001211'
p1155
I0
tp1156
F6.594257091223674
s(S'2222100122'
p1157
I2
tp1158
F1.35
s(S'2222200011'
p1159
I2
tp1160
F-99.5
s(S'0022201222'
p1161
I1
tp1162
F3.433292481034072
s(S'0222220122'
p1163
I1
tp1164
F5.395049904222228
s(S'1212221012'
p1165
I2
tp1166
I1
s(S'2220002221'
p1167
I0
tp1168
I5
s(S'1222222012'
p1169
I1
tp1170
F1.50465625
s(S'2100111222'
p1171
I2
tp1172
F2.906155983935969
s(S'1110111222'
p1173
I2
tp1174
I1
s(S'1002222221'
p1175
I2
tp1176
F-124.45720983246007
s(S'2200022221'
p1177
I2
tp1178
F3.9722757795496118
s(S'0222222220'
p1179
I2
tp1180
I1
s(S'1122220022'
p1181
I0
tp1182
F7.191278493151838
s(S'1200111222'
p1183
I2
tp1184
F5.359877272203791
s(S'2222002200'
p1185
I1
tp1186
F4.229553155552749
s(S'2011212222'
p1187
I1
tp1188
F-13.083230653346543
s(S'2200222210'
p1189
I1
tp1190
F4.589005243070712
s(S'2210122211'
p1191
I1
tp1192
F5.097864870826012
s(S'0112222220'
p1193
I0
tp1194
I-200
s(S'0122210112'
p1195
I2
tp1196
I1
s(S'2212110221'
p1197
I1
tp1198
I1
s(S'2200012221'
p1199
I2
tp1200
F4.153083543155941
s(S'2210112211'
p1201
I0
tp1202
I5
s(S'1222001012'
p1203
I1
tp1204
F5.7539594192765415
s(S'2222110221'
p1205
I0
tp1206
I5
s(S'0122222221'
p1207
I1
tp1208
F-21.457460285531628
s(S'0222000222'
p1209
I0
tp1210
F8.110263986960216
s(S'1222211100'
p1211
I2
tp1212
F-13.076433295375729
s(S'0122222012'
p1213
I2
tp1214
F2.579589611694336
s(S'1222221001'
p1215
I0
tp1216
I-200
s(S'1221000112'
p1217
I1
tp1218
I1
s(S'0011102222'
p1219
I0
tp1220
I5
s(S'0010022222'
p1221
I2
tp1222
I1
s(S'1222221110'
p1223
I2
tp1224
F-14.894328079691556
s(S'2222222220'
p1225
I0
tp1226
I-200
s(S'2011112222'
p1227
I1
tp1228
F-24.617976442060467
s(S'2222011122'
p1229
I1
tp1230
F5.816370844647213
s(S'0222222210'
p1231
I1
tp1232
F-111.6673997512654
s(S'1110222222'
p1233
I0
tp1234
F-200.0
s(S'0110002222'
p1235
I0
tp1236
F7.062559196750237
s(S'2222200221'
p1237
I1
tp1238
I1
s(S'1012222220'
p1239
I2
tp1240
F-98.8719744502832
s(S'2222222012'
p1241
I2
tp1242
F-3.6647376890410994
s(S'1022222222'
p1243
I1
tp1244
F-120.80860132354314
s(S'1102222221'
p1245
I1
tp1246
F-72.79778403405852
s(S'0100222222'
p1247
I1
tp1248
F1.8877768280943712
s(S'2222221011'
p1249
I0
tp1250
F-111.18195836180315
s(S'0222201111'
p1251
I0
tp1252
I-200
s(S'0022222222'
p1253
I2
tp1254
F-56.11629408091035
s(S'2200112111'
p1255
I1
tp1256
F4.344770142907585
s(S'0222200222'
p1257
I1
tp1258
F4.018689404651124
s(S'2222221110'
p1259
I1
tp1260
F-3.3197730452033687
s(S'0222222211'
p1261
I1
tp1262
F-15.663378423713649
s(S'0222011211'
p1263
I0
tp1264
F7.667081648643071
s(S'1222222100'
p1265
I2
tp1266
I-200
s(S'1111022222'
p1267
I2
tp1268
F7.384835043878988
s(S'1222212110'
p1269
I0
tp1270
F-10.041137533202635
s(S'2222221022'
p1271
I2
tp1272
F-7.507717274847243
s(S'2211100222'
p1273
I1
tp1274
F3.2145641191406247
s(S'0211022222'
p1275
I0
tp1276
F9.36025969746376
s(S'0222222221'
p1277
I0
tp1278
F-174.375
s(S'2200000111'
p1279
I2
tp1280
I1
s(S'1011022222'
p1281
I0
tp1282
F9.215966139097873
s(S'1210111122'
p1283
I1
tp1284
F3.0140053184886426
s(S'2222201222'
p1285
I1
tp1286
F4.042991188813962
s(S'2220122222'
p1287
I0
tp1288
F6.431407242118447
s(S'2222110021'
p1289
I0
tp1290
F7.499843614004389
s(S'1100002222'
p1291
I2
tp1292
I-200
s(S'2001222221'
p1293
I2
tp1294
F-47.2820791775437
s(S'1001222122'
p1295
I2
tp1296
I1
s(S'0100122222'
p1297
I1
tp1298
F-99.96743745902381
s(S'0222221002'
p1299
I0
tp1300
F5.23625
s(S'1221012221'
p1301
I2
tp1302
F5.591900301300084
s(S'1011112222'
p1303
I2
tp1304
I1
s(S'2000222221'
p1305
I2
tp1306
F-0.19679269994188875
s(S'2220012111'
p1307
I0
tp1308
F11.38240530305403
s(S'0222222111'
p1309
I2
tp1310
I-200
s(S'2222220111'
p1311
I1
tp1312
F-9.029159783265753
s(S'2222210011'
p1313
I1
tp1314
F2.8451555832748916
s(S'2100122220'
p1315
I1
tp1316
F1.5931625
s(S'1222111101'
p1317
I1
tp1318
I1
s(S'2222000111'
p1319
I2
tp1320
F-99.03159062499999
s(S'2222101222'
p1321
I0
tp1322
F-94.19351864900155
s(S'1122102222'
p1323
I0
tp1324
F8.230921377910816
s(S'2222222102'
p1325
I2
tp1326
F-1.8218936195960942
s(S'1012222211'
p1327
I2
tp1328
F-21.507004921377266
s(S'0121001222'
p1329
I2
tp1330
I1
s(S'1200122222'
p1331
I0
tp1332
F-2.2916279632896916
s(S'2221011122'
p1333
I2
tp1334
F3.3458150363805492
s(S'1012222111'
p1335
I2
tp1336
I1
s(S'2002222122'
p1337
I1
tp1338
I1
s(S'0100122222'
p1339
I2
tp1340
F6.076859218333544
s(S'2101221222'
p1341
I2
tp1342
F2.966958022703765
s(S'1222221012'
p1343
I0
tp1344
F-97.325
s(S'2222222110'
p1345
I1
tp1346
F-0.3503309704005213
s(S'1110122221'
p1347
I1
tp1348
I1
s(S'1012222221'
p1349
I0
tp1350
F-174.375
s(S'2222222011'
p1351
I0
tp1352
F-145.69100358248198
s(S'1022222221'
p1353
I1
tp1354
I-200
s(S'2102222220'
p1355
I1
tp1356
F-27.169665784015514
s(S'1222222101'
p1357
I2
tp1358
I1
s(S'1102222222'
p1359
I1
tp1360
F-157.01647027672033
s(S'2222002201'
p1361
I2
tp1362
F3.5158670335198714
s(S'1111012222'
p1363
I1
tp1364
F-15.422582608093188
s(S'0110222222'
p1365
I1
tp1366
F-99.68728394431271
s(S'2210111122'
p1367
I0
tp1368
F8.202318628217904
s(S'2212210022'
p1369
I0
tp1370
I5
s(S'2222220001'
p1371
I0
tp1372
I-200
s(S'2100122211'
p1373
I0
tp1374
F6.338037241134899
s(S'2002222220'
p1375
I1
tp1376
F1.35
s(S'1222110022'
p1377
I2
tp1378
F3.2796772678890758
s(S'2220000111'
p1379
I2
tp1380
F-99.5
s(S'1100122222'
p1381
I0
tp1382
I-200
s(S'1211002222'
p1383
I2
tp1384
F6.101856168632407
s(S'2222221021'
p1385
I0
tp1386
F-6.736389733126143
s(S'1222000111'
p1387
I2
tp1388
F1.0
s(S'2220011111'
p1389
I1
tp1390
F5.927867353602451
s(S'2221221012'
p1391
I0
tp1392
F6.328917278246088
s(S'2200222221'
p1393
I1
tp1394
F-1.143296964612417
s(S'0122222201'
p1395
I2
tp1396
I-200
s(S'2222111022'
p1397
I1
tp1398
F1.9797568459285235
s(S'2220000122'
p1399
I0
tp1400
F7.581522159973297
s(S'2001222220'
p1401
I0
tp1402
F-10.312817183772486
s(S'2222012220'
p1403
I0
tp1404
F13.28159808262921
s(S'2220012221'
p1405
I1
tp1406
F3.6815414500076122
s(S'0011222222'
p1407
I2
tp1408
I1
s(S'0222001111'
p1409
I0
tp1410
F-97.5
s(S'2211110222'
p1411
I1
tp1412
I1
s(S'2201122222'
p1413
I1
tp1414
F-32.006468244917166
s(S'2222220112'
p1415
I1
tp1416
F-14.071392632573735
s(S'0100122222'
p1417
I0
tp1418
F-10.51690089973821
s(S'2200222221'
p1419
I2
tp1420
F7.587704471395226
s(S'1100222211'
p1421
I0
tp1422
F-0.7645113107546138
s(S'0022220112'
p1423
I1
tp1424
I1
s(S'2101222222'
p1425
I0
tp1426
F-105.92326603853189
s(S'1110022222'
p1427
I2
tp1428
F6.9430300076635625
s(S'2222000112'
p1429
I0
tp1430
F6.968221641218673
s(S'0122222222'
p1431
I0
tp1432
I-200
s(S'0121011222'
p1433
I2
tp1434
F3.654138339258854
s(S'0222221011'
p1435
I0
tp1436
I-200
s(S'2210011111'
p1437
I2
tp1438
F4.16406774688631
s(S'1110002222'
p1439
I1
tp1440
F1.7634682645746733
s(S'2222200222'
p1441
I0
tp1442
F9.30312476641343
s(S'2002222111'
p1443
I2
tp1444
F3.5314548040214184
s(S'2201111222'
p1445
I1
tp1446
F-0.48797716836436256
s(S'0022101222'
p1447
I2
tp1448
F1.515375
s(S'1112222220'
p1449
I1
tp1450
I-200
s(S'0012222211'
p1451
I1
tp1452
I1
s(S'2211211022'
p1453
I0
tp1454
F5.35
s(S'2222211002'
p1455
I1
tp1456
F3.648897720330928
s(S'1101122222'
p1457
I2
tp1458
F3.913057392326656
s(S'1111100222'
p1459
I1
tp1460
F-99.325
s(S'2222201111'
p1461
I1
tp1462
F4.699898398390873
s(S'2221012200'
p1463
I2
tp1464
F8.262118318923418
s(S'1012201112'
p1465
I0
tp1466
I5
s(S'2222001222'
p1467
I1
tp1468
F3.983524445661571
s(S'2222222201'
p1469
I0
tp1470
F-185.13920113243154
s(S'2210222212'
p1471
I0
tp1472
F8.102712275290772
s(S'2011122221'
p1473
I1
tp1474
F5.452875
s(S'1222211110'
p1475
I1
tp1476
F-52.236729350290524
s(S'2222011210'
p1477
I1
tp1478
F5.569856813354869
s(S'0222000122'
p1479
I1
tp1480
I1
s(S'2222222002'
p1481
I0
tp1482
F-4.248915438302664
s(S'1210022222'
p1483
I0
tp1484
F-0.4683406001816337
s(S'0220122222'
p1485
I2
tp1486
F5.928860497640967
s(S'2002222222'
p1487
I2
tp1488
F-40.88957949231338
s(S'1100002222'
p1489
I1
tp1490
I-200
s(S'2210112122'
p1491
I0
tp1492
F9.526494197066603
s(S'2001122222'
p1493
I1
tp1494
F-28.63528634593115
s(S'0022222001'
p1495
I0
tp1496
F5.0
s(S'0220012212'
p1497
I1
tp1498
I1
s(S'2222111011'
p1499
I2
tp1500
F-48.86705870105519
s(S'2100222222'
p1501
I1
tp1502
F-22.72296231259469
s(S'1100012222'
p1503
I0
tp1504
I5
s(S'2002222211'
p1505
I1
tp1506
F-4.6752872980344975
s(S'2222111022'
p1507
I2
tp1508
F-24.756908168936555
s(S'2210222220'
p1509
I1
tp1510
F4.50896721801819
s(S'2221022222'
p1511
I0
tp1512
F12.090837433557297
s(S'2222002221'
p1513
I0
tp1514
I5
s(S'2200112210'
p1515
I1
tp1516
I1
s(S'2220112222'
p1517
I0
tp1518
F11.263691665463647
s(S'2222000221'
p1519
I2
tp1520
I1
s(S'2222211022'
p1521
I2
tp1522
F-12.530928576715112
s(S'0021022222'
p1523
I0
tp1524
F6.308442415414645
s(S'2222222100'
p1525
I0
tp1526
F-28.946539536024957
s(S'0220122221'
p1527
I0
tp1528
F7.950381912698898
s(S'0022222210'
p1529
I2
tp1530
F-99.5
s(S'2222101210'
p1531
I1
tp1532
F8.890790894582707
s(S'0122210022'
p1533
I0
tp1534
I5
s(S'0222200011'
p1535
I1
tp1536
I1
s(S'1222210011'
p1537
I1
tp1538
F3.8159133281545534
s(S'2222200210'
p1539
I0
tp1540
F6.064011521361934
s(S'2220011101'
p1541
I1
tp1542
F1.75416941700051
s(S'1001222222'
p1543
I1
tp1544
I-200
s(S'0121011122'
p1545
I2
tp1546
I1
s(S'2222211012'
p1547
I1
tp1548
F2.47121306153544
s(S'0222210022'
p1549
I0
tp1550
F9.211547632256934
s(S'2222220111'
p1551
I2
tp1552
I-200
s(S'0122110122'
p1553
I0
tp1554
F5.756150023303286
s(S'2102222222'
p1555
I0
tp1556
F-52.47120550945522
s(S'2222210122'
p1557
I2
tp1558
F-2.50651833556062
s(S'2101222211'
p1559
I2
tp1560
F4.835394709245417
s(S'1211110022'
p1561
I1
tp1562
F2.7928203297214624
s(S'2100111222'
p1563
I0
tp1564
F-31.618704822675358
s(S'2222200220'
p1565
I1
tp1566
I1
s(S'2012212222'
p1567
I2
tp1568
I1
s(S'1210122211'
p1569
I0
tp1570
I5
s(S'2220010111'
p1571
I2
tp1572
I-200
s(S'0012222220'
p1573
I1
tp1574
F1.35
s(S'2222011112'
p1575
I0
tp1576
F8.406811967960381
s(S'2201111121'
p1577
I1
tp1578
F1.0
s(S'0111222220'
p1579
I0
tp1580
I5
s(S'1002222220'
p1581
I1
tp1582
F-34.353750000000005
s(S'2201222212'
p1583
I1
tp1584
F-2.665165777546847
s(S'2220111111'
p1585
I2
tp1586
F4.191261626849684
s(S'0110222222'
p1587
I2
tp1588
F6.243527259852543
s(S'2001222222'
p1589
I2
tp1590
F-12.695099193372126
s(S'0112222220'
p1591
I2
tp1592
F-5.267805223110077
s(S'0222222110'
p1593
I0
tp1594
F-200.0
s(S'2210022222'
p1595
I1
tp1596
F-35.172448031331214
s(S'2222011111'
p1597
I1
tp1598
F-97.60945486044137
s(S'2221100222'
p1599
I2
tp1600
F2.838118262590962
s(S'2100222221'
p1601
I1
tp1602
F-20.321870948977388
s(S'2201222122'
p1603
I0
tp1604
F8.471768240968249
s(S'1121012222'
p1605
I0
tp1606
F13.86241643515999
s(S'1210122212'
p1607
I2
tp1608
F5.322544339514104
s(S'2222222200'
p1609
I1
tp1610
F-145.7291096013691
s(S'1222211100'
p1611
I0
tp1612
I5
s(S'2222211021'
p1613
I0
tp1614
I5
s(S'2222210111'
p1615
I2
tp1616
F-99.5
s(S'2102222211'
p1617
I2
tp1618
F-17.50886386050293
s(S'1222221002'
p1619
I1
tp1620
F2.886336470849358
s(S'2220121111'
p1621
I1
tp1622
I1
s(S'2200111222'
p1623
I2
tp1624
F7.027642170346056
s(S'2222222220'
p1625
I2
tp1626
F-192.22986671946046
s(S'2101222221'
p1627
I1
tp1628
F-42.9445926450692
s(S'2210122222'
p1629
I1
tp1630
F-49.99550244411783
s(S'0011012222'
p1631
I1
tp1632
F4.173065727211505
s(S'1110222222'
p1633
I2
tp1634
F-52.30197997953913
s(S'1100222222'
p1635
I0
tp1636
F-137.26401867078184
s(S'2222111021'
p1637
I0
tp1638
F-0.909570487614288
s(S'1001122222'
p1639
I2
tp1640
F-127.00508813559536
s(S'1012222220'
p1641
I0
tp1642
I-200
s(S'2222222012'
p1643
I0
tp1644
F3.3247782676722317
s(S'0222100222'
p1645
I2
tp1646
F5.1247804382629845
s(S'1220002222'
p1647
I2
tp1648
F6.950254306493233
s(S'2222000122'
p1649
I2
tp1650
F6.128080049193238
s(S'2011222222'
p1651
I2
tp1652
F-0.305613890809024
s(S'0222222011'
p1653
I1
tp1654
F-21.47750990388939
s(S'2222221011'
p1655
I2
tp1656
I-200
s(S'0222222100'
p1657
I1
tp1658
F-120.22
s(S'2101222210'
p1659
I0
tp1660
F-35.39462293283876
s(S'0022222222'
p1661
I0
tp1662
F-180.41909571501427
s(S'2222210022'
p1663
I2
tp1664
F3.4492067218575633
s(S'2222211001'
p1665
I0
tp1666
I-200
s(S'1100022222'
p1667
I1
tp1668
F-99.26375
s(S'2200022222'
p1669
I0
tp1670
F9.230607679560293
s(S'2222001101'
p1671
I2
tp1672
F2.381658647550551
s(S'0011122222'
p1673
I1
tp1674
F1.525
s(S'0110022222'
p1675
I0
tp1676
F12.896359512757698
s(S'2222201220'
p1677
I1
tp1678
F5.602798556392738
s(S'0111022222'
p1679
I0
tp1680
F-10.203241630939903
s(S'2222221022'
p1681
I0
tp1682
I5
s(S'2210222211'
p1683
I1
tp1684
F4.4391084334203015
s(S'2011122222'
p1685
I0
tp1686
F-1.9363941608030242
s(S'0222222221'
p1687
I2
tp1688
F-142.14052089652154
s(S'2221012211'
p1689
I2
tp1690
F3.024537059910486
s(S'1211100222'
p1691
I2
tp1692
I1
s(S'2222200021'
p1693
I2
tp1694
F1.608701198460246
s(S'0112222221'
p1695
I1
tp1696
F-33.681904687499994
s(S'2222221100'
p1697
I2
tp1698
F-51.9484677469633
s(S'1122100222'
p1699
I2
tp1700
F4.394634485376564
s(S'2100122100'
p1701
I2
tp1702
I1
s(S'1211001222'
p1703
I0
tp1704
I5
s(S'2001222221'
p1705
I0
tp1706
F-17.269870546808107
s(S'1122222220'
p1707
I1
tp1708
F-33.824999999999996
s(S'2001112222'
p1709
I1
tp1710
F-5.972690231249236
s(S'0210022222'
p1711
I1
tp1712
F-31.135358554846967
s(S'0110012222'
p1713
I0
tp1714
F8.177217190611906
s(S'1222001111'
p1715
I1
tp1716
F-13.662717830046406
s(S'2222001111'
p1717
I2
tp1718
F-97.85297959117132
s(S'2222220021'
p1719
I1
tp1720
I1
s(S'1222211101'
p1721
I2
tp1722
F2.4280167889781206
s(S'0222001111'
p1723
I1
tp1724
F-13.23456093503263
s(S'1110122222'
p1725
I0
tp1726
I-200
s(S'0222222110'
p1727
I2
tp1728
F-7.974214912942896
s(S'0111001222'
p1729
I2
tp1730
F4.0542085990487235
s(S'2222110121'
p1731
I1
tp1732
I1
s(S'0011122221'
p1733
I0
tp1734
F-14.181797779632308
s(S'2222210210'
p1735
I1
tp1736
F3.2635193662823
s(S'2222211011'
p1737
I2
tp1738
F-57.24829906504119
s(S'0122100122'
p1739
I2
tp1740
F2.225947577114646
s(S'0222222000'
p1741
I2
tp1742
F-99.5
s(S'0022222101'
p1743
I1
tp1744
F-16.942172388340953
s(S'1222222220'
p1745
I1
tp1746
F-130.95914395397062
s(S'2200111011'
p1747
I1
tp1748
I1
s(S'2201222111'
p1749
I2
tp1750
F5.247517923378677
s(S'0022222200'
p1751
I1
tp1752
F-200.0
s(S'2102222220'
p1753
I2
tp1754
F-1.7858040551588559
s(S'1012222221'
p1755
I2
tp1756
F-155.98260233176097
s(S'2200112222'
p1757
I0
tp1758
F9.034851274673962
s(S'0122222210'
p1759
I2
tp1760
I1
s(S'1221012211'
p1761
I0
tp1762
F7.341249219734062
s(S'1222222101'
p1763
I0
tp1764
F-97.5
s(S'0222210112'
p1765
I1
tp1766
I1
s(S'1001222221'
p1767
I0
tp1768
I-200
s(S'1101222222'
p1769
I1
tp1770
F-105.93867960336402
s(S'0110022222'
p1771
I1
tp1772
I-200
s(S'2222220011'
p1773
I0
tp1774
F-200.0
s(S'2222100221'
p1775
I2
tp1776
F3.5787113590196276
s(S'2110222221'
p1777
I1
tp1778
F3.076660784248942
s(S'2220022222'
p1779
I2
tp1780
F9.938057779188647
s(S'2222222101'
p1781
I1
tp1782
F-17.745207626174583
s(S'1200222222'
p1783
I2
tp1784
F5.197805366569687
s(S'2100111122'
p1785
I1
tp1786
I1
s(S'1100222221'
p1787
I2
tp1788
F-4.102988452529971
s(S'2002222221'
p1789
I2
tp1790
I1
s(S'1002222211'
p1791
I1
tp1792
F-7.0285723933192
s(S'2101111221'
p1793
I2
tp1794
I1
s(S'2210122122'
p1795
I1
tp1796
F6.401471646940486
s(S'1222220022'
p1797
I2
tp1798
F2.9061397619695892
s(S'2221110221'
p1799
I1
tp1800
I1
s(S'2201122222'
p1801
I2
tp1802
F5.458229022860319
s(S'0122222201'
p1803
I0
tp1804
I-200
s(S'0122210122'
p1805
I0
tp1806
F7.586486418783825
s(S'1222220122'
p1807
I2
tp1808
F4.143278829843019
s(S'0022001122'
p1809
I2
tp1810
I1
s(S'2001222220'
p1811
I2
tp1812
F2.171078392776796
s(S'2220122220'
p1813
I1
tp1814
F1.8389327883760254
s(S'2222211102'
p1815
I1
tp1816
F2.5199690741500955
s(S'1022222211'
p1817
I1
tp1818
F-133.77447145129378
s(S'2222200111'
p1819
I0
tp1820
F-93.40110535129791
s(S'2100112222'
p1821
I1
tp1822
F1.26769528478857
s(S'2222200022'
p1823
I1
tp1824
F3.5978425691670237
s(S'2221012220'
p1825
I0
tp1826
F13.486743434697196
s(S'1222221012'
p1827
I1
tp1828
F1.9005032160290365
s(S'2201222121'
p1829
I1
tp1830
I1
s(S'0122222211'
p1831
I2
tp1832
I-200
s(S'2101222222'
p1833
I2
tp1834
F3.5164696799487243
s(S'2201122111'
p1835
I2
tp1836
F5.434894521915799
s(S'1222002222'
p1837
I0
tp1838
F9.2567474120874
s(S'2222220002'
p1839
I1
tp1840
F2.918432608120983
s(S'0122222222'
p1841
I2
tp1842
F-35.274726939554206
s(S'2210011222'
p1843
I0
tp1844
I5
s(S'1210222222'
p1845
I2
tp1846
F7.785355344968588
s(S'2220112112'
p1847
I1
tp1848
F4.897939824622728
s(S'2001111221'
p1849
I1
tp1850
I1
s(S'2222210021'
p1851
I1
tp1852
F3.055839635152523
s(S'2222201122'
p1853
I0
tp1854
F8.963791944925987
s(S'1222111002'
p1855
I2
tp1856
F5.388433598246034
s(S'2222200120'
p1857
I1
tp1858
F2.597269573290141
s(S'2222200112'
p1859
I1
tp1860
I1
s(S'2210122221'
p1861
I0
tp1862
F9.79893545065344
s(S'1100222221'
p1863
I1
tp1864
F-12.020148181347988
s(S'0121002222'
p1865
I1
tp1866
F5.28876893081153
s(S'1201122222'
p1867
I2
tp1868
F5.380481349238
s(S'2220012211'
p1869
I1
tp1870
F7.097267209213435
s(S'2011222221'
p1871
I2
tp1872
I1
s(S'1022222110'
p1873
I1
tp1874
I1
s(S'1101222221'
p1875
I1
tp1876
F-34.972068736386696
s(S'1100122222'
p1877
I1
tp1878
F-11.705809614700634
s(S'1101112222'
p1879
I0
tp1880
F-30.42407349968831
s(S'0222101222'
p1881
I2
tp1882
F3.807224702115943
s(S'1222221100'
p1883
I2
tp1884
F-28.181249999999995
s(S'0111100222'
p1885
I1
tp1886
F3.5512021433160457
s(S'2110222222'
p1887
I1
tp1888
F-72.28433286158297
s(S'2012222222'
p1889
I2
tp1890
F-41.44028439395957
s(S'2001222122'
p1891
I1
tp1892
I1
s(S'1222210022'
p1893
I0
tp1894
F8.004962459309297
s(S'2210111222'
p1895
I0
tp1896
F9.842863954171136
s(S'1210112222'
p1897
I1
tp1898
F4.678078617654894
s(S'2002222222'
p1899
I0
tp1900
F-36.07108266126929
s(S'2001212222'
p1901
I1
tp1902
F-2.7609755448648383
s(S'1222210112'
p1903
I1
tp1904
F3.173643829317891
s(S'0221011211'
p1905
I2
tp1906
I1
s(S'2222000111'
p1907
I0
tp1908
F-95.49959219174119
s(S'0222222002'
p1909
I1
tp1910
I1
s(S'2222001012'
p1911
I2
tp1912
F1.35
s(S'2200222111'
p1913
I2
tp1914
F3.708177576564128
s(S'2222222221'
p1915
I1
tp1916
F-193.6858152497867
s(S'2000122222'
p1917
I1
tp1918
F2.192992161993939
s(S'2222211101'
p1919
I1
tp1920
F-4.422033223630841
s(S'2222220001'
p1921
I1
tp1922
I1
s(S'2220022220'
p1923
I1
tp1924
F2.75
s(S'2220011210'
p1925
I1
tp1926
I1
s(S'2222211022'
p1927
I0
tp1928
F0.3792963532797078
s(S'2221012221'
p1929
I2
tp1930
F7.050653226825995
s(S'2200002222'
p1931
I2
tp1932
F3.790243736070085
s(S'1211110222'
p1933
I0
tp1934
I5
s(S'0022222210'
p1935
I0
tp1936
I-200
s(S'2210012110'
p1937
I2
tp1938
I1
s(S'1222222011'
p1939
I1
tp1940
F-123.27726198780367
s(S'0222011122'
p1941
I0
tp1942
F9.230238005237124
s(S'2222200121'
p1943
I0
tp1944
F6.427293456953653
s(S'0121022222'
p1945
I1
tp1946
F5.05313128899525
s(S'2222220121'
p1947
I0
tp1948
F6.24475965968461
s(S'0222001112'
p1949
I0
tp1950
F9.081260326928627
s(S'2001111222'
p1951
I1
tp1952
F1.0
s(S'1101222211'
p1953
I1
tp1954
F0.24779583537069982
s(S'0222210011'
p1955
I2
tp1956
I1
s(S'0210222222'
p1957
I2
tp1958
I1
s(S'0002222210'
p1959
I1
tp1960
F1.0
s(S'1122222101'
p1961
I1
tp1962
I1
s(S'1201112222'
p1963
I0
tp1964
F-2.0409123483535803
s(S'1102222220'
p1965
I1
tp1966
F-99.5
s(S'0122220012'
p1967
I1
tp1968
I1
s(S'2102222222'
p1969
I2
tp1970
F-19.098906150245725
s(S'2012222111'
p1971
I2
tp1972
I1
s(S'1110112222'
p1973
I2
tp1974
F3.4654773262750025
s(S'2101222211'
p1975
I0
tp1976
F-5.992960637636772
s(S'2100001221'
p1977
I2
tp1978
I1
s(S'2112110122'
p1979
I0
tp1980
I5
s(S'2011222222'
p1981
I0
tp1982
F-103.03614252950919
s(S'0111122221'
p1983
I2
tp1984
I1
s(S'2100012222'
p1985
I0
tp1986
F6.78040702153166
s(S'1011122222'
p1987
I2
tp1988
F-49.94726843860874
s(S'0120011222'
p1989
I2
tp1990
F2.77812095726492
s(S'2222001111'
p1991
I0
tp1992
F-95.25365250518396
s(S'2100122222'
p1993
I0
tp1994
F5.0
s(S'2200122110'
p1995
I1
tp1996
I1
s(S'2201222221'
p1997
I1
tp1998
F-4.2683268582784395
s(S'0122210222'
p1999
I0
tp2000
F9.354326879129264
s(S'2220111111'
p2001
I0
tp2002
F-95.89817230800085
s(S'1222011111'
p2003
I0
tp2004
I5
s(S'1112221012'
p2005
I1
tp2006
F3.0399916058416174
s(S'0122001111'
p2007
I0
tp2008
I5
s(S'1000222222'
p2009
I1
tp2010
F-156.80574095825978
s(S'2001222222'
p2011
I0
tp2012
F-14.079854786450543
s(S'2222001220'
p2013
I1
tp2014
F1.0
s(S'0110122222'
p2015
I2
tp2016
F6.447312657056052
s(S'0122222220'
p2017
I2
tp2018
F-11.563878418857893
s(S'1221012222'
p2019
I0
tp2020
F13.733724399259454
s(S'2210122210'
p2021
I0
tp2022
F5.895174957326496
s(S'2200111221'
p2023
I2
tp2024
F4.535890750469874
s(S'1221102222'
p2025
I2
tp2026
F4.425366705544347
s(S'1110022222'
p2027
I1
tp2028
F-35.68209448041091
s(S'2222220110'
p2029
I1
tp2030
F5.419074450897687
s(S'1022101112'
p2031
I1
tp2032
I1
s(S'2000222221'
p2033
I1
tp2034
F2.1177661860590353
s(S'1222220011'
p2035
I2
tp2036
F-18.875670070958265
s(S'2100122111'
p2037
I0
tp2038
F5.913458586824914
s(S'2222210111'
p2039
I0
tp2040
I-200
s(S'2102222211'
p2041
I0
tp2042
F-14.361877068904167
s(S'2200111122'
p2043
I2
tp2044
F3.935402125922784
s(S'2222222201'
p2045
I2
tp2046
F-86.14704568169046
s(S'1122110222'
p2047
I0
tp2048
I5
s(S'2222000022'
p2049
I1
tp2050
F4.041491124959739
s(S'2222012222'
p2051
I1
tp2052
F8.940619208445106
s(S'1100112222'
p2053
I0
tp2054
F5.944755026427044
s(S'2222111021'
p2055
I2
tp2056
F-3.4003027937871053
s(S'1111101222'
p2057
I1
tp2058
F7.605729638306972
s(S'1100222222'
p2059
I2
tp2060
F0.6089294127237874
s(S'1210111222'
p2061
I2
tp2062
F2.7869581998149267
s(S'1210012211'
p2063
I0
tp2064
I5
s(S'2221111022'
p2065
I2
tp2066
F-1.2595846877453214
s(S'1001122222'
p2067
I0
tp2068
F-130.32569392052955
s(S'2222222110'
p2069
I2
tp2070
F-99.5
s(S'2200222122'
p2071
I1
tp2072
I1
s(S'1222222100'
p2073
I0
tp2074
I-200
s(S'2220122221'
p2075
I1
tp2076
F4.754980490890657
s(S'1110000222'
p2077
I0
tp2078
I5
s(S'1022222221'
p2079
I2
tp2080
F-99.5
s(S'2001212222'
p2081
I2
tp2082
F-1.7386864559709299
s(S'2101222210'
p2083
I2
tp2084
F4.122764383856548
s(S'1102222222'
p2085
I2
tp2086
F-59.729675970115274
s(S'2221012201'
p2087
I0
tp2088
F9.426220194638711
s(S'2222211001'
p2089
I2
tp2090
F-52.51408525033618
s(S'0222222201'
p2091
I1
tp2092
I-200
s(S'2220112122'
p2093
I2
tp2094
F6.693723789984249
s(S'0122011112'
p2095
I1
tp2096
F3.694157417306274
s(S'2222221102'
p2097
I2
tp2098
F-9.942816134456573
s(S'2200112112'
p2099
I2
tp2100
I1
s(S'1100122220'
p2101
I0
tp2102
I5
s(S'2222001110'
p2103
I2
tp2104
F3.347397991842053
s(S'2200001222'
p2105
I1
tp2106
F4.4117713419788736
s(S'0022200222'
p2107
I2
tp2108
I1
s(S'1200222211'
p2109
I2
tp2110
I1
s(S'1100022222'
p2111
I2
tp2112
F7.889899573705785
s(S'2220000111'
p2113
I1
tp2114
F2.4091584740393897
s(S'2220011110'
p2115
I1
tp2116
F3.3574865294724243
s(S'1200112222'
p2117
I0
tp2118
F7.303560052696735
s(S'0122102222'
p2119
I2
tp2120
F6.455266972803369
s(S'1011222222'
p2121
I0
tp2122
I-200
s(S'1222221110'
p2123
I1
tp2124
F-33.14241030104981
s(S'2220011011'
p2125
I0
tp2126
F8.088785431793028
s(S'0122220011'
p2127
I2
tp2128
F2.75
s(S'0222101221'
p2129
I1
tp2130
F4.2940666616065535
s(S'0122222101'
p2131
I1
tp2132
I1
s(S'0022210122'
p2133
I0
tp2134
I5
s(S'2210222222'
p2135
I1
tp2136
F-36.67609604811869
s(S'1121102222'
p2137
I0
tp2138
F8.325966293137053
s(S'2200222212'
p2139
I0
tp2140
F8.555509897682791
s(S'0222221110'
p2141
I0
tp2142
F-11.407000651762095
s(S'0112222222'
p2143
I1
tp2144
F-5.508062104084328
s(S'1220011112'
p2145
I1
tp2146
F6.865485438816568
s(S'1222210111'
p2147
I0
tp2148
F5.35
s(S'0222222001'
p2149
I0
tp2150
I-200
s(S'1210122222'
p2151
I1
tp2152
F0.20060929766886382
s(S'1011012222'
p2153
I1
tp2154
I1
s(S'2220001221'
p2155
I0
tp2156
F8.076296025400776
s(S'2222101200'
p2157
I1
tp2158
F4.7539969319490805
s(S'2222210110'
p2159
I2
tp2160
F-1.627710011031688
s(S'1222221102'
p2161
I2
tp2162
F1.175
s(S'0222012211'
p2163
I2
tp2164
F4.72412295298451
s(S'1222001122'
p2165
I1
tp2166
F5.864127917652118
s(S'1110012222'
p2167
I2
tp2168
F2.964955668523519
s(S'2211110022'
p2169
I2
tp2170
F2.0537686231999372
s(S'2201112222'
p2171
I1
tp2172
F2.637196571545217
s(S'2222222200'
p2173
I0
tp2174
I-200
s(S'2222222222'
p2175
I1
tp2176
F-99.5
s(S'0222210012'
p2177
I2
tp2178
I1
s(S'0012222210'
p2179
I1
tp2180
F-69.0
s(S'2222200011'
p2181
I1
tp2182
F3.7998439645686672
s(S'2102222220'
p2183
I0
tp2184
F-19.347016878203988
s(S'2222220122'
p2185
I1
tp2186
F4.284070845277609
s(S'1220011111'
p2187
I2
tp2188
F1.0
s(S'2011212222'
p2189
I2
tp2190
F-2.9425869824050146
s(S'2011122222'
p2191
I2
tp2192
F-0.39627368492781323
s(S'1001222221'
p2193
I2
tp2194
F-28.28158537097013
s(S'2201121111'
p2195
I0
tp2196
F7.74992165937247
s(S'2200011222'
p2197
I2
tp2198
F3.6579652352912855
s(S'0222101111'
p2199
I0
tp2200
F-95.39249374185988
s(S'2222220112'
p2201
I0
tp2202
F-1.1295565728528172
s(S'2220001222'
p2203
I1
tp2204
F6.867349350422531
s(S'0222220011'
p2205
I1
tp2206
F0.08048474340319078
s(S'0222222222'
p2207
I0
tp2208
F-148.75
s(S'1001222211'
p2209
I2
tp2210
F0.23534673305853326
s(S'2222221012'
p2211
I0
tp2212
F-97.5
s(S'2222222001'
p2213
I2
tp2214
F-41.61648700906123
s(S'2220111112'
p2215
I1
tp2216
F7.646430345627431
s(S'1222200011'
p2217
I0
tp2218
I-200
s(S'0220112222'
p2219
I2
tp2220
I1
s(S'2222111102'
p2221
I1
tp2222
I1
s(S'0221011122'
p2223
I0
tp2224
I5
s(S'2212222012'
p2225
I2
tp2226
I1
s(S'2001222200'
p2227
I0
tp2228
I5
s(S'2100122221'
p2229
I1
tp2230
I1
s(S'2201122222'
p2231
I0
tp2232
F-43.25247824632315
s(S'0111110122'
p2233
I1
tp2234
I1
s(S'2222220021'
p2235
I2
tp2236
F-3.69001039349835
s(S'2000222222'
p2237
I2
tp2238
F-32.77665884150719
s(S'2200222222'
p2239
I2
tp2240
F4.486923897659466
s(S'1210012222'
p2241
I2
tp2242
F3.2456626029325646
s(S'1111110222'
p2243
I1
tp2244
F6.081432564838106
s(S'2222200111'
p2245
I2
tp2246
F-97.9547225635632
s(S'1222211102'
p2247
I0
tp2248
F5.332581831423905
s(S'2201111221'
p2249
I0
tp2250
I5
s(S'2222221102'
p2251
I0
tp2252
I-200
s(S'1222210011'
p2253
I2
tp2254
F-0.06716658151452481
s(S'0221002222'
p2255
I0
tp2256
F11.05183430518746
s(S'2222222101'
p2257
I2
tp2258
I-200
s(S'1210122221'
p2259
I1
tp2260
F5.3299190551462114
s(S'0022222211'
p2261
I0
tp2262
F-200.0
s(S'2212211022'
p2263
I2
tp2264
F1.175
s(S'2222102220'
p2265
I2
tp2266
F4.467576591751936
s(S'1221001222'
p2267
I2
tp2268
F5.6896026552671
s(S'0210122221'
p2269
I1
tp2270
F1.0
s(S'2222221100'
p2271
I1
tp2272
F-26.78538166980229
s(S'2222101220'
p2273
I1
tp2274
F9.684163853619197
s(S'2222101110'
p2275
I0
tp2276
F7.789250522150738
s(S'2210011110'
p2277
I2
tp2278
F3.066132945827783
s(S'1222222011'
p2279
I2
tp2280
F-99.5
s(S'2220111222'
p2281
I2
tp2282
F6.51277893618433
s(S'1220011122'
p2283
I2
tp2284
F6.107820665746869
s(S'0222011221'
p2285
I0
tp2286
F10.851664693307189
s(S'1222100022'
p2287
I1
tp2288
F3.809910797009315
s(S'1222000222'
p2289
I0
tp2290
F10.000312171606314
s(S'2222111021'
p2291
I1
tp2292
F3.3448537658424735
s(S'2222210110'
p2293
I1
tp2294
F4.940725775743607
s(S'2222221101'
p2295
I1
tp2296
F-46.914542228951504
s(S'2210111111'
p2297
I0
tp2298
F8.44600407558872
s(S'2222221021'
p2299
I1
tp2300
F-16.26933439392006
s(S'2221110021'
p2301
I2
tp2302
F1.6500163152973237
s(S'2201111111'
p2303
I0
tp2304
F7.759405725066908
s(S'2222220002'
p2305
I0
tp2306
F-97.5
s(S'2200122210'
p2307
I1
tp2308
F1.6124999999999998
s(S'2200110111'
p2309
I2
tp2310
I1
s(S'1101112222'
p2311
I2
tp2312
F0.9398745890666356
s(S'0220011112'
p2313
I0
tp2314
I5
s(S'1100122222'
p2315
I2
tp2316
F6.351997094164747
s(S'1222221100'
p2317
I0
tp2318
F-96.625
s(S'1220001222'
p2319
I1
tp2320
F7.0488350386121414
s(S'2012222222'
p2321
I0
tp2322
F-37.051494373723784
s(S'1210222221'
p2323
I1
tp2324
F3.42276296714536
s(S'2210022221'
p2325
I1
tp2326
I1
s(S'0122222001'
p2327
I2
tp2328
I1
s(S'1001111221'
p2329
I2
tp2330
I1
s(S'1002222221'
p2331
I1
tp2332
I-200
s(S'2220001011'
p2333
I2
tp2334
F1.9597530839042157
s(S'0022222221'
p2335
I0
tp2336
I5
s(S'2222210002'
p2337
I2
tp2338
F-0.3006834018340958
s(S'1222221012'
p2339
I2
tp2340
F-22.28514223656997
s(S'1220022222'
p2341
I0
tp2342
F10.00788071878155
s(S'2222221001'
p2343
I1
tp2344
I-200
s(S'2101111222'
p2345
I2
tp2346
F2.52689373383432
s(S'1222221000'
p2347
I0
tp2348
I5
s(S'0222011112'
p2349
I1
tp2350
F5.533600795847337
s(S'2222012200'
p2351
I0
tp2352
F13.92495565519439
s(S'2221012210'
p2353
I0
tp2354
F7.204331347804924
s(S'2100222221'
p2355
I2
tp2356
F5.976139472803519
s(S'2200102222'
p2357
I2
tp2358
F5.389300314229436
s(S'1101222210'
p2359
I0
tp2360
I5
s(S'2211002222'
p2361
I1
tp2362
F2.317689727826733
s(S'1222222210'
p2363
I0
tp2364
F-137.34559308208907
s(S'2222221002'
p2365
I0
tp2366
F-12.976304207714458
s(S'1012222211'
p2367
I1
tp2368
F-81.044375
s(S'0111100122'
p2369
I2
tp2370
F1.0
s(S'2200121122'
p2371
I1
tp2372
I1
s(S'2200121111'
p2373
I0
tp2374
F7.806608707859076
s(S'1222200111'
p2375
I2
tp2376
F3.3901118579177494
s(S'0111102222'
p2377
I0
tp2378
F9.416806475239706
s(S'2210012221'
p2379
I2
tp2380
F6.340433842200593
s(S'0122222100'
p2381
I1
tp2382
I1
s(S'1111110022'
p2383
I2
tp2384
F1.35
s(S'2011112222'
p2385
I0
tp2386
F-25.26563413346519
s(S'2101112222'
p2387
I1
tp2388
F-36.841366318870705
s(S'2221011112'
p2389
I1
tp2390
F5.377049887227269
s(S'2200101111'
p2391
I0
tp2392
I5
s(S'1201112222'
p2393
I2
tp2394
F5.260290965491117
s(S'1022222222'
p2395
I2
tp2396
F-39.25751998016615
s(S'0222222101'
p2397
I1
tp2398
I-200
s(S'1102222221'
p2399
I2
tp2400
F-164.78123730404184
s(S'0120022222'
p2401
I1
tp2402
F6.687243853895341
s(S'2222221011'
p2403
I1
tp2404
F-17.774153663528345
s(S'2222001221'
p2405
I0
tp2406
F9.70372120981202
s(S'1011122222'
p2407
I0
tp2408
F-101.25487602488194
s(S'1211022222'
p2409
I1
tp2410
F5.4993726126395295
s(S'2220001111'
p2411
I2
tp2412
F4.597458534341985
s(S'2222220112'
p2413
I2
tp2414
F-17.78553299953322
s(S'1111022222'
p2415
I1
tp2416
F-98.66565254592679
s(S'2210012211'
p2417
I1
tp2418
F3.8106242670442896
s(S'0222222221'
p2419
I1
tp2420
F-150.16582120603567
s(S'2110122210'
p2421
I2
tp2422
I1
s(S'1222210121'
p2423
I0
tp2424
I5
s(S'0110122222'
p2425
I0
tp2426
F-95.66964225257246
s(S'2221022221'
p2427
I0
tp2428
F12.022544351805035
s(S'1100222212'
p2429
I2
tp2430
I1
s(S'2222220022'
p2431
I1
tp2432
F3.478419549212103
s(S'2220000011'
p2433
I0
tp2434
F8.203753211262168
s(S'2220012222'
p2435
I2
tp2436
F6.3200817570819385
s(S'0222002222'
p2437
I2
tp2438
I1
s(S'1001222211'
p2439
I1
tp2440
F-9.890001350646878
s(S'2221012222'
p2441
I0
tp2442
F12.015970489799411
s(S'2100222220'
p2443
I0
tp2444
F6.7678450838036
s(S'0222222000'
p2445
I0
tp2446
I-200
s(S'1222220011'
p2447
I0
tp2448
I-200
s(S'0222220022'
p2449
I0
tp2450
F7.223201860601901
s(S'0122012221'
p2451
I2
tp2452
I1
s(S'2222102222'
p2453
I0
tp2454
F10.389835624742226
s(S'2222221010'
p2455
I0
tp2456
I5
s(S'1001121222'
p2457
I2
tp2458
I1
s(S'2222000011'
p2459
I1
tp2460
F3.6206790346619164
s(S'0220022222'
p2461
I2
tp2462
F8.73829598088671
s(S'2221110022'
p2463
I2
tp2464
F2.899965687015651
s(S'2222201111'
p2465
I0
tp2466
F-95.14382027742593
s(S'2222220012'
p2467
I0
tp2468
F-3.282006850173522
s(S'0222001122'
p2469
I0
tp2470
F11.31328587257727
s(S'2222201120'
p2471
I0
tp2472
F9.844638138919503
s(S'1222222221'
p2473
I1
tp2474
F-137.6362584222523
s(S'2220122111'
p2475
I2
tp2476
F4.749877258260868
s(S'0222001211'
p2477
I1
tp2478
I1
s(S'0222201121'
p2479
I0
tp2480
I5
s(S'2102222221'
p2481
I0
tp2482
F-25.79875424456248
s(S'1122221012'
p2483
I1
tp2484
F2.8923019711361766
s(S'2221012111'
p2485
I0
tp2486
I5
s(S'0022222200'
p2487
I2
tp2488
I-200
s(S'2220002222'
p2489
I2
tp2490
F4.13233566503623
s(S'1012222221'
p2491
I1
tp2492
F-21.539602089729378
s(S'1022222221'
p2493
I0
tp2494
F-148.75
s(S'0122222111'
p2495
I1
tp2496
F-28.487499999999997
s(S'2222221002'
p2497
I1
tp2498
F-39.38130341689573
s(S'1102222222'
p2499
I0
tp2500
F-141.02167584507305
s(S'0221001111'
p2501
I2
tp2502
I1
s(S'2222101111'
p2503
I1
tp2504
F3.7970228692179377
s(S'0110022222'
p2505
I2
tp2506
F4.091728945669029
s(S'2100222222'
p2507
I0
tp2508
I-200
s(S'2222210222'
p2509
I2
tp2510
F2.1748070600778355
s(S'1110022222'
p2511
I0
tp2512
F-147.65291310544472
s(S'1221011122'
p2513
I0
tp2514
F10.680413945091406
s(S'2212221012'
p2515
I1
tp2516
F1.0
s(S'1222221011'
p2517
I2
tp2518
F-29.341198535156252
s(S'1002222210'
p2519
I1
tp2520
F1.6124999999999998
s(S'1011122222'
p2521
I1
tp2522
F-27.398086843817946
s(S'0012222222'
p2523
I0
tp2524
F-29.698671875000002
s(S'1011222222'
p2525
I2
tp2526
F-124.00139529850914
s(S'1200022222'
p2527
I1
tp2528
F-0.683196074625289
s(S'1002222222'
p2529
I0
tp2530
F-148.75
s(S'1222211110'
p2531
I2
tp2532
F-4.513178446091002
s(S'2220011122'
p2533
I2
tp2534
F7.725536050141224
s(S'1222222110'
p2535
I1
tp2536
I1
s(S'2220112211'
p2537
I2
tp2538
F5.323728865074745
s(S'0122222220'
p2539
I0
tp2540
I5
s(S'2001222220'
p2541
I1
tp2542
F-33.3719744502832
s(S'2200012210'
p2543
I1
tp2544
F1.4725
s(S'1222222210'
p2545
I2
tp2546
F-66.35990180414532
s(S'1222210111'
p2547
I2
tp2548
F-0.22602034212907895
s(S'1222200112'
p2549
I0
tp2550
F6.019717890323791
s(S'0011222222'
p2551
I1
tp2552
F-99.13250000000001
s(S'0222222001'
p2553
I2
tp2554
F-174.875
s(S'0122222210'
p2555
I0
tp2556
I-200
s(S'1221100222'
p2557
I1
tp2558
F4.24410402393427
s(S'1222222200'
p2559
I1
tp2560
I-200
s(S'2200012222'
p2561
I0
tp2562
F11.04042873943983
s(S'2210011122'
p2563
I1
tp2564
F5.198019510103922
s(S'2222220022'
p2565
I2
tp2566
F-0.5838005794229759
s(S'1211012222'
p2567
I2
tp2568
F7.808109104464851
s(S'0222001110'
p2569
I0
tp2570
I5
s(S'0122222222'
p2571
I1
tp2572
F-154.2030517790564
s(S'2110122222'
p2573
I0
tp2574
F-10.25167161585617
s(S'1222012221'
p2575
I1
tp2576
F5.6106957166097375
s(S'1121002222'
p2577
I2
tp2578
F6.610945310304611
s(S'2222011211'
p2579
I2
tp2580
F4.506122507740443
s(S'1222200222'
p2581
I1
tp2582
F4.8563017290535155
s(S'0110222222'
p2583
I0
tp2584
F-97.5
s(S'1222111012'
p2585
I1
tp2586
F2.916706665128241
s(S'2222221012'
p2587
I2
tp2588
F-34.989375050736875
s(S'1100222220'
p2589
I1
tp2590
F1.9773749999999999
s(S'2210121111'
p2591
I0
tp2592
F7.059302155600749
s(S'2011212222'
p2593
I0
tp2594
F-27.20379136462263
s(S'1222001101'
p2595
I0
tp2596
F6.1931151295847044
s(S'1101122222'
p2597
I1
tp2598
F-104.53697531352665
s(S'1122100122'
p2599
I1
tp2600
F3.7064700679682154
s(S'2200122111'
p2601
I2
tp2602
F4.308794950772064
s(S'1222211002'
p2603
I2
tp2604
F4.979868544794724
s(S'2221000022'
p2605
I1
tp2606
F3.3278283747046085
s(S'2222210021'
p2607
I2
tp2608
F-0.044122380096825786
s(S'1101222221'
p2609
I2
tp2610
F1.3278504971285185
s(S'2110022222'
p2611
I2
tp2612
F5.4240019104165675
s(S'1221000222'
p2613
I1
tp2614
F6.24218176212181
s(S'1221011112'
p2615
I2
tp2616
F4.626632992697682
s(S'2222210002'
p2617
I0
tp2618
F-3.942823907164307
s(S'0222222222'
p2619
I2
tp2620
F-157.26778351803475
s(S'2110222222'
p2621
I2
tp2622
F5.53758617131408
s(S'1220111222'
p2623
I0
tp2624
F10.872042732647522
s(S'2220111011'
p2625
I1
tp2626
I1
s(S'2210111101'
p2627
I2
tp2628
F1.35
s(S'0111222222'
p2629
I0
tp2630
F-8.475682106572902
s.